; ModuleID = 'anchor_spl.6371d9f8-cgu.0'
source_filename = "anchor_spl.6371d9f8-cgu.0"
target datalayout = "e-m:e-p:64:64-i64:64-n32:64-S128"
target triple = "bpfel"

%"anchor_lang::prelude::Pubkey" = type { [32 x i8] }
%"std::result::Result<token::InitializeMint, anchor_lang::error::Error>" = type { i64, [21 x i64] }
%"std::result::Result<std::convert::Infallible, anchor_lang::error::Error>::Err" = type { %"anchor_lang::error::Error" }
%"anchor_lang::error::Error" = type { i64, [20 x i64] }
%"std::result::Result<token::InitializeMint, anchor_lang::error::Error>::Err" = type { [1 x i64], %"anchor_lang::error::Error" }
%"std::result::Result<u64, anchor_lang::error::Error>" = type { i64, [21 x i64] }
%"std::result::Result<std::convert::Infallible, anchor_lang::prelude::ProgramError>::Err" = type { %"anchor_lang::prelude::ProgramError" }
%"anchor_lang::prelude::ProgramError" = type { i32, [7 x i32] }
%"std::result::Result<u64, anchor_lang::error::Error>::Err" = type { [1 x i64], %"anchor_lang::error::Error" }
%"std::result::Result<token::ThawAccount, anchor_lang::error::Error>" = type { i64, [21 x i64] }
%"std::result::Result<token::ThawAccount, anchor_lang::error::Error>::Err" = type { [1 x i64], %"anchor_lang::error::Error" }
%"std::result::Result<token::CloseAccount, anchor_lang::error::Error>" = type { i64, [21 x i64] }
%"std::result::Result<token::CloseAccount, anchor_lang::error::Error>::Err" = type { [1 x i64], %"anchor_lang::error::Error" }
%"std::result::Result<token::SetAuthority, anchor_lang::error::Error>" = type { i64, [21 x i64] }
%"std::result::Result<token::SetAuthority, anchor_lang::error::Error>::Err" = type { [1 x i64], %"anchor_lang::error::Error" }
%"std::result::Result<token::Revoke, anchor_lang::error::Error>" = type { i64, [21 x i64] }
%"std::result::Result<token::Revoke, anchor_lang::error::Error>::Err" = type { [1 x i64], %"anchor_lang::error::Error" }
%"std::result::Result<token::MintTo, anchor_lang::error::Error>" = type { i64, [21 x i64] }
%"std::result::Result<token::MintTo, anchor_lang::error::Error>::Err" = type { [1 x i64], %"anchor_lang::error::Error" }
%"std::result::Result<token::Burn, anchor_lang::error::Error>" = type { i64, [21 x i64] }
%"std::result::Result<token::Burn, anchor_lang::error::Error>::Err" = type { [1 x i64], %"anchor_lang::error::Error" }
%"std::result::Result<associated_token::Create, anchor_lang::error::Error>" = type { i64, [42 x i64] }
%"std::result::Result<associated_token::Create, anchor_lang::error::Error>::Err" = type { [1 x i64], %"anchor_lang::error::Error" }
%"std::result::Result<token::InitializeAccount, anchor_lang::error::Error>" = type { i64, [24 x i64] }
%"std::result::Result<token::InitializeAccount, anchor_lang::error::Error>::Err" = type { [1 x i64], %"anchor_lang::error::Error" }
%"std::result::Result<token::FreezeAccount, anchor_lang::error::Error>" = type { i64, [21 x i64] }
%"std::result::Result<token::FreezeAccount, anchor_lang::error::Error>::Err" = type { [1 x i64], %"anchor_lang::error::Error" }
%"std::result::Result<token::Approve, anchor_lang::error::Error>" = type { i64, [21 x i64] }
%"std::result::Result<token::Approve, anchor_lang::error::Error>::Err" = type { [1 x i64], %"anchor_lang::error::Error" }
%"std::result::Result<token::Transfer, anchor_lang::error::Error>" = type { i64, [21 x i64] }
%"std::result::Result<token::Transfer, anchor_lang::error::Error>::Err" = type { [1 x i64], %"anchor_lang::error::Error" }
%"std::result::Result<token::SyncNative, anchor_lang::error::Error>" = type { i64, [21 x i64] }
%"std::result::Result<token::SyncNative, anchor_lang::error::Error>::Err" = type { [1 x i64], %"anchor_lang::error::Error" }
%"std::result::Result<anchor_lang::prelude::Pubkey, anchor_lang::error::Error>" = type { i8, [175 x i8] }
%"std::result::Result<anchor_lang::prelude::Pubkey, anchor_lang::error::Error>::Err" = type { [1 x i64], %"anchor_lang::error::Error" }
%"spl_token::state::Account" = type { %"anchor_lang::prelude::Pubkey", %"anchor_lang::prelude::Pubkey", i64, %"solana_program::program_option::COption<anchor_lang::prelude::Pubkey>", i8, [3 x i8], { i32, i64 }, i64, %"solana_program::program_option::COption<anchor_lang::prelude::Pubkey>", [1 x i32] }
%"solana_program::program_option::COption<anchor_lang::prelude::Pubkey>" = type { i32, [8 x i32] }
%"std::fmt::Formatter" = type { { i64, i64 }, { i64, i64 }, { {}*, [3 x i64]* }, i32, i32, i8, [7 x i8] }
%"spl_token::state::Mint" = type { %"solana_program::program_option::COption<anchor_lang::prelude::Pubkey>", [1 x i32], i64, i8, i8, [2 x i8], %"solana_program::program_option::COption<anchor_lang::prelude::Pubkey>" }
%"token::TokenAccount" = type { %"spl_token::state::Account" }
%"token::Mint" = type { %"spl_token::state::Mint" }
%"token::Burn" = type { %"anchor_lang::prelude::AccountInfo", %"anchor_lang::prelude::AccountInfo", %"anchor_lang::prelude::AccountInfo" }
%"anchor_lang::prelude::AccountInfo" = type { %"anchor_lang::prelude::Pubkey"*, i64*, i64*, %"anchor_lang::prelude::Pubkey"*, i64, i8, i8, i8, [5 x i8] }
%"token::MintTo" = type { %"anchor_lang::prelude::AccountInfo", %"anchor_lang::prelude::AccountInfo", %"anchor_lang::prelude::AccountInfo" }
%"token::Revoke" = type { %"anchor_lang::prelude::AccountInfo", %"anchor_lang::prelude::AccountInfo" }
%"token::Approve" = type { %"anchor_lang::prelude::AccountInfo", %"anchor_lang::prelude::AccountInfo", %"anchor_lang::prelude::AccountInfo" }
%"token::Transfer" = type { %"anchor_lang::prelude::AccountInfo", %"anchor_lang::prelude::AccountInfo", %"anchor_lang::prelude::AccountInfo" }
%"token::SyncNative" = type { %"anchor_lang::prelude::AccountInfo" }
%"token::ThawAccount" = type { %"anchor_lang::prelude::AccountInfo", %"anchor_lang::prelude::AccountInfo", %"anchor_lang::prelude::AccountInfo" }
%"token::CloseAccount" = type { %"anchor_lang::prelude::AccountInfo", %"anchor_lang::prelude::AccountInfo", %"anchor_lang::prelude::AccountInfo" }
%"token::SetAuthority" = type { %"anchor_lang::prelude::AccountInfo", %"anchor_lang::prelude::AccountInfo" }
%"token::FreezeAccount" = type { %"anchor_lang::prelude::AccountInfo", %"anchor_lang::prelude::AccountInfo", %"anchor_lang::prelude::AccountInfo" }
%"token::InitializeMint" = type { %"anchor_lang::prelude::AccountInfo", %"anchor_lang::prelude::AccountInfo" }
%"token::InitializeAccount" = type { %"anchor_lang::prelude::AccountInfo", %"anchor_lang::prelude::AccountInfo", %"anchor_lang::prelude::AccountInfo", %"anchor_lang::prelude::AccountInfo" }
%"anchor_lang::context::CpiContext<token::Burn>" = type { %"token::Burn", %"std::vec::Vec<anchor_lang::prelude::AccountInfo>", %"anchor_lang::prelude::AccountInfo", { [0 x { [0 x { [0 x i8]*, i64 }]*, i64 }]*, i64 } }
%"std::vec::Vec<anchor_lang::prelude::AccountInfo>" = type { { i64*, i64 }, i64 }
%"anchor_lang::context::CpiContext<token::MintTo>" = type { %"token::MintTo", %"std::vec::Vec<anchor_lang::prelude::AccountInfo>", %"anchor_lang::prelude::AccountInfo", { [0 x { [0 x { [0 x i8]*, i64 }]*, i64 }]*, i64 } }
%"anchor_lang::context::CpiContext<token::Revoke>" = type { %"token::Revoke", %"std::vec::Vec<anchor_lang::prelude::AccountInfo>", %"anchor_lang::prelude::AccountInfo", { [0 x { [0 x { [0 x i8]*, i64 }]*, i64 }]*, i64 } }
%"anchor_lang::context::CpiContext<token::Approve>" = type { %"token::Approve", %"std::vec::Vec<anchor_lang::prelude::AccountInfo>", %"anchor_lang::prelude::AccountInfo", { [0 x { [0 x { [0 x i8]*, i64 }]*, i64 }]*, i64 } }
%"anchor_lang::context::CpiContext<token::Transfer>" = type { %"token::Transfer", %"std::vec::Vec<anchor_lang::prelude::AccountInfo>", %"anchor_lang::prelude::AccountInfo", { [0 x { [0 x { [0 x i8]*, i64 }]*, i64 }]*, i64 } }
%"anchor_lang::context::CpiContext<token::SyncNative>" = type { %"token::SyncNative", %"std::vec::Vec<anchor_lang::prelude::AccountInfo>", %"anchor_lang::prelude::AccountInfo", { [0 x { [0 x { [0 x i8]*, i64 }]*, i64 }]*, i64 } }
%"anchor_lang::context::CpiContext<token::ThawAccount>" = type { %"token::ThawAccount", %"std::vec::Vec<anchor_lang::prelude::AccountInfo>", %"anchor_lang::prelude::AccountInfo", { [0 x { [0 x { [0 x i8]*, i64 }]*, i64 }]*, i64 } }
%"anchor_lang::context::CpiContext<token::CloseAccount>" = type { %"token::CloseAccount", %"std::vec::Vec<anchor_lang::prelude::AccountInfo>", %"anchor_lang::prelude::AccountInfo", { [0 x { [0 x { [0 x i8]*, i64 }]*, i64 }]*, i64 } }
%"anchor_lang::context::CpiContext<token::SetAuthority>" = type { %"token::SetAuthority", %"std::vec::Vec<anchor_lang::prelude::AccountInfo>", %"anchor_lang::prelude::AccountInfo", { [0 x { [0 x { [0 x i8]*, i64 }]*, i64 }]*, i64 } }
%"anchor_lang::context::CpiContext<token::FreezeAccount>" = type { %"token::FreezeAccount", %"std::vec::Vec<anchor_lang::prelude::AccountInfo>", %"anchor_lang::prelude::AccountInfo", { [0 x { [0 x { [0 x i8]*, i64 }]*, i64 }]*, i64 } }
%"anchor_lang::context::CpiContext<token::InitializeMint>" = type { %"token::InitializeMint", %"std::vec::Vec<anchor_lang::prelude::AccountInfo>", %"anchor_lang::prelude::AccountInfo", { [0 x { [0 x { [0 x i8]*, i64 }]*, i64 }]*, i64 } }
%"anchor_lang::context::CpiContext<token::InitializeAccount>" = type { %"token::InitializeAccount", %"std::vec::Vec<anchor_lang::prelude::AccountInfo>", %"anchor_lang::prelude::AccountInfo", { [0 x { [0 x { [0 x i8]*, i64 }]*, i64 }]*, i64 } }
%"std::option::Option<anchor_lang::prelude::Pubkey>" = type { i8, [32 x i8] }
%"std::option::Option<anchor_lang::prelude::Pubkey>::Some" = type { [1 x i8], %"anchor_lang::prelude::Pubkey" }
%"std::result::Result<token::Mint, anchor_lang::prelude::ProgramError>" = type { i64, [11 x i64] }
%"std::result::Result<spl_token::state::Mint, anchor_lang::prelude::ProgramError>" = type { i64, [11 x i64] }
%"std::result::Result<spl_token::state::Mint, anchor_lang::prelude::ProgramError>::Ok" = type { [1 x i64], %"spl_token::state::Mint" }
%"std::result::Result<spl_token::state::Mint, anchor_lang::prelude::ProgramError>::Err" = type { [1 x i64], %"anchor_lang::prelude::ProgramError" }
%"std::result::Result<token::Mint, anchor_lang::prelude::ProgramError>::Err" = type { [1 x i64], %"anchor_lang::prelude::ProgramError" }
%"std::result::Result<token::Mint, anchor_lang::prelude::ProgramError>::Ok" = type { [1 x i64], %"token::Mint" }
%"std::result::Result<token::TokenAccount, anchor_lang::prelude::ProgramError>" = type { i64, [22 x i64] }
%"std::result::Result<spl_token::state::Account, anchor_lang::prelude::ProgramError>" = type { i64, [22 x i64] }
%"std::result::Result<spl_token::state::Account, anchor_lang::prelude::ProgramError>::Ok" = type { [1 x i64], %"spl_token::state::Account" }
%"std::result::Result<spl_token::state::Account, anchor_lang::prelude::ProgramError>::Err" = type { [1 x i64], %"anchor_lang::prelude::ProgramError" }
%"std::result::Result<token::TokenAccount, anchor_lang::prelude::ProgramError>::Err" = type { [1 x i64], %"anchor_lang::prelude::ProgramError" }
%"std::result::Result<token::TokenAccount, anchor_lang::prelude::ProgramError>::Ok" = type { [1 x i64], %"token::TokenAccount" }
%"std::result::Result<anchor_lang::prelude::AccountInfo, anchor_lang::error::Error>" = type { i64, [21 x i64] }
%"[closure@/home/chinedum/.cargo/registry/src/github.com-1ecc6299db9ec823/anchor-spl-0.25.0/src/token.rs:332:10: 332:18]" = type {}
%"std::result::Result<anchor_lang::prelude::AccountInfo, anchor_lang::error::Error>::Ok" = type { [1 x i64], %"anchor_lang::prelude::AccountInfo" }
%"std::result::Result<anchor_lang::prelude::AccountInfo, anchor_lang::error::Error>::Err" = type { [1 x i64], %"anchor_lang::error::Error" }
%"[closure@/home/chinedum/.cargo/registry/src/github.com-1ecc6299db9ec823/anchor-spl-0.25.0/src/token.rs:325:10: 325:18]" = type {}
%"[closure@/home/chinedum/.cargo/registry/src/github.com-1ecc6299db9ec823/anchor-spl-0.25.0/src/token.rs:290:10: 290:18]" = type {}
%"[closure@/home/chinedum/.cargo/registry/src/github.com-1ecc6299db9ec823/anchor-spl-0.25.0/src/token.rs:344:10: 344:18]" = type {}
%"[closure@/home/chinedum/.cargo/registry/src/github.com-1ecc6299db9ec823/anchor-spl-0.25.0/src/associated_token.rs:30:10: 30:18]" = type {}
%"[closure@/home/chinedum/.cargo/registry/src/github.com-1ecc6299db9ec823/anchor-spl-0.25.0/src/token.rs:269:10: 269:18]" = type {}
%"[closure@/home/chinedum/.cargo/registry/src/github.com-1ecc6299db9ec823/anchor-spl-0.25.0/src/token.rs:290:10: 290:18].0" = type {}
%"[closure@/home/chinedum/.cargo/registry/src/github.com-1ecc6299db9ec823/anchor-spl-0.25.0/src/token.rs:318:10: 318:18]" = type {}
%"[closure@/home/chinedum/.cargo/registry/src/github.com-1ecc6299db9ec823/anchor-spl-0.25.0/src/token.rs:303:10: 303:18]" = type {}
%"std::result::Result<token::Mint, anchor_lang::error::Error>" = type { i64, [21 x i64] }
%"std::result::Result<token::Mint, anchor_lang::error::Error>::Ok" = type { [1 x i64], %"token::Mint" }
%"std::result::Result<token::Mint, anchor_lang::error::Error>::Err" = type { [1 x i64], %"anchor_lang::error::Error" }
%"[closure@/home/chinedum/.cargo/registry/src/github.com-1ecc6299db9ec823/anchor-spl-0.25.0/src/associated_token.rs:30:10: 30:18].1" = type {}
%"[closure@/home/chinedum/.cargo/registry/src/github.com-1ecc6299db9ec823/anchor-spl-0.25.0/src/token.rs:276:10: 276:18]" = type {}
%"[closure@/home/chinedum/.cargo/registry/src/github.com-1ecc6299db9ec823/anchor-spl-0.25.0/src/token.rs:332:10: 332:18].2" = type {}
%"[closure@/home/chinedum/.cargo/registry/src/github.com-1ecc6299db9ec823/anchor-spl-0.25.0/src/associated_token.rs:30:10: 30:18].3" = type {}
%"[closure@/home/chinedum/.cargo/registry/src/github.com-1ecc6299db9ec823/anchor-spl-0.25.0/src/token.rs:269:10: 269:18].4" = type {}
%"[closure@/home/chinedum/.cargo/registry/src/github.com-1ecc6299db9ec823/anchor-spl-0.25.0/src/token.rs:311:10: 311:18]" = type {}
%"[closure@/home/chinedum/.cargo/registry/src/github.com-1ecc6299db9ec823/anchor-spl-0.25.0/src/token.rs:283:10: 283:18]" = type {}
%"[closure@/home/chinedum/.cargo/registry/src/github.com-1ecc6299db9ec823/anchor-spl-0.25.0/src/token.rs:318:10: 318:18].5" = type {}
%"[closure@/home/chinedum/.cargo/registry/src/github.com-1ecc6299db9ec823/anchor-spl-0.25.0/src/token.rs:303:10: 303:18].6" = type {}
%"[closure@/home/chinedum/.cargo/registry/src/github.com-1ecc6299db9ec823/anchor-spl-0.25.0/src/token.rs:269:10: 269:18].7" = type {}
%"[closure@/home/chinedum/.cargo/registry/src/github.com-1ecc6299db9ec823/anchor-spl-0.25.0/src/token.rs:338:10: 338:18]" = type {}
%"std::result::Result<token::TokenAccount, anchor_lang::error::Error>" = type { i64, [22 x i64] }
%"std::result::Result<token::TokenAccount, anchor_lang::error::Error>::Ok" = type { [1 x i64], %"token::TokenAccount" }
%"std::result::Result<token::TokenAccount, anchor_lang::error::Error>::Err" = type { [1 x i64], %"anchor_lang::error::Error" }
%"[closure@/home/chinedum/.cargo/registry/src/github.com-1ecc6299db9ec823/anchor-spl-0.25.0/src/token.rs:283:10: 283:18].8" = type {}
%"[closure@/home/chinedum/.cargo/registry/src/github.com-1ecc6299db9ec823/anchor-spl-0.25.0/src/associated_token.rs:30:10: 30:18].9" = type {}
%"[closure@/home/chinedum/.cargo/registry/src/github.com-1ecc6299db9ec823/anchor-spl-0.25.0/src/token.rs:283:10: 283:18].10" = type {}
%"[closure@/home/chinedum/.cargo/registry/src/github.com-1ecc6299db9ec823/anchor-spl-0.25.0/src/token.rs:311:10: 311:18].11" = type {}
%"[closure@/home/chinedum/.cargo/registry/src/github.com-1ecc6299db9ec823/anchor-spl-0.25.0/src/token.rs:325:10: 325:18].12" = type {}
%"[closure@/home/chinedum/.cargo/registry/src/github.com-1ecc6299db9ec823/anchor-spl-0.25.0/src/token.rs:297:10: 297:18]" = type {}
%"[closure@/home/chinedum/.cargo/registry/src/github.com-1ecc6299db9ec823/anchor-spl-0.25.0/src/token.rs:297:10: 297:18].13" = type {}
%"[closure@/home/chinedum/.cargo/registry/src/github.com-1ecc6299db9ec823/anchor-spl-0.25.0/src/token.rs:311:10: 311:18].14" = type {}
%"[closure@/home/chinedum/.cargo/registry/src/github.com-1ecc6299db9ec823/anchor-spl-0.25.0/src/associated_token.rs:30:10: 30:18].15" = type {}
%"[closure@/home/chinedum/.cargo/registry/src/github.com-1ecc6299db9ec823/anchor-spl-0.25.0/src/associated_token.rs:30:10: 30:18].16" = type {}
%"[closure@/home/chinedum/.cargo/registry/src/github.com-1ecc6299db9ec823/anchor-spl-0.25.0/src/token.rs:303:10: 303:18].17" = type {}
%"[closure@/home/chinedum/.cargo/registry/src/github.com-1ecc6299db9ec823/anchor-spl-0.25.0/src/token.rs:276:10: 276:18].18" = type {}
%"[closure@/home/chinedum/.cargo/registry/src/github.com-1ecc6299db9ec823/anchor-spl-0.25.0/src/token.rs:290:10: 290:18].19" = type {}
%"[closure@/home/chinedum/.cargo/registry/src/github.com-1ecc6299db9ec823/anchor-spl-0.25.0/src/token.rs:303:10: 303:18].20" = type {}
%"[closure@/home/chinedum/.cargo/registry/src/github.com-1ecc6299db9ec823/anchor-spl-0.25.0/src/token.rs:325:10: 325:18].21" = type {}
%"[closure@/home/chinedum/.cargo/registry/src/github.com-1ecc6299db9ec823/anchor-spl-0.25.0/src/associated_token.rs:30:10: 30:18].22" = type {}
%"[closure@/home/chinedum/.cargo/registry/src/github.com-1ecc6299db9ec823/anchor-spl-0.25.0/src/token.rs:276:10: 276:18].23" = type {}
%"[closure@/home/chinedum/.cargo/registry/src/github.com-1ecc6299db9ec823/anchor-spl-0.25.0/src/token.rs:338:10: 338:18].24" = type {}
%"[closure@/home/chinedum/.cargo/registry/src/github.com-1ecc6299db9ec823/anchor-spl-0.25.0/src/token.rs:318:10: 318:18].25" = type {}
%"std::result::Result<(), anchor_lang::error::Error>" = type { i64, [20 x i64] }
%"anchor_lang::context::CpiContext<associated_token::Create>" = type { %"associated_token::Create", %"std::vec::Vec<anchor_lang::prelude::AccountInfo>", %"anchor_lang::prelude::AccountInfo", { [0 x { [0 x { [0 x i8]*, i64 }]*, i64 }]*, i64 } }
%"associated_token::Create" = type { %"anchor_lang::prelude::AccountInfo", %"anchor_lang::prelude::AccountInfo", %"anchor_lang::prelude::AccountInfo", %"anchor_lang::prelude::AccountInfo", %"anchor_lang::prelude::AccountInfo", %"anchor_lang::prelude::AccountInfo", %"anchor_lang::prelude::AccountInfo" }
%"std::result::Result<(), anchor_lang::prelude::ProgramError>" = type { i32, [7 x i32] }
%"solana_program::instruction::Instruction" = type { %"std::vec::Vec<anchor_lang::prelude::AccountMeta>", %"std::vec::Vec<u8>", %"anchor_lang::prelude::Pubkey" }
%"std::vec::Vec<anchor_lang::prelude::AccountMeta>" = type { { i8*, i64 }, i64 }
%"std::vec::Vec<u8>" = type { { i8*, i64 }, i64 }
%"std::result::Result<solana_program::instruction::Instruction, anchor_lang::prelude::ProgramError>" = type { i64, [10 x i64] }
%"std::ops::ControlFlow<std::result::Result<std::convert::Infallible, anchor_lang::prelude::ProgramError>, solana_program::instruction::Instruction>" = type { i64, [10 x i64] }
%"std::ops::ControlFlow<std::result::Result<std::convert::Infallible, anchor_lang::prelude::ProgramError>, solana_program::instruction::Instruction>::Continue" = type { [1 x i64], %"solana_program::instruction::Instruction" }
%"std::ops::ControlFlow<std::result::Result<std::convert::Infallible, anchor_lang::prelude::ProgramError>, solana_program::instruction::Instruction>::Break" = type { [1 x i64], %"std::result::Result<std::convert::Infallible, anchor_lang::prelude::ProgramError>::Err" }
%"std::result::Result<std::cell::Ref<&mut [u8]>, anchor_lang::prelude::ProgramError>" = type { i64, [4 x i64] }
%"std::ops::ControlFlow<std::result::Result<std::convert::Infallible, anchor_lang::prelude::ProgramError>, std::cell::Ref<&mut [u8]>>" = type { i64, [4 x i64] }
%"std::ops::ControlFlow<std::result::Result<std::convert::Infallible, anchor_lang::prelude::ProgramError>, std::cell::Ref<&mut [u8]>>::Continue" = type { [1 x i64], { i64*, i64* } }
%"std::ops::ControlFlow<std::result::Result<std::convert::Infallible, anchor_lang::prelude::ProgramError>, std::cell::Ref<&mut [u8]>>::Break" = type { [1 x i64], %"std::result::Result<std::convert::Infallible, anchor_lang::prelude::ProgramError>::Err" }
%"std::panic::Location" = type { { [0 x i8]*, i64 }, i32, i32 }
%"std::result::Result<u64, anchor_lang::error::Error>::Ok" = type { [1 x i64], i64 }
%"std::result::Result<anchor_lang::prelude::Pubkey, anchor_lang::error::Error>::Ok" = type { [1 x i8], %"anchor_lang::prelude::Pubkey" }
%"std::collections::BTreeMap<std::string::String, u8>" = type { { i64, i64* }, i64 }
%"std::collections::BTreeSet<anchor_lang::prelude::Pubkey>" = type { %"std::collections::BTreeMap<anchor_lang::prelude::Pubkey, ()>" }
%"std::collections::BTreeMap<anchor_lang::prelude::Pubkey, ()>" = type { { i64, i64* }, i64 }
%"std::ops::ControlFlow<std::result::Result<std::convert::Infallible, anchor_lang::error::Error>, anchor_lang::prelude::AccountInfo>" = type { i64, [21 x i64] }
%"std::ops::ControlFlow<std::result::Result<std::convert::Infallible, anchor_lang::error::Error>, anchor_lang::prelude::AccountInfo>::Continue" = type { [1 x i64], %"anchor_lang::prelude::AccountInfo" }
%"std::ops::ControlFlow<std::result::Result<std::convert::Infallible, anchor_lang::error::Error>, anchor_lang::prelude::AccountInfo>::Break" = type { [1 x i64], %"std::result::Result<std::convert::Infallible, anchor_lang::error::Error>::Err" }
%"std::result::Result<associated_token::Create, anchor_lang::error::Error>::Ok" = type { [1 x i64], %"associated_token::Create" }
%"associated_token::__client_accounts_create::Create" = type { %"anchor_lang::prelude::Pubkey", %"anchor_lang::prelude::Pubkey", %"anchor_lang::prelude::Pubkey", %"anchor_lang::prelude::Pubkey", %"anchor_lang::prelude::Pubkey", %"anchor_lang::prelude::Pubkey", %"anchor_lang::prelude::Pubkey" }
%"anchor_lang::prelude::AccountMeta" = type { %"anchor_lang::prelude::Pubkey", i8, i8 }
%"associated_token::__cpi_client_accounts_create::Create" = type { %"anchor_lang::prelude::AccountInfo", %"anchor_lang::prelude::AccountInfo", %"anchor_lang::prelude::AccountInfo", %"anchor_lang::prelude::AccountInfo", %"anchor_lang::prelude::AccountInfo", %"anchor_lang::prelude::AccountInfo", %"anchor_lang::prelude::AccountInfo" }
%"std::result::Result<token::Transfer, anchor_lang::error::Error>::Ok" = type { [1 x i64], %"token::Transfer" }
%"token::__client_accounts_transfer::Transfer" = type { %"anchor_lang::prelude::Pubkey", %"anchor_lang::prelude::Pubkey", %"anchor_lang::prelude::Pubkey" }
%"token::__cpi_client_accounts_transfer::Transfer" = type { %"anchor_lang::prelude::AccountInfo", %"anchor_lang::prelude::AccountInfo", %"anchor_lang::prelude::AccountInfo" }
%"std::result::Result<token::MintTo, anchor_lang::error::Error>::Ok" = type { [1 x i64], %"token::MintTo" }
%"token::__client_accounts_mint_to::MintTo" = type { %"anchor_lang::prelude::Pubkey", %"anchor_lang::prelude::Pubkey", %"anchor_lang::prelude::Pubkey" }
%"token::__cpi_client_accounts_mint_to::MintTo" = type { %"anchor_lang::prelude::AccountInfo", %"anchor_lang::prelude::AccountInfo", %"anchor_lang::prelude::AccountInfo" }
%"std::result::Result<token::Burn, anchor_lang::error::Error>::Ok" = type { [1 x i64], %"token::Burn" }
%"token::__client_accounts_burn::Burn" = type { %"anchor_lang::prelude::Pubkey", %"anchor_lang::prelude::Pubkey", %"anchor_lang::prelude::Pubkey" }
%"token::__cpi_client_accounts_burn::Burn" = type { %"anchor_lang::prelude::AccountInfo", %"anchor_lang::prelude::AccountInfo", %"anchor_lang::prelude::AccountInfo" }
%"std::result::Result<token::Approve, anchor_lang::error::Error>::Ok" = type { [1 x i64], %"token::Approve" }
%"token::__client_accounts_approve::Approve" = type { %"anchor_lang::prelude::Pubkey", %"anchor_lang::prelude::Pubkey", %"anchor_lang::prelude::Pubkey" }
%"token::__cpi_client_accounts_approve::Approve" = type { %"anchor_lang::prelude::AccountInfo", %"anchor_lang::prelude::AccountInfo", %"anchor_lang::prelude::AccountInfo" }
%"std::result::Result<token::Revoke, anchor_lang::error::Error>::Ok" = type { [1 x i64], %"token::Revoke" }
%"token::__client_accounts_revoke::Revoke" = type { %"anchor_lang::prelude::Pubkey", %"anchor_lang::prelude::Pubkey" }
%"token::__cpi_client_accounts_revoke::Revoke" = type { %"anchor_lang::prelude::AccountInfo", %"anchor_lang::prelude::AccountInfo" }
%"std::result::Result<token::InitializeAccount, anchor_lang::error::Error>::Ok" = type { [1 x i64], %"token::InitializeAccount" }
%"token::__client_accounts_initialize_account::InitializeAccount" = type { %"anchor_lang::prelude::Pubkey", %"anchor_lang::prelude::Pubkey", %"anchor_lang::prelude::Pubkey", %"anchor_lang::prelude::Pubkey" }
%"token::__cpi_client_accounts_initialize_account::InitializeAccount" = type { %"anchor_lang::prelude::AccountInfo", %"anchor_lang::prelude::AccountInfo", %"anchor_lang::prelude::AccountInfo", %"anchor_lang::prelude::AccountInfo" }
%"std::result::Result<token::CloseAccount, anchor_lang::error::Error>::Ok" = type { [1 x i64], %"token::CloseAccount" }
%"token::__client_accounts_close_account::CloseAccount" = type { %"anchor_lang::prelude::Pubkey", %"anchor_lang::prelude::Pubkey", %"anchor_lang::prelude::Pubkey" }
%"token::__cpi_client_accounts_close_account::CloseAccount" = type { %"anchor_lang::prelude::AccountInfo", %"anchor_lang::prelude::AccountInfo", %"anchor_lang::prelude::AccountInfo" }
%"std::result::Result<token::FreezeAccount, anchor_lang::error::Error>::Ok" = type { [1 x i64], %"token::FreezeAccount" }
%"token::__client_accounts_freeze_account::FreezeAccount" = type { %"anchor_lang::prelude::Pubkey", %"anchor_lang::prelude::Pubkey", %"anchor_lang::prelude::Pubkey" }
%"token::__cpi_client_accounts_freeze_account::FreezeAccount" = type { %"anchor_lang::prelude::AccountInfo", %"anchor_lang::prelude::AccountInfo", %"anchor_lang::prelude::AccountInfo" }
%"std::result::Result<token::ThawAccount, anchor_lang::error::Error>::Ok" = type { [1 x i64], %"token::ThawAccount" }
%"token::__client_accounts_thaw_account::ThawAccount" = type { %"anchor_lang::prelude::Pubkey", %"anchor_lang::prelude::Pubkey", %"anchor_lang::prelude::Pubkey" }
%"token::__cpi_client_accounts_thaw_account::ThawAccount" = type { %"anchor_lang::prelude::AccountInfo", %"anchor_lang::prelude::AccountInfo", %"anchor_lang::prelude::AccountInfo" }
%"std::result::Result<token::InitializeMint, anchor_lang::error::Error>::Ok" = type { [1 x i64], %"token::InitializeMint" }
%"token::__client_accounts_initialize_mint::InitializeMint" = type { %"anchor_lang::prelude::Pubkey", %"anchor_lang::prelude::Pubkey" }
%"token::__cpi_client_accounts_initialize_mint::InitializeMint" = type { %"anchor_lang::prelude::AccountInfo", %"anchor_lang::prelude::AccountInfo" }
%"std::result::Result<token::SetAuthority, anchor_lang::error::Error>::Ok" = type { [1 x i64], %"token::SetAuthority" }
%"token::__client_accounts_set_authority::SetAuthority" = type { %"anchor_lang::prelude::Pubkey", %"anchor_lang::prelude::Pubkey" }
%"token::__cpi_client_accounts_set_authority::SetAuthority" = type { %"anchor_lang::prelude::AccountInfo", %"anchor_lang::prelude::AccountInfo" }
%"std::result::Result<token::SyncNative, anchor_lang::error::Error>::Ok" = type { [1 x i64], %"token::SyncNative" }
%"token::__client_accounts_sync_native::SyncNative" = type { %"anchor_lang::prelude::Pubkey" }
%"token::__cpi_client_accounts_sync_native::SyncNative" = type { %"anchor_lang::prelude::AccountInfo" }
%"std::fmt::DebugTuple" = type { %"std::fmt::Formatter"*, i64, i8, i8, [6 x i8] }

@_ZN28spl_associated_token_account2ID17h2c78a3f5ca622435E = external global %"anchor_lang::prelude::Pubkey"
@_ZN9spl_token2ID17hb8db92d31bdb7cc5E = external global %"anchor_lang::prelude::Pubkey"
@alloc176 = private unnamed_addr constant <{ [0 x i8] }> zeroinitializer, align 8
@alloc429 = private unnamed_addr constant <{ [93 x i8] }> <{ [93 x i8] c"/home/chinedum/.cargo/registry/src/github.com-1ecc6299db9ec823/anchor-spl-0.25.0/src/token.rs" }>, align 1
@alloc426 = private unnamed_addr constant <{ i8*, [16 x i8] }> <{ i8* getelementptr inbounds (<{ [93 x i8] }>, <{ [93 x i8] }>* @alloc429, i32 0, i32 0, i32 0), [16 x i8] c"]\00\00\00\00\00\00\00\AC\01\00\00'\00\00\00" }>, align 8
@alloc428 = private unnamed_addr constant <{ i8*, [16 x i8] }> <{ i8* getelementptr inbounds (<{ [93 x i8] }>, <{ [93 x i8] }>* @alloc429, i32 0, i32 0, i32 0), [16 x i8] c"]\00\00\00\00\00\00\00\B3\01\00\00%\00\00\00" }>, align 8
@alloc430 = private unnamed_addr constant <{ i8*, [16 x i8] }> <{ i8* getelementptr inbounds (<{ [93 x i8] }>, <{ [93 x i8] }>* @alloc429, i32 0, i32 0, i32 0), [16 x i8] c"]\00\00\00\00\00\00\00\BA\01\00\00&\00\00\00" }>, align 8
@alloc432 = private unnamed_addr constant <{ [5 x i8] }> <{ [5 x i8] c"payer" }>, align 1
@alloc433 = private unnamed_addr constant <{ [16 x i8] }> <{ [16 x i8] c"associated_token" }>, align 1
@alloc465 = private unnamed_addr constant <{ [9 x i8] }> <{ [9 x i8] c"authority" }>, align 1
@alloc466 = private unnamed_addr constant <{ [4 x i8] }> <{ [4 x i8] c"mint" }>, align 1
@alloc436 = private unnamed_addr constant <{ [14 x i8] }> <{ [14 x i8] c"system_program" }>, align 1
@alloc437 = private unnamed_addr constant <{ [13 x i8] }> <{ [13 x i8] c"token_program" }>, align 1
@alloc467 = private unnamed_addr constant <{ [4 x i8] }> <{ [4 x i8] c"rent" }>, align 1
@_ZN10anchor_spl4mint3srm2ID17hd5699e20f5342775E = constant <{ [32 x i8] }> <{ [32 x i8] c"\06\83\10\86\1A\982}\05PWM\84A\8A\A6\E1\0C3R\DD\AA\7F\D7\F5\81R\CC\EE\B28\87" }>, align 1, !dbg !0
@_ZN10anchor_spl4mint4usdc2ID17h959a9ce376188deaE = constant <{ [32 x i8] }> <{ [32 x i8] c"\C6\FAz\F3\BE\DB\AD:=e\F3j\AB\C9t1\B1\BB\E4\C2\D2\F6\E0\E4|\A6\02\03E/]a" }>, align 1, !dbg !17
@alloc446 = private unnamed_addr constant <{ [4 x i8] }> <{ [4 x i8] c"from" }>, align 1
@alloc448 = private unnamed_addr constant <{ [2 x i8] }> <{ [2 x i8] c"to" }>, align 1
@alloc449 = private unnamed_addr constant <{ [8 x i8] }> <{ [8 x i8] c"delegate" }>, align 1
@alloc451 = private unnamed_addr constant <{ [6 x i8] }> <{ [6 x i8] c"source" }>, align 1
@alloc470 = private unnamed_addr constant <{ [7 x i8] }> <{ [7 x i8] c"account" }>, align 1
@alloc458 = private unnamed_addr constant <{ [11 x i8] }> <{ [11 x i8] c"destination" }>, align 1
@alloc468 = private unnamed_addr constant <{ [17 x i8] }> <{ [17 x i8] c"current_authority" }>, align 1
@alloc469 = private unnamed_addr constant <{ [15 x i8] }> <{ [15 x i8] c"account_or_mint" }>, align 1
@alloc471 = private unnamed_addr constant <{ [12 x i8] }> <{ [12 x i8] c"TokenAccount" }>, align 1
@vtable.0 = private unnamed_addr constant <{ i8*, [16 x i8], i8*, [0 x i8] }> <{ i8* bitcast (void (%"spl_token::state::Account"**)* @"_ZN4core3ptr50drop_in_place$LT$$RF$spl_token..state..Account$GT$17h9ce3fc2288d41965E" to i8*), [16 x i8] c"\08\00\00\00\00\00\00\00\08\00\00\00\00\00\00\00", i8* bitcast (i1 (%"spl_token::state::Account"**, %"std::fmt::Formatter"*)* @"_ZN42_$LT$$RF$T$u20$as$u20$core..fmt..Debug$GT$3fmt17h09e9d396df686900E" to i8*), [0 x i8] zeroinitializer }>, align 8, !dbg !20
@alloc475 = private unnamed_addr constant <{ [4 x i8] }> <{ [4 x i8] c"Mint" }>, align 1
@vtable.1 = private unnamed_addr constant <{ i8*, [16 x i8], i8*, [0 x i8] }> <{ i8* bitcast (void (%"spl_token::state::Mint"**)* @"_ZN4core3ptr47drop_in_place$LT$$RF$spl_token..state..Mint$GT$17h02e065a8914ac932E" to i8*), [16 x i8] c"\08\00\00\00\00\00\00\00\08\00\00\00\00\00\00\00", i8* bitcast (i1 (%"spl_token::state::Mint"**, %"std::fmt::Formatter"*)* @"_ZN42_$LT$$RF$T$u20$as$u20$core..fmt..Debug$GT$3fmt17h8f4a495851a0c94bE" to i8*), [0 x i8] zeroinitializer }>, align 8, !dbg !69

; <core::result::Result<T,F> as core::ops::try_trait::FromResidual<core::result::Result<core::convert::Infallible,E>>>::from_residual
; Function Attrs: inlinehint nounwind
define void @"_ZN153_$LT$core..result..Result$LT$T$C$F$GT$$u20$as$u20$core..ops..try_trait..FromResidual$LT$core..result..Result$LT$core..convert..Infallible$C$E$GT$$GT$$GT$13from_residual17h13441914e8b0cddfE"(%"std::result::Result<token::InitializeMint, anchor_lang::error::Error>"* noalias nocapture sret(%"std::result::Result<token::InitializeMint, anchor_lang::error::Error>") dereferenceable(176) %0, %"std::result::Result<std::convert::Infallible, anchor_lang::error::Error>::Err"* noalias nocapture dereferenceable(168) %residual) unnamed_addr #0 !dbg !109 {
start:
  %_4 = alloca %"anchor_lang::error::Error", align 8
  %_3 = alloca %"anchor_lang::error::Error", align 8
  %e = alloca %"anchor_lang::error::Error", align 8
  call void @llvm.dbg.declare(metadata %"std::result::Result<std::convert::Infallible, anchor_lang::error::Error>::Err"* %residual, metadata !418, metadata !DIExpression()), !dbg !423
  call void @llvm.dbg.declare(metadata %"anchor_lang::error::Error"* %e, metadata !419, metadata !DIExpression()), !dbg !424
  %1 = bitcast %"std::result::Result<std::convert::Infallible, anchor_lang::error::Error>::Err"* %residual to %"anchor_lang::error::Error"*, !dbg !425
  %2 = bitcast %"anchor_lang::error::Error"* %e to i8*, !dbg !425
  %3 = bitcast %"anchor_lang::error::Error"* %1 to i8*, !dbg !425
  call void @llvm.memcpy.p0i8.p0i8.i64(i8* align 8 %2, i8* align 8 %3, i64 168, i1 false), !dbg !425
  %4 = bitcast %"anchor_lang::error::Error"* %_4 to i8*, !dbg !426
  %5 = bitcast %"anchor_lang::error::Error"* %e to i8*, !dbg !426
  call void @llvm.memcpy.p0i8.p0i8.i64(i8* align 8 %4, i8* align 8 %5, i64 168, i1 false), !dbg !426
; call <T as core::convert::From<T>>::from
  call void @"_ZN50_$LT$T$u20$as$u20$core..convert..From$LT$T$GT$$GT$4from17h828c3ce69bf39949E"(%"anchor_lang::error::Error"* noalias nocapture sret(%"anchor_lang::error::Error") dereferenceable(168) %_3, %"anchor_lang::error::Error"* noalias nocapture dereferenceable(168) %_4), !dbg !427
  br label %bb1, !dbg !427

bb1:                                              ; preds = %start
  %6 = bitcast %"std::result::Result<token::InitializeMint, anchor_lang::error::Error>"* %0 to %"std::result::Result<token::InitializeMint, anchor_lang::error::Error>::Err"*, !dbg !428
  %7 = getelementptr inbounds %"std::result::Result<token::InitializeMint, anchor_lang::error::Error>::Err", %"std::result::Result<token::InitializeMint, anchor_lang::error::Error>::Err"* %6, i32 0, i32 1, !dbg !428
  %8 = bitcast %"anchor_lang::error::Error"* %7 to i8*, !dbg !428
  %9 = bitcast %"anchor_lang::error::Error"* %_3 to i8*, !dbg !428
  call void @llvm.memcpy.p0i8.p0i8.i64(i8* align 8 %8, i8* align 8 %9, i64 168, i1 false), !dbg !428
  %10 = bitcast %"std::result::Result<token::InitializeMint, anchor_lang::error::Error>"* %0 to i64*, !dbg !428
  store i64 1, i64* %10, align 8, !dbg !428
  ret void, !dbg !429
}

; <core::result::Result<T,F> as core::ops::try_trait::FromResidual<core::result::Result<core::convert::Infallible,E>>>::from_residual
; Function Attrs: inlinehint nounwind
define void @"_ZN153_$LT$core..result..Result$LT$T$C$F$GT$$u20$as$u20$core..ops..try_trait..FromResidual$LT$core..result..Result$LT$core..convert..Infallible$C$E$GT$$GT$$GT$13from_residual17h17586b5da9b1825bE"(%"std::result::Result<u64, anchor_lang::error::Error>"* noalias nocapture sret(%"std::result::Result<u64, anchor_lang::error::Error>") dereferenceable(176) %0, %"std::result::Result<std::convert::Infallible, anchor_lang::prelude::ProgramError>::Err"* noalias nocapture dereferenceable(32) %residual) unnamed_addr #0 !dbg !430 {
start:
  %_4 = alloca %"anchor_lang::prelude::ProgramError", align 8
  %_3 = alloca %"anchor_lang::error::Error", align 8
  %e = alloca %"anchor_lang::prelude::ProgramError", align 8
  call void @llvm.dbg.declare(metadata %"std::result::Result<std::convert::Infallible, anchor_lang::prelude::ProgramError>::Err"* %residual, metadata !457, metadata !DIExpression()), !dbg !461
  call void @llvm.dbg.declare(metadata %"anchor_lang::prelude::ProgramError"* %e, metadata !458, metadata !DIExpression()), !dbg !462
  %1 = bitcast %"std::result::Result<std::convert::Infallible, anchor_lang::prelude::ProgramError>::Err"* %residual to %"anchor_lang::prelude::ProgramError"*, !dbg !463
  %2 = bitcast %"anchor_lang::prelude::ProgramError"* %e to i8*, !dbg !463
  %3 = bitcast %"anchor_lang::prelude::ProgramError"* %1 to i8*, !dbg !463
  call void @llvm.memcpy.p0i8.p0i8.i64(i8* align 8 %2, i8* align 8 %3, i64 32, i1 false), !dbg !463
  %4 = bitcast %"anchor_lang::prelude::ProgramError"* %_4 to i8*, !dbg !464
  %5 = bitcast %"anchor_lang::prelude::ProgramError"* %e to i8*, !dbg !464
  call void @llvm.memcpy.p0i8.p0i8.i64(i8* align 8 %4, i8* align 8 %5, i64 32, i1 false), !dbg !464
; call <anchor_lang::error::Error as core::convert::From<solana_program::program_error::ProgramError>>::from
  call void @"_ZN116_$LT$anchor_lang..error..Error$u20$as$u20$core..convert..From$LT$solana_program..program_error..ProgramError$GT$$GT$4from17h29d53f305f669062E"(%"anchor_lang::error::Error"* noalias nocapture sret(%"anchor_lang::error::Error") dereferenceable(168) %_3, %"anchor_lang::prelude::ProgramError"* noalias nocapture dereferenceable(32) %_4), !dbg !465
  br label %bb1, !dbg !465

bb1:                                              ; preds = %start
  %6 = bitcast %"std::result::Result<u64, anchor_lang::error::Error>"* %0 to %"std::result::Result<u64, anchor_lang::error::Error>::Err"*, !dbg !466
  %7 = getelementptr inbounds %"std::result::Result<u64, anchor_lang::error::Error>::Err", %"std::result::Result<u64, anchor_lang::error::Error>::Err"* %6, i32 0, i32 1, !dbg !466
  %8 = bitcast %"anchor_lang::error::Error"* %7 to i8*, !dbg !466
  %9 = bitcast %"anchor_lang::error::Error"* %_3 to i8*, !dbg !466
  call void @llvm.memcpy.p0i8.p0i8.i64(i8* align 8 %8, i8* align 8 %9, i64 168, i1 false), !dbg !466
  %10 = bitcast %"std::result::Result<u64, anchor_lang::error::Error>"* %0 to i64*, !dbg !466
  store i64 1, i64* %10, align 8, !dbg !466
  ret void, !dbg !467
}

; <core::result::Result<T,F> as core::ops::try_trait::FromResidual<core::result::Result<core::convert::Infallible,E>>>::from_residual
; Function Attrs: inlinehint nounwind
define void @"_ZN153_$LT$core..result..Result$LT$T$C$F$GT$$u20$as$u20$core..ops..try_trait..FromResidual$LT$core..result..Result$LT$core..convert..Infallible$C$E$GT$$GT$$GT$13from_residual17h334202f4a15c0584E"(%"std::result::Result<token::ThawAccount, anchor_lang::error::Error>"* noalias nocapture sret(%"std::result::Result<token::ThawAccount, anchor_lang::error::Error>") dereferenceable(176) %0, %"std::result::Result<std::convert::Infallible, anchor_lang::error::Error>::Err"* noalias nocapture dereferenceable(168) %residual) unnamed_addr #0 !dbg !468 {
start:
  %_4 = alloca %"anchor_lang::error::Error", align 8
  %_3 = alloca %"anchor_lang::error::Error", align 8
  %e = alloca %"anchor_lang::error::Error", align 8
  call void @llvm.dbg.declare(metadata %"std::result::Result<std::convert::Infallible, anchor_lang::error::Error>::Err"* %residual, metadata !491, metadata !DIExpression()), !dbg !495
  call void @llvm.dbg.declare(metadata %"anchor_lang::error::Error"* %e, metadata !492, metadata !DIExpression()), !dbg !496
  %1 = bitcast %"std::result::Result<std::convert::Infallible, anchor_lang::error::Error>::Err"* %residual to %"anchor_lang::error::Error"*, !dbg !497
  %2 = bitcast %"anchor_lang::error::Error"* %e to i8*, !dbg !497
  %3 = bitcast %"anchor_lang::error::Error"* %1 to i8*, !dbg !497
  call void @llvm.memcpy.p0i8.p0i8.i64(i8* align 8 %2, i8* align 8 %3, i64 168, i1 false), !dbg !497
  %4 = bitcast %"anchor_lang::error::Error"* %_4 to i8*, !dbg !498
  %5 = bitcast %"anchor_lang::error::Error"* %e to i8*, !dbg !498
  call void @llvm.memcpy.p0i8.p0i8.i64(i8* align 8 %4, i8* align 8 %5, i64 168, i1 false), !dbg !498
; call <T as core::convert::From<T>>::from
  call void @"_ZN50_$LT$T$u20$as$u20$core..convert..From$LT$T$GT$$GT$4from17h828c3ce69bf39949E"(%"anchor_lang::error::Error"* noalias nocapture sret(%"anchor_lang::error::Error") dereferenceable(168) %_3, %"anchor_lang::error::Error"* noalias nocapture dereferenceable(168) %_4), !dbg !499
  br label %bb1, !dbg !499

bb1:                                              ; preds = %start
  %6 = bitcast %"std::result::Result<token::ThawAccount, anchor_lang::error::Error>"* %0 to %"std::result::Result<token::ThawAccount, anchor_lang::error::Error>::Err"*, !dbg !500
  %7 = getelementptr inbounds %"std::result::Result<token::ThawAccount, anchor_lang::error::Error>::Err", %"std::result::Result<token::ThawAccount, anchor_lang::error::Error>::Err"* %6, i32 0, i32 1, !dbg !500
  %8 = bitcast %"anchor_lang::error::Error"* %7 to i8*, !dbg !500
  %9 = bitcast %"anchor_lang::error::Error"* %_3 to i8*, !dbg !500
  call void @llvm.memcpy.p0i8.p0i8.i64(i8* align 8 %8, i8* align 8 %9, i64 168, i1 false), !dbg !500
  %10 = bitcast %"std::result::Result<token::ThawAccount, anchor_lang::error::Error>"* %0 to i64*, !dbg !500
  store i64 1, i64* %10, align 8, !dbg !500
  ret void, !dbg !501
}

; <core::result::Result<T,F> as core::ops::try_trait::FromResidual<core::result::Result<core::convert::Infallible,E>>>::from_residual
; Function Attrs: inlinehint nounwind
define void @"_ZN153_$LT$core..result..Result$LT$T$C$F$GT$$u20$as$u20$core..ops..try_trait..FromResidual$LT$core..result..Result$LT$core..convert..Infallible$C$E$GT$$GT$$GT$13from_residual17h5c4de6601a6d5c54E"(%"std::result::Result<token::CloseAccount, anchor_lang::error::Error>"* noalias nocapture sret(%"std::result::Result<token::CloseAccount, anchor_lang::error::Error>") dereferenceable(176) %0, %"std::result::Result<std::convert::Infallible, anchor_lang::error::Error>::Err"* noalias nocapture dereferenceable(168) %residual) unnamed_addr #0 !dbg !502 {
start:
  %_4 = alloca %"anchor_lang::error::Error", align 8
  %_3 = alloca %"anchor_lang::error::Error", align 8
  %e = alloca %"anchor_lang::error::Error", align 8
  call void @llvm.dbg.declare(metadata %"std::result::Result<std::convert::Infallible, anchor_lang::error::Error>::Err"* %residual, metadata !525, metadata !DIExpression()), !dbg !529
  call void @llvm.dbg.declare(metadata %"anchor_lang::error::Error"* %e, metadata !526, metadata !DIExpression()), !dbg !530
  %1 = bitcast %"std::result::Result<std::convert::Infallible, anchor_lang::error::Error>::Err"* %residual to %"anchor_lang::error::Error"*, !dbg !531
  %2 = bitcast %"anchor_lang::error::Error"* %e to i8*, !dbg !531
  %3 = bitcast %"anchor_lang::error::Error"* %1 to i8*, !dbg !531
  call void @llvm.memcpy.p0i8.p0i8.i64(i8* align 8 %2, i8* align 8 %3, i64 168, i1 false), !dbg !531
  %4 = bitcast %"anchor_lang::error::Error"* %_4 to i8*, !dbg !532
  %5 = bitcast %"anchor_lang::error::Error"* %e to i8*, !dbg !532
  call void @llvm.memcpy.p0i8.p0i8.i64(i8* align 8 %4, i8* align 8 %5, i64 168, i1 false), !dbg !532
; call <T as core::convert::From<T>>::from
  call void @"_ZN50_$LT$T$u20$as$u20$core..convert..From$LT$T$GT$$GT$4from17h828c3ce69bf39949E"(%"anchor_lang::error::Error"* noalias nocapture sret(%"anchor_lang::error::Error") dereferenceable(168) %_3, %"anchor_lang::error::Error"* noalias nocapture dereferenceable(168) %_4), !dbg !533
  br label %bb1, !dbg !533

bb1:                                              ; preds = %start
  %6 = bitcast %"std::result::Result<token::CloseAccount, anchor_lang::error::Error>"* %0 to %"std::result::Result<token::CloseAccount, anchor_lang::error::Error>::Err"*, !dbg !534
  %7 = getelementptr inbounds %"std::result::Result<token::CloseAccount, anchor_lang::error::Error>::Err", %"std::result::Result<token::CloseAccount, anchor_lang::error::Error>::Err"* %6, i32 0, i32 1, !dbg !534
  %8 = bitcast %"anchor_lang::error::Error"* %7 to i8*, !dbg !534
  %9 = bitcast %"anchor_lang::error::Error"* %_3 to i8*, !dbg !534
  call void @llvm.memcpy.p0i8.p0i8.i64(i8* align 8 %8, i8* align 8 %9, i64 168, i1 false), !dbg !534
  %10 = bitcast %"std::result::Result<token::CloseAccount, anchor_lang::error::Error>"* %0 to i64*, !dbg !534
  store i64 1, i64* %10, align 8, !dbg !534
  ret void, !dbg !535
}

; <core::result::Result<T,F> as core::ops::try_trait::FromResidual<core::result::Result<core::convert::Infallible,E>>>::from_residual
; Function Attrs: inlinehint nounwind
define void @"_ZN153_$LT$core..result..Result$LT$T$C$F$GT$$u20$as$u20$core..ops..try_trait..FromResidual$LT$core..result..Result$LT$core..convert..Infallible$C$E$GT$$GT$$GT$13from_residual17h60167d1e35ff63d4E"(%"std::result::Result<token::SetAuthority, anchor_lang::error::Error>"* noalias nocapture sret(%"std::result::Result<token::SetAuthority, anchor_lang::error::Error>") dereferenceable(176) %0, %"std::result::Result<std::convert::Infallible, anchor_lang::error::Error>::Err"* noalias nocapture dereferenceable(168) %residual) unnamed_addr #0 !dbg !536 {
start:
  %_4 = alloca %"anchor_lang::error::Error", align 8
  %_3 = alloca %"anchor_lang::error::Error", align 8
  %e = alloca %"anchor_lang::error::Error", align 8
  call void @llvm.dbg.declare(metadata %"std::result::Result<std::convert::Infallible, anchor_lang::error::Error>::Err"* %residual, metadata !558, metadata !DIExpression()), !dbg !562
  call void @llvm.dbg.declare(metadata %"anchor_lang::error::Error"* %e, metadata !559, metadata !DIExpression()), !dbg !563
  %1 = bitcast %"std::result::Result<std::convert::Infallible, anchor_lang::error::Error>::Err"* %residual to %"anchor_lang::error::Error"*, !dbg !564
  %2 = bitcast %"anchor_lang::error::Error"* %e to i8*, !dbg !564
  %3 = bitcast %"anchor_lang::error::Error"* %1 to i8*, !dbg !564
  call void @llvm.memcpy.p0i8.p0i8.i64(i8* align 8 %2, i8* align 8 %3, i64 168, i1 false), !dbg !564
  %4 = bitcast %"anchor_lang::error::Error"* %_4 to i8*, !dbg !565
  %5 = bitcast %"anchor_lang::error::Error"* %e to i8*, !dbg !565
  call void @llvm.memcpy.p0i8.p0i8.i64(i8* align 8 %4, i8* align 8 %5, i64 168, i1 false), !dbg !565
; call <T as core::convert::From<T>>::from
  call void @"_ZN50_$LT$T$u20$as$u20$core..convert..From$LT$T$GT$$GT$4from17h828c3ce69bf39949E"(%"anchor_lang::error::Error"* noalias nocapture sret(%"anchor_lang::error::Error") dereferenceable(168) %_3, %"anchor_lang::error::Error"* noalias nocapture dereferenceable(168) %_4), !dbg !566
  br label %bb1, !dbg !566

bb1:                                              ; preds = %start
  %6 = bitcast %"std::result::Result<token::SetAuthority, anchor_lang::error::Error>"* %0 to %"std::result::Result<token::SetAuthority, anchor_lang::error::Error>::Err"*, !dbg !567
  %7 = getelementptr inbounds %"std::result::Result<token::SetAuthority, anchor_lang::error::Error>::Err", %"std::result::Result<token::SetAuthority, anchor_lang::error::Error>::Err"* %6, i32 0, i32 1, !dbg !567
  %8 = bitcast %"anchor_lang::error::Error"* %7 to i8*, !dbg !567
  %9 = bitcast %"anchor_lang::error::Error"* %_3 to i8*, !dbg !567
  call void @llvm.memcpy.p0i8.p0i8.i64(i8* align 8 %8, i8* align 8 %9, i64 168, i1 false), !dbg !567
  %10 = bitcast %"std::result::Result<token::SetAuthority, anchor_lang::error::Error>"* %0 to i64*, !dbg !567
  store i64 1, i64* %10, align 8, !dbg !567
  ret void, !dbg !568
}

; <core::result::Result<T,F> as core::ops::try_trait::FromResidual<core::result::Result<core::convert::Infallible,E>>>::from_residual
; Function Attrs: inlinehint nounwind
define void @"_ZN153_$LT$core..result..Result$LT$T$C$F$GT$$u20$as$u20$core..ops..try_trait..FromResidual$LT$core..result..Result$LT$core..convert..Infallible$C$E$GT$$GT$$GT$13from_residual17h6e704bb98eb53a8fE"(%"std::result::Result<token::Revoke, anchor_lang::error::Error>"* noalias nocapture sret(%"std::result::Result<token::Revoke, anchor_lang::error::Error>") dereferenceable(176) %0, %"std::result::Result<std::convert::Infallible, anchor_lang::error::Error>::Err"* noalias nocapture dereferenceable(168) %residual) unnamed_addr #0 !dbg !569 {
start:
  %_4 = alloca %"anchor_lang::error::Error", align 8
  %_3 = alloca %"anchor_lang::error::Error", align 8
  %e = alloca %"anchor_lang::error::Error", align 8
  call void @llvm.dbg.declare(metadata %"std::result::Result<std::convert::Infallible, anchor_lang::error::Error>::Err"* %residual, metadata !591, metadata !DIExpression()), !dbg !595
  call void @llvm.dbg.declare(metadata %"anchor_lang::error::Error"* %e, metadata !592, metadata !DIExpression()), !dbg !596
  %1 = bitcast %"std::result::Result<std::convert::Infallible, anchor_lang::error::Error>::Err"* %residual to %"anchor_lang::error::Error"*, !dbg !597
  %2 = bitcast %"anchor_lang::error::Error"* %e to i8*, !dbg !597
  %3 = bitcast %"anchor_lang::error::Error"* %1 to i8*, !dbg !597
  call void @llvm.memcpy.p0i8.p0i8.i64(i8* align 8 %2, i8* align 8 %3, i64 168, i1 false), !dbg !597
  %4 = bitcast %"anchor_lang::error::Error"* %_4 to i8*, !dbg !598
  %5 = bitcast %"anchor_lang::error::Error"* %e to i8*, !dbg !598
  call void @llvm.memcpy.p0i8.p0i8.i64(i8* align 8 %4, i8* align 8 %5, i64 168, i1 false), !dbg !598
; call <T as core::convert::From<T>>::from
  call void @"_ZN50_$LT$T$u20$as$u20$core..convert..From$LT$T$GT$$GT$4from17h828c3ce69bf39949E"(%"anchor_lang::error::Error"* noalias nocapture sret(%"anchor_lang::error::Error") dereferenceable(168) %_3, %"anchor_lang::error::Error"* noalias nocapture dereferenceable(168) %_4), !dbg !599
  br label %bb1, !dbg !599

bb1:                                              ; preds = %start
  %6 = bitcast %"std::result::Result<token::Revoke, anchor_lang::error::Error>"* %0 to %"std::result::Result<token::Revoke, anchor_lang::error::Error>::Err"*, !dbg !600
  %7 = getelementptr inbounds %"std::result::Result<token::Revoke, anchor_lang::error::Error>::Err", %"std::result::Result<token::Revoke, anchor_lang::error::Error>::Err"* %6, i32 0, i32 1, !dbg !600
  %8 = bitcast %"anchor_lang::error::Error"* %7 to i8*, !dbg !600
  %9 = bitcast %"anchor_lang::error::Error"* %_3 to i8*, !dbg !600
  call void @llvm.memcpy.p0i8.p0i8.i64(i8* align 8 %8, i8* align 8 %9, i64 168, i1 false), !dbg !600
  %10 = bitcast %"std::result::Result<token::Revoke, anchor_lang::error::Error>"* %0 to i64*, !dbg !600
  store i64 1, i64* %10, align 8, !dbg !600
  ret void, !dbg !601
}

; <core::result::Result<T,F> as core::ops::try_trait::FromResidual<core::result::Result<core::convert::Infallible,E>>>::from_residual
; Function Attrs: inlinehint nounwind
define void @"_ZN153_$LT$core..result..Result$LT$T$C$F$GT$$u20$as$u20$core..ops..try_trait..FromResidual$LT$core..result..Result$LT$core..convert..Infallible$C$E$GT$$GT$$GT$13from_residual17h701ed55b07b55ae1E"(%"std::result::Result<token::MintTo, anchor_lang::error::Error>"* noalias nocapture sret(%"std::result::Result<token::MintTo, anchor_lang::error::Error>") dereferenceable(176) %0, %"std::result::Result<std::convert::Infallible, anchor_lang::error::Error>::Err"* noalias nocapture dereferenceable(168) %residual) unnamed_addr #0 !dbg !602 {
start:
  %_4 = alloca %"anchor_lang::error::Error", align 8
  %_3 = alloca %"anchor_lang::error::Error", align 8
  %e = alloca %"anchor_lang::error::Error", align 8
  call void @llvm.dbg.declare(metadata %"std::result::Result<std::convert::Infallible, anchor_lang::error::Error>::Err"* %residual, metadata !625, metadata !DIExpression()), !dbg !629
  call void @llvm.dbg.declare(metadata %"anchor_lang::error::Error"* %e, metadata !626, metadata !DIExpression()), !dbg !630
  %1 = bitcast %"std::result::Result<std::convert::Infallible, anchor_lang::error::Error>::Err"* %residual to %"anchor_lang::error::Error"*, !dbg !631
  %2 = bitcast %"anchor_lang::error::Error"* %e to i8*, !dbg !631
  %3 = bitcast %"anchor_lang::error::Error"* %1 to i8*, !dbg !631
  call void @llvm.memcpy.p0i8.p0i8.i64(i8* align 8 %2, i8* align 8 %3, i64 168, i1 false), !dbg !631
  %4 = bitcast %"anchor_lang::error::Error"* %_4 to i8*, !dbg !632
  %5 = bitcast %"anchor_lang::error::Error"* %e to i8*, !dbg !632
  call void @llvm.memcpy.p0i8.p0i8.i64(i8* align 8 %4, i8* align 8 %5, i64 168, i1 false), !dbg !632
; call <T as core::convert::From<T>>::from
  call void @"_ZN50_$LT$T$u20$as$u20$core..convert..From$LT$T$GT$$GT$4from17h828c3ce69bf39949E"(%"anchor_lang::error::Error"* noalias nocapture sret(%"anchor_lang::error::Error") dereferenceable(168) %_3, %"anchor_lang::error::Error"* noalias nocapture dereferenceable(168) %_4), !dbg !633
  br label %bb1, !dbg !633

bb1:                                              ; preds = %start
  %6 = bitcast %"std::result::Result<token::MintTo, anchor_lang::error::Error>"* %0 to %"std::result::Result<token::MintTo, anchor_lang::error::Error>::Err"*, !dbg !634
  %7 = getelementptr inbounds %"std::result::Result<token::MintTo, anchor_lang::error::Error>::Err", %"std::result::Result<token::MintTo, anchor_lang::error::Error>::Err"* %6, i32 0, i32 1, !dbg !634
  %8 = bitcast %"anchor_lang::error::Error"* %7 to i8*, !dbg !634
  %9 = bitcast %"anchor_lang::error::Error"* %_3 to i8*, !dbg !634
  call void @llvm.memcpy.p0i8.p0i8.i64(i8* align 8 %8, i8* align 8 %9, i64 168, i1 false), !dbg !634
  %10 = bitcast %"std::result::Result<token::MintTo, anchor_lang::error::Error>"* %0 to i64*, !dbg !634
  store i64 1, i64* %10, align 8, !dbg !634
  ret void, !dbg !635
}

; <core::result::Result<T,F> as core::ops::try_trait::FromResidual<core::result::Result<core::convert::Infallible,E>>>::from_residual
; Function Attrs: inlinehint nounwind
define void @"_ZN153_$LT$core..result..Result$LT$T$C$F$GT$$u20$as$u20$core..ops..try_trait..FromResidual$LT$core..result..Result$LT$core..convert..Infallible$C$E$GT$$GT$$GT$13from_residual17h7d101cc8a76b9c36E"(%"std::result::Result<token::Burn, anchor_lang::error::Error>"* noalias nocapture sret(%"std::result::Result<token::Burn, anchor_lang::error::Error>") dereferenceable(176) %0, %"std::result::Result<std::convert::Infallible, anchor_lang::error::Error>::Err"* noalias nocapture dereferenceable(168) %residual) unnamed_addr #0 !dbg !636 {
start:
  %_4 = alloca %"anchor_lang::error::Error", align 8
  %_3 = alloca %"anchor_lang::error::Error", align 8
  %e = alloca %"anchor_lang::error::Error", align 8
  call void @llvm.dbg.declare(metadata %"std::result::Result<std::convert::Infallible, anchor_lang::error::Error>::Err"* %residual, metadata !659, metadata !DIExpression()), !dbg !663
  call void @llvm.dbg.declare(metadata %"anchor_lang::error::Error"* %e, metadata !660, metadata !DIExpression()), !dbg !664
  %1 = bitcast %"std::result::Result<std::convert::Infallible, anchor_lang::error::Error>::Err"* %residual to %"anchor_lang::error::Error"*, !dbg !665
  %2 = bitcast %"anchor_lang::error::Error"* %e to i8*, !dbg !665
  %3 = bitcast %"anchor_lang::error::Error"* %1 to i8*, !dbg !665
  call void @llvm.memcpy.p0i8.p0i8.i64(i8* align 8 %2, i8* align 8 %3, i64 168, i1 false), !dbg !665
  %4 = bitcast %"anchor_lang::error::Error"* %_4 to i8*, !dbg !666
  %5 = bitcast %"anchor_lang::error::Error"* %e to i8*, !dbg !666
  call void @llvm.memcpy.p0i8.p0i8.i64(i8* align 8 %4, i8* align 8 %5, i64 168, i1 false), !dbg !666
; call <T as core::convert::From<T>>::from
  call void @"_ZN50_$LT$T$u20$as$u20$core..convert..From$LT$T$GT$$GT$4from17h828c3ce69bf39949E"(%"anchor_lang::error::Error"* noalias nocapture sret(%"anchor_lang::error::Error") dereferenceable(168) %_3, %"anchor_lang::error::Error"* noalias nocapture dereferenceable(168) %_4), !dbg !667
  br label %bb1, !dbg !667

bb1:                                              ; preds = %start
  %6 = bitcast %"std::result::Result<token::Burn, anchor_lang::error::Error>"* %0 to %"std::result::Result<token::Burn, anchor_lang::error::Error>::Err"*, !dbg !668
  %7 = getelementptr inbounds %"std::result::Result<token::Burn, anchor_lang::error::Error>::Err", %"std::result::Result<token::Burn, anchor_lang::error::Error>::Err"* %6, i32 0, i32 1, !dbg !668
  %8 = bitcast %"anchor_lang::error::Error"* %7 to i8*, !dbg !668
  %9 = bitcast %"anchor_lang::error::Error"* %_3 to i8*, !dbg !668
  call void @llvm.memcpy.p0i8.p0i8.i64(i8* align 8 %8, i8* align 8 %9, i64 168, i1 false), !dbg !668
  %10 = bitcast %"std::result::Result<token::Burn, anchor_lang::error::Error>"* %0 to i64*, !dbg !668
  store i64 1, i64* %10, align 8, !dbg !668
  ret void, !dbg !669
}

; <core::result::Result<T,F> as core::ops::try_trait::FromResidual<core::result::Result<core::convert::Infallible,E>>>::from_residual
; Function Attrs: inlinehint nounwind
define void @"_ZN153_$LT$core..result..Result$LT$T$C$F$GT$$u20$as$u20$core..ops..try_trait..FromResidual$LT$core..result..Result$LT$core..convert..Infallible$C$E$GT$$GT$$GT$13from_residual17h7f123a6875568169E"(%"std::result::Result<associated_token::Create, anchor_lang::error::Error>"* noalias nocapture sret(%"std::result::Result<associated_token::Create, anchor_lang::error::Error>") dereferenceable(344) %0, %"std::result::Result<std::convert::Infallible, anchor_lang::error::Error>::Err"* noalias nocapture dereferenceable(168) %residual) unnamed_addr #0 !dbg !670 {
start:
  %_4 = alloca %"anchor_lang::error::Error", align 8
  %_3 = alloca %"anchor_lang::error::Error", align 8
  %e = alloca %"anchor_lang::error::Error", align 8
  call void @llvm.dbg.declare(metadata %"std::result::Result<std::convert::Infallible, anchor_lang::error::Error>::Err"* %residual, metadata !698, metadata !DIExpression()), !dbg !702
  call void @llvm.dbg.declare(metadata %"anchor_lang::error::Error"* %e, metadata !699, metadata !DIExpression()), !dbg !703
  %1 = bitcast %"std::result::Result<std::convert::Infallible, anchor_lang::error::Error>::Err"* %residual to %"anchor_lang::error::Error"*, !dbg !704
  %2 = bitcast %"anchor_lang::error::Error"* %e to i8*, !dbg !704
  %3 = bitcast %"anchor_lang::error::Error"* %1 to i8*, !dbg !704
  call void @llvm.memcpy.p0i8.p0i8.i64(i8* align 8 %2, i8* align 8 %3, i64 168, i1 false), !dbg !704
  %4 = bitcast %"anchor_lang::error::Error"* %_4 to i8*, !dbg !705
  %5 = bitcast %"anchor_lang::error::Error"* %e to i8*, !dbg !705
  call void @llvm.memcpy.p0i8.p0i8.i64(i8* align 8 %4, i8* align 8 %5, i64 168, i1 false), !dbg !705
; call <T as core::convert::From<T>>::from
  call void @"_ZN50_$LT$T$u20$as$u20$core..convert..From$LT$T$GT$$GT$4from17h828c3ce69bf39949E"(%"anchor_lang::error::Error"* noalias nocapture sret(%"anchor_lang::error::Error") dereferenceable(168) %_3, %"anchor_lang::error::Error"* noalias nocapture dereferenceable(168) %_4), !dbg !706
  br label %bb1, !dbg !706

bb1:                                              ; preds = %start
  %6 = bitcast %"std::result::Result<associated_token::Create, anchor_lang::error::Error>"* %0 to %"std::result::Result<associated_token::Create, anchor_lang::error::Error>::Err"*, !dbg !707
  %7 = getelementptr inbounds %"std::result::Result<associated_token::Create, anchor_lang::error::Error>::Err", %"std::result::Result<associated_token::Create, anchor_lang::error::Error>::Err"* %6, i32 0, i32 1, !dbg !707
  %8 = bitcast %"anchor_lang::error::Error"* %7 to i8*, !dbg !707
  %9 = bitcast %"anchor_lang::error::Error"* %_3 to i8*, !dbg !707
  call void @llvm.memcpy.p0i8.p0i8.i64(i8* align 8 %8, i8* align 8 %9, i64 168, i1 false), !dbg !707
  %10 = bitcast %"std::result::Result<associated_token::Create, anchor_lang::error::Error>"* %0 to i64*, !dbg !707
  store i64 1, i64* %10, align 8, !dbg !707
  ret void, !dbg !708
}

; <core::result::Result<T,F> as core::ops::try_trait::FromResidual<core::result::Result<core::convert::Infallible,E>>>::from_residual
; Function Attrs: inlinehint nounwind
define void @"_ZN153_$LT$core..result..Result$LT$T$C$F$GT$$u20$as$u20$core..ops..try_trait..FromResidual$LT$core..result..Result$LT$core..convert..Infallible$C$E$GT$$GT$$GT$13from_residual17h991f429d3a36dfb2E"(%"std::result::Result<token::InitializeAccount, anchor_lang::error::Error>"* noalias nocapture sret(%"std::result::Result<token::InitializeAccount, anchor_lang::error::Error>") dereferenceable(200) %0, %"std::result::Result<std::convert::Infallible, anchor_lang::error::Error>::Err"* noalias nocapture dereferenceable(168) %residual) unnamed_addr #0 !dbg !709 {
start:
  %_4 = alloca %"anchor_lang::error::Error", align 8
  %_3 = alloca %"anchor_lang::error::Error", align 8
  %e = alloca %"anchor_lang::error::Error", align 8
  call void @llvm.dbg.declare(metadata %"std::result::Result<std::convert::Infallible, anchor_lang::error::Error>::Err"* %residual, metadata !733, metadata !DIExpression()), !dbg !737
  call void @llvm.dbg.declare(metadata %"anchor_lang::error::Error"* %e, metadata !734, metadata !DIExpression()), !dbg !738
  %1 = bitcast %"std::result::Result<std::convert::Infallible, anchor_lang::error::Error>::Err"* %residual to %"anchor_lang::error::Error"*, !dbg !739
  %2 = bitcast %"anchor_lang::error::Error"* %e to i8*, !dbg !739
  %3 = bitcast %"anchor_lang::error::Error"* %1 to i8*, !dbg !739
  call void @llvm.memcpy.p0i8.p0i8.i64(i8* align 8 %2, i8* align 8 %3, i64 168, i1 false), !dbg !739
  %4 = bitcast %"anchor_lang::error::Error"* %_4 to i8*, !dbg !740
  %5 = bitcast %"anchor_lang::error::Error"* %e to i8*, !dbg !740
  call void @llvm.memcpy.p0i8.p0i8.i64(i8* align 8 %4, i8* align 8 %5, i64 168, i1 false), !dbg !740
; call <T as core::convert::From<T>>::from
  call void @"_ZN50_$LT$T$u20$as$u20$core..convert..From$LT$T$GT$$GT$4from17h828c3ce69bf39949E"(%"anchor_lang::error::Error"* noalias nocapture sret(%"anchor_lang::error::Error") dereferenceable(168) %_3, %"anchor_lang::error::Error"* noalias nocapture dereferenceable(168) %_4), !dbg !741
  br label %bb1, !dbg !741

bb1:                                              ; preds = %start
  %6 = bitcast %"std::result::Result<token::InitializeAccount, anchor_lang::error::Error>"* %0 to %"std::result::Result<token::InitializeAccount, anchor_lang::error::Error>::Err"*, !dbg !742
  %7 = getelementptr inbounds %"std::result::Result<token::InitializeAccount, anchor_lang::error::Error>::Err", %"std::result::Result<token::InitializeAccount, anchor_lang::error::Error>::Err"* %6, i32 0, i32 1, !dbg !742
  %8 = bitcast %"anchor_lang::error::Error"* %7 to i8*, !dbg !742
  %9 = bitcast %"anchor_lang::error::Error"* %_3 to i8*, !dbg !742
  call void @llvm.memcpy.p0i8.p0i8.i64(i8* align 8 %8, i8* align 8 %9, i64 168, i1 false), !dbg !742
  %10 = bitcast %"std::result::Result<token::InitializeAccount, anchor_lang::error::Error>"* %0 to i64*, !dbg !742
  store i64 1, i64* %10, align 8, !dbg !742
  ret void, !dbg !743
}

; <core::result::Result<T,F> as core::ops::try_trait::FromResidual<core::result::Result<core::convert::Infallible,E>>>::from_residual
; Function Attrs: inlinehint nounwind
define void @"_ZN153_$LT$core..result..Result$LT$T$C$F$GT$$u20$as$u20$core..ops..try_trait..FromResidual$LT$core..result..Result$LT$core..convert..Infallible$C$E$GT$$GT$$GT$13from_residual17hb72c835db2e94cbcE"(%"std::result::Result<token::FreezeAccount, anchor_lang::error::Error>"* noalias nocapture sret(%"std::result::Result<token::FreezeAccount, anchor_lang::error::Error>") dereferenceable(176) %0, %"std::result::Result<std::convert::Infallible, anchor_lang::error::Error>::Err"* noalias nocapture dereferenceable(168) %residual) unnamed_addr #0 !dbg !744 {
start:
  %_4 = alloca %"anchor_lang::error::Error", align 8
  %_3 = alloca %"anchor_lang::error::Error", align 8
  %e = alloca %"anchor_lang::error::Error", align 8
  call void @llvm.dbg.declare(metadata %"std::result::Result<std::convert::Infallible, anchor_lang::error::Error>::Err"* %residual, metadata !767, metadata !DIExpression()), !dbg !771
  call void @llvm.dbg.declare(metadata %"anchor_lang::error::Error"* %e, metadata !768, metadata !DIExpression()), !dbg !772
  %1 = bitcast %"std::result::Result<std::convert::Infallible, anchor_lang::error::Error>::Err"* %residual to %"anchor_lang::error::Error"*, !dbg !773
  %2 = bitcast %"anchor_lang::error::Error"* %e to i8*, !dbg !773
  %3 = bitcast %"anchor_lang::error::Error"* %1 to i8*, !dbg !773
  call void @llvm.memcpy.p0i8.p0i8.i64(i8* align 8 %2, i8* align 8 %3, i64 168, i1 false), !dbg !773
  %4 = bitcast %"anchor_lang::error::Error"* %_4 to i8*, !dbg !774
  %5 = bitcast %"anchor_lang::error::Error"* %e to i8*, !dbg !774
  call void @llvm.memcpy.p0i8.p0i8.i64(i8* align 8 %4, i8* align 8 %5, i64 168, i1 false), !dbg !774
; call <T as core::convert::From<T>>::from
  call void @"_ZN50_$LT$T$u20$as$u20$core..convert..From$LT$T$GT$$GT$4from17h828c3ce69bf39949E"(%"anchor_lang::error::Error"* noalias nocapture sret(%"anchor_lang::error::Error") dereferenceable(168) %_3, %"anchor_lang::error::Error"* noalias nocapture dereferenceable(168) %_4), !dbg !775
  br label %bb1, !dbg !775

bb1:                                              ; preds = %start
  %6 = bitcast %"std::result::Result<token::FreezeAccount, anchor_lang::error::Error>"* %0 to %"std::result::Result<token::FreezeAccount, anchor_lang::error::Error>::Err"*, !dbg !776
  %7 = getelementptr inbounds %"std::result::Result<token::FreezeAccount, anchor_lang::error::Error>::Err", %"std::result::Result<token::FreezeAccount, anchor_lang::error::Error>::Err"* %6, i32 0, i32 1, !dbg !776
  %8 = bitcast %"anchor_lang::error::Error"* %7 to i8*, !dbg !776
  %9 = bitcast %"anchor_lang::error::Error"* %_3 to i8*, !dbg !776
  call void @llvm.memcpy.p0i8.p0i8.i64(i8* align 8 %8, i8* align 8 %9, i64 168, i1 false), !dbg !776
  %10 = bitcast %"std::result::Result<token::FreezeAccount, anchor_lang::error::Error>"* %0 to i64*, !dbg !776
  store i64 1, i64* %10, align 8, !dbg !776
  ret void, !dbg !777
}

; <core::result::Result<T,F> as core::ops::try_trait::FromResidual<core::result::Result<core::convert::Infallible,E>>>::from_residual
; Function Attrs: inlinehint nounwind
define void @"_ZN153_$LT$core..result..Result$LT$T$C$F$GT$$u20$as$u20$core..ops..try_trait..FromResidual$LT$core..result..Result$LT$core..convert..Infallible$C$E$GT$$GT$$GT$13from_residual17hc5aecf8adabeecdbE"(%"std::result::Result<token::Approve, anchor_lang::error::Error>"* noalias nocapture sret(%"std::result::Result<token::Approve, anchor_lang::error::Error>") dereferenceable(176) %0, %"std::result::Result<std::convert::Infallible, anchor_lang::error::Error>::Err"* noalias nocapture dereferenceable(168) %residual) unnamed_addr #0 !dbg !778 {
start:
  %_4 = alloca %"anchor_lang::error::Error", align 8
  %_3 = alloca %"anchor_lang::error::Error", align 8
  %e = alloca %"anchor_lang::error::Error", align 8
  call void @llvm.dbg.declare(metadata %"std::result::Result<std::convert::Infallible, anchor_lang::error::Error>::Err"* %residual, metadata !801, metadata !DIExpression()), !dbg !805
  call void @llvm.dbg.declare(metadata %"anchor_lang::error::Error"* %e, metadata !802, metadata !DIExpression()), !dbg !806
  %1 = bitcast %"std::result::Result<std::convert::Infallible, anchor_lang::error::Error>::Err"* %residual to %"anchor_lang::error::Error"*, !dbg !807
  %2 = bitcast %"anchor_lang::error::Error"* %e to i8*, !dbg !807
  %3 = bitcast %"anchor_lang::error::Error"* %1 to i8*, !dbg !807
  call void @llvm.memcpy.p0i8.p0i8.i64(i8* align 8 %2, i8* align 8 %3, i64 168, i1 false), !dbg !807
  %4 = bitcast %"anchor_lang::error::Error"* %_4 to i8*, !dbg !808
  %5 = bitcast %"anchor_lang::error::Error"* %e to i8*, !dbg !808
  call void @llvm.memcpy.p0i8.p0i8.i64(i8* align 8 %4, i8* align 8 %5, i64 168, i1 false), !dbg !808
; call <T as core::convert::From<T>>::from
  call void @"_ZN50_$LT$T$u20$as$u20$core..convert..From$LT$T$GT$$GT$4from17h828c3ce69bf39949E"(%"anchor_lang::error::Error"* noalias nocapture sret(%"anchor_lang::error::Error") dereferenceable(168) %_3, %"anchor_lang::error::Error"* noalias nocapture dereferenceable(168) %_4), !dbg !809
  br label %bb1, !dbg !809

bb1:                                              ; preds = %start
  %6 = bitcast %"std::result::Result<token::Approve, anchor_lang::error::Error>"* %0 to %"std::result::Result<token::Approve, anchor_lang::error::Error>::Err"*, !dbg !810
  %7 = getelementptr inbounds %"std::result::Result<token::Approve, anchor_lang::error::Error>::Err", %"std::result::Result<token::Approve, anchor_lang::error::Error>::Err"* %6, i32 0, i32 1, !dbg !810
  %8 = bitcast %"anchor_lang::error::Error"* %7 to i8*, !dbg !810
  %9 = bitcast %"anchor_lang::error::Error"* %_3 to i8*, !dbg !810
  call void @llvm.memcpy.p0i8.p0i8.i64(i8* align 8 %8, i8* align 8 %9, i64 168, i1 false), !dbg !810
  %10 = bitcast %"std::result::Result<token::Approve, anchor_lang::error::Error>"* %0 to i64*, !dbg !810
  store i64 1, i64* %10, align 8, !dbg !810
  ret void, !dbg !811
}

; <core::result::Result<T,F> as core::ops::try_trait::FromResidual<core::result::Result<core::convert::Infallible,E>>>::from_residual
; Function Attrs: inlinehint nounwind
define void @"_ZN153_$LT$core..result..Result$LT$T$C$F$GT$$u20$as$u20$core..ops..try_trait..FromResidual$LT$core..result..Result$LT$core..convert..Infallible$C$E$GT$$GT$$GT$13from_residual17heb2521e59ebcae48E"(%"std::result::Result<token::Transfer, anchor_lang::error::Error>"* noalias nocapture sret(%"std::result::Result<token::Transfer, anchor_lang::error::Error>") dereferenceable(176) %0, %"std::result::Result<std::convert::Infallible, anchor_lang::error::Error>::Err"* noalias nocapture dereferenceable(168) %residual) unnamed_addr #0 !dbg !812 {
start:
  %_4 = alloca %"anchor_lang::error::Error", align 8
  %_3 = alloca %"anchor_lang::error::Error", align 8
  %e = alloca %"anchor_lang::error::Error", align 8
  call void @llvm.dbg.declare(metadata %"std::result::Result<std::convert::Infallible, anchor_lang::error::Error>::Err"* %residual, metadata !835, metadata !DIExpression()), !dbg !839
  call void @llvm.dbg.declare(metadata %"anchor_lang::error::Error"* %e, metadata !836, metadata !DIExpression()), !dbg !840
  %1 = bitcast %"std::result::Result<std::convert::Infallible, anchor_lang::error::Error>::Err"* %residual to %"anchor_lang::error::Error"*, !dbg !841
  %2 = bitcast %"anchor_lang::error::Error"* %e to i8*, !dbg !841
  %3 = bitcast %"anchor_lang::error::Error"* %1 to i8*, !dbg !841
  call void @llvm.memcpy.p0i8.p0i8.i64(i8* align 8 %2, i8* align 8 %3, i64 168, i1 false), !dbg !841
  %4 = bitcast %"anchor_lang::error::Error"* %_4 to i8*, !dbg !842
  %5 = bitcast %"anchor_lang::error::Error"* %e to i8*, !dbg !842
  call void @llvm.memcpy.p0i8.p0i8.i64(i8* align 8 %4, i8* align 8 %5, i64 168, i1 false), !dbg !842
; call <T as core::convert::From<T>>::from
  call void @"_ZN50_$LT$T$u20$as$u20$core..convert..From$LT$T$GT$$GT$4from17h828c3ce69bf39949E"(%"anchor_lang::error::Error"* noalias nocapture sret(%"anchor_lang::error::Error") dereferenceable(168) %_3, %"anchor_lang::error::Error"* noalias nocapture dereferenceable(168) %_4), !dbg !843
  br label %bb1, !dbg !843

bb1:                                              ; preds = %start
  %6 = bitcast %"std::result::Result<token::Transfer, anchor_lang::error::Error>"* %0 to %"std::result::Result<token::Transfer, anchor_lang::error::Error>::Err"*, !dbg !844
  %7 = getelementptr inbounds %"std::result::Result<token::Transfer, anchor_lang::error::Error>::Err", %"std::result::Result<token::Transfer, anchor_lang::error::Error>::Err"* %6, i32 0, i32 1, !dbg !844
  %8 = bitcast %"anchor_lang::error::Error"* %7 to i8*, !dbg !844
  %9 = bitcast %"anchor_lang::error::Error"* %_3 to i8*, !dbg !844
  call void @llvm.memcpy.p0i8.p0i8.i64(i8* align 8 %8, i8* align 8 %9, i64 168, i1 false), !dbg !844
  %10 = bitcast %"std::result::Result<token::Transfer, anchor_lang::error::Error>"* %0 to i64*, !dbg !844
  store i64 1, i64* %10, align 8, !dbg !844
  ret void, !dbg !845
}

; <core::result::Result<T,F> as core::ops::try_trait::FromResidual<core::result::Result<core::convert::Infallible,E>>>::from_residual
; Function Attrs: inlinehint nounwind
define void @"_ZN153_$LT$core..result..Result$LT$T$C$F$GT$$u20$as$u20$core..ops..try_trait..FromResidual$LT$core..result..Result$LT$core..convert..Infallible$C$E$GT$$GT$$GT$13from_residual17hec11888ca18f8e82E"(%"std::result::Result<token::SyncNative, anchor_lang::error::Error>"* noalias nocapture sret(%"std::result::Result<token::SyncNative, anchor_lang::error::Error>") dereferenceable(176) %0, %"std::result::Result<std::convert::Infallible, anchor_lang::error::Error>::Err"* noalias nocapture dereferenceable(168) %residual) unnamed_addr #0 !dbg !846 {
start:
  %_4 = alloca %"anchor_lang::error::Error", align 8
  %_3 = alloca %"anchor_lang::error::Error", align 8
  %e = alloca %"anchor_lang::error::Error", align 8
  call void @llvm.dbg.declare(metadata %"std::result::Result<std::convert::Infallible, anchor_lang::error::Error>::Err"* %residual, metadata !867, metadata !DIExpression()), !dbg !871
  call void @llvm.dbg.declare(metadata %"anchor_lang::error::Error"* %e, metadata !868, metadata !DIExpression()), !dbg !872
  %1 = bitcast %"std::result::Result<std::convert::Infallible, anchor_lang::error::Error>::Err"* %residual to %"anchor_lang::error::Error"*, !dbg !873
  %2 = bitcast %"anchor_lang::error::Error"* %e to i8*, !dbg !873
  %3 = bitcast %"anchor_lang::error::Error"* %1 to i8*, !dbg !873
  call void @llvm.memcpy.p0i8.p0i8.i64(i8* align 8 %2, i8* align 8 %3, i64 168, i1 false), !dbg !873
  %4 = bitcast %"anchor_lang::error::Error"* %_4 to i8*, !dbg !874
  %5 = bitcast %"anchor_lang::error::Error"* %e to i8*, !dbg !874
  call void @llvm.memcpy.p0i8.p0i8.i64(i8* align 8 %4, i8* align 8 %5, i64 168, i1 false), !dbg !874
; call <T as core::convert::From<T>>::from
  call void @"_ZN50_$LT$T$u20$as$u20$core..convert..From$LT$T$GT$$GT$4from17h828c3ce69bf39949E"(%"anchor_lang::error::Error"* noalias nocapture sret(%"anchor_lang::error::Error") dereferenceable(168) %_3, %"anchor_lang::error::Error"* noalias nocapture dereferenceable(168) %_4), !dbg !875
  br label %bb1, !dbg !875

bb1:                                              ; preds = %start
  %6 = bitcast %"std::result::Result<token::SyncNative, anchor_lang::error::Error>"* %0 to %"std::result::Result<token::SyncNative, anchor_lang::error::Error>::Err"*, !dbg !876
  %7 = getelementptr inbounds %"std::result::Result<token::SyncNative, anchor_lang::error::Error>::Err", %"std::result::Result<token::SyncNative, anchor_lang::error::Error>::Err"* %6, i32 0, i32 1, !dbg !876
  %8 = bitcast %"anchor_lang::error::Error"* %7 to i8*, !dbg !876
  %9 = bitcast %"anchor_lang::error::Error"* %_3 to i8*, !dbg !876
  call void @llvm.memcpy.p0i8.p0i8.i64(i8* align 8 %8, i8* align 8 %9, i64 168, i1 false), !dbg !876
  %10 = bitcast %"std::result::Result<token::SyncNative, anchor_lang::error::Error>"* %0 to i64*, !dbg !876
  store i64 1, i64* %10, align 8, !dbg !876
  ret void, !dbg !877
}

; <core::result::Result<T,F> as core::ops::try_trait::FromResidual<core::result::Result<core::convert::Infallible,E>>>::from_residual
; Function Attrs: inlinehint nounwind
define void @"_ZN153_$LT$core..result..Result$LT$T$C$F$GT$$u20$as$u20$core..ops..try_trait..FromResidual$LT$core..result..Result$LT$core..convert..Infallible$C$E$GT$$GT$$GT$13from_residual17hfa5c4905702e8f6fE"(%"std::result::Result<anchor_lang::prelude::Pubkey, anchor_lang::error::Error>"* noalias nocapture sret(%"std::result::Result<anchor_lang::prelude::Pubkey, anchor_lang::error::Error>") dereferenceable(176) %0, %"std::result::Result<std::convert::Infallible, anchor_lang::prelude::ProgramError>::Err"* noalias nocapture dereferenceable(32) %residual) unnamed_addr #0 !dbg !878 {
start:
  %_4 = alloca %"anchor_lang::prelude::ProgramError", align 8
  %_3 = alloca %"anchor_lang::error::Error", align 8
  %e = alloca %"anchor_lang::prelude::ProgramError", align 8
  call void @llvm.dbg.declare(metadata %"std::result::Result<std::convert::Infallible, anchor_lang::prelude::ProgramError>::Err"* %residual, metadata !896, metadata !DIExpression()), !dbg !900
  call void @llvm.dbg.declare(metadata %"anchor_lang::prelude::ProgramError"* %e, metadata !897, metadata !DIExpression()), !dbg !901
  %1 = bitcast %"std::result::Result<std::convert::Infallible, anchor_lang::prelude::ProgramError>::Err"* %residual to %"anchor_lang::prelude::ProgramError"*, !dbg !902
  %2 = bitcast %"anchor_lang::prelude::ProgramError"* %e to i8*, !dbg !902
  %3 = bitcast %"anchor_lang::prelude::ProgramError"* %1 to i8*, !dbg !902
  call void @llvm.memcpy.p0i8.p0i8.i64(i8* align 8 %2, i8* align 8 %3, i64 32, i1 false), !dbg !902
  %4 = bitcast %"anchor_lang::prelude::ProgramError"* %_4 to i8*, !dbg !903
  %5 = bitcast %"anchor_lang::prelude::ProgramError"* %e to i8*, !dbg !903
  call void @llvm.memcpy.p0i8.p0i8.i64(i8* align 8 %4, i8* align 8 %5, i64 32, i1 false), !dbg !903
; call <anchor_lang::error::Error as core::convert::From<solana_program::program_error::ProgramError>>::from
  call void @"_ZN116_$LT$anchor_lang..error..Error$u20$as$u20$core..convert..From$LT$solana_program..program_error..ProgramError$GT$$GT$4from17h29d53f305f669062E"(%"anchor_lang::error::Error"* noalias nocapture sret(%"anchor_lang::error::Error") dereferenceable(168) %_3, %"anchor_lang::prelude::ProgramError"* noalias nocapture dereferenceable(32) %_4), !dbg !904
  br label %bb1, !dbg !904

bb1:                                              ; preds = %start
  %6 = bitcast %"std::result::Result<anchor_lang::prelude::Pubkey, anchor_lang::error::Error>"* %0 to %"std::result::Result<anchor_lang::prelude::Pubkey, anchor_lang::error::Error>::Err"*, !dbg !905
  %7 = getelementptr inbounds %"std::result::Result<anchor_lang::prelude::Pubkey, anchor_lang::error::Error>::Err", %"std::result::Result<anchor_lang::prelude::Pubkey, anchor_lang::error::Error>::Err"* %6, i32 0, i32 1, !dbg !905
  %8 = bitcast %"anchor_lang::error::Error"* %7 to i8*, !dbg !905
  %9 = bitcast %"anchor_lang::error::Error"* %_3 to i8*, !dbg !905
  call void @llvm.memcpy.p0i8.p0i8.i64(i8* align 8 %8, i8* align 8 %9, i64 168, i1 false), !dbg !905
  %10 = bitcast %"std::result::Result<anchor_lang::prelude::Pubkey, anchor_lang::error::Error>"* %0 to i8*, !dbg !905
  store i8 1, i8* %10, align 8, !dbg !905
  ret void, !dbg !906
}

; <&T as core::fmt::Debug>::fmt
; Function Attrs: nounwind
define zeroext i1 @"_ZN42_$LT$$RF$T$u20$as$u20$core..fmt..Debug$GT$3fmt17h09e9d396df686900E"(%"spl_token::state::Account"** align 8 dereferenceable(8) %self, %"std::fmt::Formatter"* align 8 dereferenceable(64) %f) unnamed_addr #1 !dbg !907 {
start:
  %f.dbg.spill = alloca %"std::fmt::Formatter"*, align 8
  %self.dbg.spill = alloca %"spl_token::state::Account"**, align 8
  store %"spl_token::state::Account"** %self, %"spl_token::state::Account"*** %self.dbg.spill, align 8
  call void @llvm.dbg.declare(metadata %"spl_token::state::Account"*** %self.dbg.spill, metadata !943, metadata !DIExpression()), !dbg !947
  store %"std::fmt::Formatter"* %f, %"std::fmt::Formatter"** %f.dbg.spill, align 8
  call void @llvm.dbg.declare(metadata %"std::fmt::Formatter"** %f.dbg.spill, metadata !944, metadata !DIExpression()), !dbg !948
  %_4 = load %"spl_token::state::Account"*, %"spl_token::state::Account"** %self, align 8, !dbg !949, !nonnull !16
; call <spl_token::state::Account as core::fmt::Debug>::fmt
  %0 = call zeroext i1 @"_ZN62_$LT$spl_token..state..Account$u20$as$u20$core..fmt..Debug$GT$3fmt17h31a27b0b9de75725E"(%"spl_token::state::Account"* align 8 dereferenceable(176) %_4, %"std::fmt::Formatter"* align 8 dereferenceable(64) %f), !dbg !950
  br label %bb1, !dbg !950

bb1:                                              ; preds = %start
  ret i1 %0, !dbg !951
}

; <&T as core::fmt::Debug>::fmt
; Function Attrs: nounwind
define zeroext i1 @"_ZN42_$LT$$RF$T$u20$as$u20$core..fmt..Debug$GT$3fmt17h8f4a495851a0c94bE"(%"spl_token::state::Mint"** align 8 dereferenceable(8) %self, %"std::fmt::Formatter"* align 8 dereferenceable(64) %f) unnamed_addr #1 !dbg !952 {
start:
  %f.dbg.spill = alloca %"std::fmt::Formatter"*, align 8
  %self.dbg.spill = alloca %"spl_token::state::Mint"**, align 8
  store %"spl_token::state::Mint"** %self, %"spl_token::state::Mint"*** %self.dbg.spill, align 8
  call void @llvm.dbg.declare(metadata %"spl_token::state::Mint"*** %self.dbg.spill, metadata !957, metadata !DIExpression()), !dbg !961
  store %"std::fmt::Formatter"* %f, %"std::fmt::Formatter"** %f.dbg.spill, align 8
  call void @llvm.dbg.declare(metadata %"std::fmt::Formatter"** %f.dbg.spill, metadata !958, metadata !DIExpression()), !dbg !962
  %_4 = load %"spl_token::state::Mint"*, %"spl_token::state::Mint"** %self, align 8, !dbg !963, !nonnull !16
; call <spl_token::state::Mint as core::fmt::Debug>::fmt
  %0 = call zeroext i1 @"_ZN59_$LT$spl_token..state..Mint$u20$as$u20$core..fmt..Debug$GT$3fmt17h5773db0bad694b1dE"(%"spl_token::state::Mint"* align 8 dereferenceable(88) %_4, %"std::fmt::Formatter"* align 8 dereferenceable(64) %f), !dbg !964
  br label %bb1, !dbg !964

bb1:                                              ; preds = %start
  ret i1 %0, !dbg !965
}

; core::num::<impl u64>::from_le_bytes
; Function Attrs: inlinehint nounwind
define internal i64 @"_ZN4core3num21_$LT$impl$u20$u64$GT$13from_le_bytes17h4c0892fc85433791E"(i64 %0) unnamed_addr #0 !dbg !966 {
start:
  %x.dbg.spill.i = alloca i64, align 8
  %_3 = alloca [8 x i8], align 1
  %1 = alloca i64, align 8
  %bytes = alloca [8 x i8], align 1
  store i64 %0, i64* %1, align 8
  %2 = bitcast [8 x i8]* %bytes to i8*
  %3 = bitcast i64* %1 to i8*
  call void @llvm.memcpy.p0i8.p0i8.i64(i8* align 1 %2, i8* align 8 %3, i64 8, i1 false)
  call void @llvm.dbg.declare(metadata [8 x i8]* %bytes, metadata !976, metadata !DIExpression()), !dbg !977
  %4 = bitcast [8 x i8]* %_3 to i8*, !dbg !978
  %5 = bitcast [8 x i8]* %bytes to i8*, !dbg !978
  call void @llvm.memcpy.p0i8.p0i8.i64(i8* align 1 %4, i8* align 1 %5, i64 8, i1 false), !dbg !978
  %6 = bitcast [8 x i8]* %_3 to i64*, !dbg !979
  %7 = load i64, i64* %6, align 1, !dbg !979
; call core::num::<impl u64>::from_ne_bytes
  %_2 = call i64 @"_ZN4core3num21_$LT$impl$u20$u64$GT$13from_ne_bytes17h7b3613ca18e09e37E"(i64 %7), !dbg !979
  br label %bb1, !dbg !979

bb1:                                              ; preds = %start
  store i64 %_2, i64* %x.dbg.spill.i, align 8
  call void @llvm.dbg.declare(metadata i64* %x.dbg.spill.i, metadata !980, metadata !DIExpression()), !dbg !985
  br label %bb2, !dbg !987

bb2:                                              ; preds = %bb1
  ret i64 %_2, !dbg !988
}

; core::num::<impl u64>::from_ne_bytes
; Function Attrs: inlinehint nounwind
define internal i64 @"_ZN4core3num21_$LT$impl$u20$u64$GT$13from_ne_bytes17h7b3613ca18e09e37E"(i64 %0) unnamed_addr #0 !dbg !989 {
start:
  %1 = alloca i64, align 8
  %_2 = alloca [8 x i8], align 1
  %2 = alloca i64, align 8
  %bytes = alloca [8 x i8], align 1
  store i64 %0, i64* %2, align 8
  %3 = bitcast [8 x i8]* %bytes to i8*
  %4 = bitcast i64* %2 to i8*
  call void @llvm.memcpy.p0i8.p0i8.i64(i8* align 1 %3, i8* align 8 %4, i64 8, i1 false)
  call void @llvm.dbg.declare(metadata [8 x i8]* %bytes, metadata !991, metadata !DIExpression()), !dbg !992
  %5 = bitcast [8 x i8]* %_2 to i8*, !dbg !993
  %6 = bitcast [8 x i8]* %bytes to i8*, !dbg !993
  call void @llvm.memcpy.p0i8.p0i8.i64(i8* align 1 %5, i8* align 1 %6, i64 8, i1 false), !dbg !993
  %7 = bitcast i64* %1 to [8 x i8]*, !dbg !994
  %8 = bitcast [8 x i8]* %7 to i8*, !dbg !994
  %9 = bitcast [8 x i8]* %_2 to i8*, !dbg !994
  call void @llvm.memcpy.p0i8.p0i8.i64(i8* align 1 %8, i8* align 1 %9, i64 8, i1 false), !dbg !994
  %10 = load i64, i64* %1, align 8, !dbg !994
  br label %bb1, !dbg !994

bb1:                                              ; preds = %start
  ret i64 %10, !dbg !995
}

; core::ops::function::FnOnce::call_once
; Function Attrs: inlinehint nounwind
define internal void @_ZN4core3ops8function6FnOnce9call_once17h3ae31c3536f71eacE(%"anchor_lang::error::Error"* noalias nocapture sret(%"anchor_lang::error::Error") dereferenceable(168) %0, %"anchor_lang::prelude::ProgramError"* noalias nocapture dereferenceable(32) %1) unnamed_addr #0 !dbg !996 {
start:
  %_1.dbg.spill = alloca {}, align 1
  %_2 = alloca { %"anchor_lang::prelude::ProgramError" }, align 8
  %2 = bitcast { %"anchor_lang::prelude::ProgramError" }* %_2 to %"anchor_lang::prelude::ProgramError"*
  %3 = bitcast %"anchor_lang::prelude::ProgramError"* %2 to i8*
  %4 = bitcast %"anchor_lang::prelude::ProgramError"* %1 to i8*
  call void @llvm.memcpy.p0i8.p0i8.i64(i8* align 8 %3, i8* align 8 %4, i64 32, i1 false)
  call void @llvm.dbg.declare(metadata {}* %_1.dbg.spill, metadata !1007, metadata !DIExpression()), !dbg !1015
  call void @llvm.dbg.declare(metadata { %"anchor_lang::prelude::ProgramError" }* %_2, metadata !1008, metadata !DIExpression()), !dbg !1015
  %5 = bitcast { %"anchor_lang::prelude::ProgramError" }* %_2 to %"anchor_lang::prelude::ProgramError"*, !dbg !1015
; call <T as core::convert::Into<U>>::into
  call void @"_ZN50_$LT$T$u20$as$u20$core..convert..Into$LT$U$GT$$GT$4into17h66662afcefa4dabcE"(%"anchor_lang::error::Error"* noalias nocapture sret(%"anchor_lang::error::Error") dereferenceable(168) %0, %"anchor_lang::prelude::ProgramError"* noalias nocapture dereferenceable(32) %5), !dbg !1015
  br label %bb1, !dbg !1015

bb1:                                              ; preds = %start
  ret void, !dbg !1015
}

; core::ops::function::FnOnce::call_once
; Function Attrs: inlinehint nounwind
define internal void @_ZN4core3ops8function6FnOnce9call_once17h3c5c09e006886266E(%"token::TokenAccount"* noalias nocapture sret(%"token::TokenAccount") dereferenceable(176) %0, %"spl_token::state::Account"* noalias nocapture dereferenceable(176) %1) unnamed_addr #0 !dbg !1016 {
start:
  %_1.dbg.spill = alloca {}, align 1
  %_2 = alloca { %"spl_token::state::Account" }, align 8
  %2 = bitcast { %"spl_token::state::Account" }* %_2 to %"spl_token::state::Account"*
  %3 = bitcast %"spl_token::state::Account"* %2 to i8*
  %4 = bitcast %"spl_token::state::Account"* %1 to i8*
  call void @llvm.memcpy.p0i8.p0i8.i64(i8* align 8 %3, i8* align 8 %4, i64 176, i1 false)
  call void @llvm.dbg.declare(metadata {}* %_1.dbg.spill, metadata !1026, metadata !DIExpression()), !dbg !1034
  call void @llvm.dbg.declare(metadata { %"spl_token::state::Account" }* %_2, metadata !1027, metadata !DIExpression()), !dbg !1034
  %5 = bitcast { %"spl_token::state::Account" }* %_2 to %"spl_token::state::Account"*, !dbg !1034
; call anchor_spl::token::TokenAccount
  call void @_ZN10anchor_spl5token12TokenAccount17h8f0159ec9837f1a6E(%"token::TokenAccount"* noalias nocapture sret(%"token::TokenAccount") dereferenceable(176) %0, %"spl_token::state::Account"* noalias nocapture dereferenceable(176) %5), !dbg !1034
  br label %bb1, !dbg !1034

bb1:                                              ; preds = %start
  ret void, !dbg !1034
}

; core::ops::function::FnOnce::call_once
; Function Attrs: inlinehint nounwind
define internal void @_ZN4core3ops8function6FnOnce9call_once17h6d21751929922ea1E(%"token::Mint"* noalias nocapture sret(%"token::Mint") dereferenceable(88) %0, %"spl_token::state::Mint"* noalias nocapture dereferenceable(88) %1) unnamed_addr #0 !dbg !1035 {
start:
  %_1.dbg.spill = alloca {}, align 1
  %_2 = alloca { %"spl_token::state::Mint" }, align 8
  %2 = bitcast { %"spl_token::state::Mint" }* %_2 to %"spl_token::state::Mint"*
  %3 = bitcast %"spl_token::state::Mint"* %2 to i8*
  %4 = bitcast %"spl_token::state::Mint"* %1 to i8*
  call void @llvm.memcpy.p0i8.p0i8.i64(i8* align 8 %3, i8* align 8 %4, i64 88, i1 false)
  call void @llvm.dbg.declare(metadata {}* %_1.dbg.spill, metadata !1045, metadata !DIExpression()), !dbg !1053
  call void @llvm.dbg.declare(metadata { %"spl_token::state::Mint" }* %_2, metadata !1046, metadata !DIExpression()), !dbg !1053
  %5 = bitcast { %"spl_token::state::Mint" }* %_2 to %"spl_token::state::Mint"*, !dbg !1053
; call anchor_spl::token::Mint
  call void @_ZN10anchor_spl5token4Mint17h9bb142b11d204b61E(%"token::Mint"* noalias nocapture sret(%"token::Mint") dereferenceable(88) %0, %"spl_token::state::Mint"* noalias nocapture dereferenceable(88) %5), !dbg !1053
  br label %bb1, !dbg !1053

bb1:                                              ; preds = %start
  ret void, !dbg !1053
}

; core::ptr::drop_in_place<anchor_spl::token::Burn>
; Function Attrs: nounwind
define void @"_ZN4core3ptr44drop_in_place$LT$anchor_spl..token..Burn$GT$17h02f57dff800097b2E"(%"token::Burn"* %_1) unnamed_addr #1 !dbg !1054 {
start:
  %_1.dbg.spill = alloca %"token::Burn"*, align 8
  store %"token::Burn"* %_1, %"token::Burn"** %_1.dbg.spill, align 8
  call void @llvm.dbg.declare(metadata %"token::Burn"** %_1.dbg.spill, metadata !1060, metadata !DIExpression()), !dbg !1062
  %0 = bitcast %"token::Burn"* %_1 to %"anchor_lang::prelude::AccountInfo"*, !dbg !1062
; call core::ptr::drop_in_place<solana_program::account_info::AccountInfo>
  call void @"_ZN4core3ptr62drop_in_place$LT$solana_program..account_info..AccountInfo$GT$17hd1338e6d4cf6ac95E"(%"anchor_lang::prelude::AccountInfo"* %0), !dbg !1062
  br label %bb3, !dbg !1062

bb3:                                              ; preds = %start
  %1 = getelementptr inbounds %"token::Burn", %"token::Burn"* %_1, i32 0, i32 1, !dbg !1062
; call core::ptr::drop_in_place<solana_program::account_info::AccountInfo>
  call void @"_ZN4core3ptr62drop_in_place$LT$solana_program..account_info..AccountInfo$GT$17hd1338e6d4cf6ac95E"(%"anchor_lang::prelude::AccountInfo"* %1), !dbg !1062
  br label %bb2, !dbg !1062

bb2:                                              ; preds = %bb3
  %2 = getelementptr inbounds %"token::Burn", %"token::Burn"* %_1, i32 0, i32 2, !dbg !1062
; call core::ptr::drop_in_place<solana_program::account_info::AccountInfo>
  call void @"_ZN4core3ptr62drop_in_place$LT$solana_program..account_info..AccountInfo$GT$17hd1338e6d4cf6ac95E"(%"anchor_lang::prelude::AccountInfo"* %2), !dbg !1062
  br label %bb1, !dbg !1062

bb1:                                              ; preds = %bb2
  ret void, !dbg !1062
}

; core::ptr::drop_in_place<anchor_spl::token::MintTo>
; Function Attrs: nounwind
define void @"_ZN4core3ptr46drop_in_place$LT$anchor_spl..token..MintTo$GT$17h1d7927e6b7de9367E"(%"token::MintTo"* %_1) unnamed_addr #1 !dbg !1063 {
start:
  %_1.dbg.spill = alloca %"token::MintTo"*, align 8
  store %"token::MintTo"* %_1, %"token::MintTo"** %_1.dbg.spill, align 8
  call void @llvm.dbg.declare(metadata %"token::MintTo"** %_1.dbg.spill, metadata !1068, metadata !DIExpression()), !dbg !1070
  %0 = bitcast %"token::MintTo"* %_1 to %"anchor_lang::prelude::AccountInfo"*, !dbg !1070
; call core::ptr::drop_in_place<solana_program::account_info::AccountInfo>
  call void @"_ZN4core3ptr62drop_in_place$LT$solana_program..account_info..AccountInfo$GT$17hd1338e6d4cf6ac95E"(%"anchor_lang::prelude::AccountInfo"* %0), !dbg !1070
  br label %bb3, !dbg !1070

bb3:                                              ; preds = %start
  %1 = getelementptr inbounds %"token::MintTo", %"token::MintTo"* %_1, i32 0, i32 1, !dbg !1070
; call core::ptr::drop_in_place<solana_program::account_info::AccountInfo>
  call void @"_ZN4core3ptr62drop_in_place$LT$solana_program..account_info..AccountInfo$GT$17hd1338e6d4cf6ac95E"(%"anchor_lang::prelude::AccountInfo"* %1), !dbg !1070
  br label %bb2, !dbg !1070

bb2:                                              ; preds = %bb3
  %2 = getelementptr inbounds %"token::MintTo", %"token::MintTo"* %_1, i32 0, i32 2, !dbg !1070
; call core::ptr::drop_in_place<solana_program::account_info::AccountInfo>
  call void @"_ZN4core3ptr62drop_in_place$LT$solana_program..account_info..AccountInfo$GT$17hd1338e6d4cf6ac95E"(%"anchor_lang::prelude::AccountInfo"* %2), !dbg !1070
  br label %bb1, !dbg !1070

bb1:                                              ; preds = %bb2
  ret void, !dbg !1070
}

; core::ptr::drop_in_place<anchor_spl::token::Revoke>
; Function Attrs: nounwind
define void @"_ZN4core3ptr46drop_in_place$LT$anchor_spl..token..Revoke$GT$17h31b9aede4b09bdb4E"(%"token::Revoke"* %_1) unnamed_addr #1 !dbg !1071 {
start:
  %_1.dbg.spill = alloca %"token::Revoke"*, align 8
  store %"token::Revoke"* %_1, %"token::Revoke"** %_1.dbg.spill, align 8
  call void @llvm.dbg.declare(metadata %"token::Revoke"** %_1.dbg.spill, metadata !1076, metadata !DIExpression()), !dbg !1078
  %0 = bitcast %"token::Revoke"* %_1 to %"anchor_lang::prelude::AccountInfo"*, !dbg !1078
; call core::ptr::drop_in_place<solana_program::account_info::AccountInfo>
  call void @"_ZN4core3ptr62drop_in_place$LT$solana_program..account_info..AccountInfo$GT$17hd1338e6d4cf6ac95E"(%"anchor_lang::prelude::AccountInfo"* %0), !dbg !1078
  br label %bb2, !dbg !1078

bb2:                                              ; preds = %start
  %1 = getelementptr inbounds %"token::Revoke", %"token::Revoke"* %_1, i32 0, i32 1, !dbg !1078
; call core::ptr::drop_in_place<solana_program::account_info::AccountInfo>
  call void @"_ZN4core3ptr62drop_in_place$LT$solana_program..account_info..AccountInfo$GT$17hd1338e6d4cf6ac95E"(%"anchor_lang::prelude::AccountInfo"* %1), !dbg !1078
  br label %bb1, !dbg !1078

bb1:                                              ; preds = %bb2
  ret void, !dbg !1078
}

; core::ptr::drop_in_place<&spl_token::state::Mint>
; Function Attrs: inlinehint nounwind
define internal void @"_ZN4core3ptr47drop_in_place$LT$$RF$spl_token..state..Mint$GT$17h02e065a8914ac932E"(%"spl_token::state::Mint"** %_1) unnamed_addr #0 !dbg !1079 {
start:
  %_1.dbg.spill = alloca %"spl_token::state::Mint"**, align 8
  store %"spl_token::state::Mint"** %_1, %"spl_token::state::Mint"*** %_1.dbg.spill, align 8
  call void @llvm.dbg.declare(metadata %"spl_token::state::Mint"*** %_1.dbg.spill, metadata !1084, metadata !DIExpression()), !dbg !1087
  ret void, !dbg !1087
}

; core::ptr::drop_in_place<anchor_spl::token::Approve>
; Function Attrs: nounwind
define void @"_ZN4core3ptr47drop_in_place$LT$anchor_spl..token..Approve$GT$17h11124f7d33ad9318E"(%"token::Approve"* %_1) unnamed_addr #1 !dbg !1088 {
start:
  %_1.dbg.spill = alloca %"token::Approve"*, align 8
  store %"token::Approve"* %_1, %"token::Approve"** %_1.dbg.spill, align 8
  call void @llvm.dbg.declare(metadata %"token::Approve"** %_1.dbg.spill, metadata !1093, metadata !DIExpression()), !dbg !1095
  %0 = bitcast %"token::Approve"* %_1 to %"anchor_lang::prelude::AccountInfo"*, !dbg !1095
; call core::ptr::drop_in_place<solana_program::account_info::AccountInfo>
  call void @"_ZN4core3ptr62drop_in_place$LT$solana_program..account_info..AccountInfo$GT$17hd1338e6d4cf6ac95E"(%"anchor_lang::prelude::AccountInfo"* %0), !dbg !1095
  br label %bb3, !dbg !1095

bb3:                                              ; preds = %start
  %1 = getelementptr inbounds %"token::Approve", %"token::Approve"* %_1, i32 0, i32 1, !dbg !1095
; call core::ptr::drop_in_place<solana_program::account_info::AccountInfo>
  call void @"_ZN4core3ptr62drop_in_place$LT$solana_program..account_info..AccountInfo$GT$17hd1338e6d4cf6ac95E"(%"anchor_lang::prelude::AccountInfo"* %1), !dbg !1095
  br label %bb2, !dbg !1095

bb2:                                              ; preds = %bb3
  %2 = getelementptr inbounds %"token::Approve", %"token::Approve"* %_1, i32 0, i32 2, !dbg !1095
; call core::ptr::drop_in_place<solana_program::account_info::AccountInfo>
  call void @"_ZN4core3ptr62drop_in_place$LT$solana_program..account_info..AccountInfo$GT$17hd1338e6d4cf6ac95E"(%"anchor_lang::prelude::AccountInfo"* %2), !dbg !1095
  br label %bb1, !dbg !1095

bb1:                                              ; preds = %bb2
  ret void, !dbg !1095
}

; core::ptr::drop_in_place<anchor_spl::token::Transfer>
; Function Attrs: nounwind
define void @"_ZN4core3ptr48drop_in_place$LT$anchor_spl..token..Transfer$GT$17h047eab053c02aeb1E"(%"token::Transfer"* %_1) unnamed_addr #1 !dbg !1096 {
start:
  %_1.dbg.spill = alloca %"token::Transfer"*, align 8
  store %"token::Transfer"* %_1, %"token::Transfer"** %_1.dbg.spill, align 8
  call void @llvm.dbg.declare(metadata %"token::Transfer"** %_1.dbg.spill, metadata !1101, metadata !DIExpression()), !dbg !1103
  %0 = bitcast %"token::Transfer"* %_1 to %"anchor_lang::prelude::AccountInfo"*, !dbg !1103
; call core::ptr::drop_in_place<solana_program::account_info::AccountInfo>
  call void @"_ZN4core3ptr62drop_in_place$LT$solana_program..account_info..AccountInfo$GT$17hd1338e6d4cf6ac95E"(%"anchor_lang::prelude::AccountInfo"* %0), !dbg !1103
  br label %bb3, !dbg !1103

bb3:                                              ; preds = %start
  %1 = getelementptr inbounds %"token::Transfer", %"token::Transfer"* %_1, i32 0, i32 1, !dbg !1103
; call core::ptr::drop_in_place<solana_program::account_info::AccountInfo>
  call void @"_ZN4core3ptr62drop_in_place$LT$solana_program..account_info..AccountInfo$GT$17hd1338e6d4cf6ac95E"(%"anchor_lang::prelude::AccountInfo"* %1), !dbg !1103
  br label %bb2, !dbg !1103

bb2:                                              ; preds = %bb3
  %2 = getelementptr inbounds %"token::Transfer", %"token::Transfer"* %_1, i32 0, i32 2, !dbg !1103
; call core::ptr::drop_in_place<solana_program::account_info::AccountInfo>
  call void @"_ZN4core3ptr62drop_in_place$LT$solana_program..account_info..AccountInfo$GT$17hd1338e6d4cf6ac95E"(%"anchor_lang::prelude::AccountInfo"* %2), !dbg !1103
  br label %bb1, !dbg !1103

bb1:                                              ; preds = %bb2
  ret void, !dbg !1103
}

; core::ptr::drop_in_place<&spl_token::state::Account>
; Function Attrs: inlinehint nounwind
define internal void @"_ZN4core3ptr50drop_in_place$LT$$RF$spl_token..state..Account$GT$17h9ce3fc2288d41965E"(%"spl_token::state::Account"** %_1) unnamed_addr #0 !dbg !1104 {
start:
  %_1.dbg.spill = alloca %"spl_token::state::Account"**, align 8
  store %"spl_token::state::Account"** %_1, %"spl_token::state::Account"*** %_1.dbg.spill, align 8
  call void @llvm.dbg.declare(metadata %"spl_token::state::Account"*** %_1.dbg.spill, metadata !1109, metadata !DIExpression()), !dbg !1112
  ret void, !dbg !1112
}

; core::ptr::drop_in_place<anchor_spl::token::SyncNative>
; Function Attrs: nounwind
define void @"_ZN4core3ptr50drop_in_place$LT$anchor_spl..token..SyncNative$GT$17h0c53811c220acf21E"(%"token::SyncNative"* %_1) unnamed_addr #1 !dbg !1113 {
start:
  %_1.dbg.spill = alloca %"token::SyncNative"*, align 8
  store %"token::SyncNative"* %_1, %"token::SyncNative"** %_1.dbg.spill, align 8
  call void @llvm.dbg.declare(metadata %"token::SyncNative"** %_1.dbg.spill, metadata !1118, metadata !DIExpression()), !dbg !1120
  %0 = bitcast %"token::SyncNative"* %_1 to %"anchor_lang::prelude::AccountInfo"*, !dbg !1120
; call core::ptr::drop_in_place<solana_program::account_info::AccountInfo>
  call void @"_ZN4core3ptr62drop_in_place$LT$solana_program..account_info..AccountInfo$GT$17hd1338e6d4cf6ac95E"(%"anchor_lang::prelude::AccountInfo"* %0), !dbg !1120
  br label %bb1, !dbg !1120

bb1:                                              ; preds = %start
  ret void, !dbg !1120
}

; core::ptr::drop_in_place<anchor_spl::token::ThawAccount>
; Function Attrs: nounwind
define void @"_ZN4core3ptr51drop_in_place$LT$anchor_spl..token..ThawAccount$GT$17hd6b9a40b7867e068E"(%"token::ThawAccount"* %_1) unnamed_addr #1 !dbg !1121 {
start:
  %_1.dbg.spill = alloca %"token::ThawAccount"*, align 8
  store %"token::ThawAccount"* %_1, %"token::ThawAccount"** %_1.dbg.spill, align 8
  call void @llvm.dbg.declare(metadata %"token::ThawAccount"** %_1.dbg.spill, metadata !1126, metadata !DIExpression()), !dbg !1128
  %0 = bitcast %"token::ThawAccount"* %_1 to %"anchor_lang::prelude::AccountInfo"*, !dbg !1128
; call core::ptr::drop_in_place<solana_program::account_info::AccountInfo>
  call void @"_ZN4core3ptr62drop_in_place$LT$solana_program..account_info..AccountInfo$GT$17hd1338e6d4cf6ac95E"(%"anchor_lang::prelude::AccountInfo"* %0), !dbg !1128
  br label %bb3, !dbg !1128

bb3:                                              ; preds = %start
  %1 = getelementptr inbounds %"token::ThawAccount", %"token::ThawAccount"* %_1, i32 0, i32 1, !dbg !1128
; call core::ptr::drop_in_place<solana_program::account_info::AccountInfo>
  call void @"_ZN4core3ptr62drop_in_place$LT$solana_program..account_info..AccountInfo$GT$17hd1338e6d4cf6ac95E"(%"anchor_lang::prelude::AccountInfo"* %1), !dbg !1128
  br label %bb2, !dbg !1128

bb2:                                              ; preds = %bb3
  %2 = getelementptr inbounds %"token::ThawAccount", %"token::ThawAccount"* %_1, i32 0, i32 2, !dbg !1128
; call core::ptr::drop_in_place<solana_program::account_info::AccountInfo>
  call void @"_ZN4core3ptr62drop_in_place$LT$solana_program..account_info..AccountInfo$GT$17hd1338e6d4cf6ac95E"(%"anchor_lang::prelude::AccountInfo"* %2), !dbg !1128
  br label %bb1, !dbg !1128

bb1:                                              ; preds = %bb2
  ret void, !dbg !1128
}

; core::ptr::drop_in_place<anchor_spl::token::CloseAccount>
; Function Attrs: nounwind
define void @"_ZN4core3ptr52drop_in_place$LT$anchor_spl..token..CloseAccount$GT$17h463cb745e0978b8aE"(%"token::CloseAccount"* %_1) unnamed_addr #1 !dbg !1129 {
start:
  %_1.dbg.spill = alloca %"token::CloseAccount"*, align 8
  store %"token::CloseAccount"* %_1, %"token::CloseAccount"** %_1.dbg.spill, align 8
  call void @llvm.dbg.declare(metadata %"token::CloseAccount"** %_1.dbg.spill, metadata !1134, metadata !DIExpression()), !dbg !1136
  %0 = bitcast %"token::CloseAccount"* %_1 to %"anchor_lang::prelude::AccountInfo"*, !dbg !1136
; call core::ptr::drop_in_place<solana_program::account_info::AccountInfo>
  call void @"_ZN4core3ptr62drop_in_place$LT$solana_program..account_info..AccountInfo$GT$17hd1338e6d4cf6ac95E"(%"anchor_lang::prelude::AccountInfo"* %0), !dbg !1136
  br label %bb3, !dbg !1136

bb3:                                              ; preds = %start
  %1 = getelementptr inbounds %"token::CloseAccount", %"token::CloseAccount"* %_1, i32 0, i32 1, !dbg !1136
; call core::ptr::drop_in_place<solana_program::account_info::AccountInfo>
  call void @"_ZN4core3ptr62drop_in_place$LT$solana_program..account_info..AccountInfo$GT$17hd1338e6d4cf6ac95E"(%"anchor_lang::prelude::AccountInfo"* %1), !dbg !1136
  br label %bb2, !dbg !1136

bb2:                                              ; preds = %bb3
  %2 = getelementptr inbounds %"token::CloseAccount", %"token::CloseAccount"* %_1, i32 0, i32 2, !dbg !1136
; call core::ptr::drop_in_place<solana_program::account_info::AccountInfo>
  call void @"_ZN4core3ptr62drop_in_place$LT$solana_program..account_info..AccountInfo$GT$17hd1338e6d4cf6ac95E"(%"anchor_lang::prelude::AccountInfo"* %2), !dbg !1136
  br label %bb1, !dbg !1136

bb1:                                              ; preds = %bb2
  ret void, !dbg !1136
}

; core::ptr::drop_in_place<anchor_spl::token::SetAuthority>
; Function Attrs: nounwind
define void @"_ZN4core3ptr52drop_in_place$LT$anchor_spl..token..SetAuthority$GT$17h261058feaaefb3e1E"(%"token::SetAuthority"* %_1) unnamed_addr #1 !dbg !1137 {
start:
  %_1.dbg.spill = alloca %"token::SetAuthority"*, align 8
  store %"token::SetAuthority"* %_1, %"token::SetAuthority"** %_1.dbg.spill, align 8
  call void @llvm.dbg.declare(metadata %"token::SetAuthority"** %_1.dbg.spill, metadata !1142, metadata !DIExpression()), !dbg !1144
  %0 = bitcast %"token::SetAuthority"* %_1 to %"anchor_lang::prelude::AccountInfo"*, !dbg !1144
; call core::ptr::drop_in_place<solana_program::account_info::AccountInfo>
  call void @"_ZN4core3ptr62drop_in_place$LT$solana_program..account_info..AccountInfo$GT$17hd1338e6d4cf6ac95E"(%"anchor_lang::prelude::AccountInfo"* %0), !dbg !1144
  br label %bb2, !dbg !1144

bb2:                                              ; preds = %start
  %1 = getelementptr inbounds %"token::SetAuthority", %"token::SetAuthority"* %_1, i32 0, i32 1, !dbg !1144
; call core::ptr::drop_in_place<solana_program::account_info::AccountInfo>
  call void @"_ZN4core3ptr62drop_in_place$LT$solana_program..account_info..AccountInfo$GT$17hd1338e6d4cf6ac95E"(%"anchor_lang::prelude::AccountInfo"* %1), !dbg !1144
  br label %bb1, !dbg !1144

bb1:                                              ; preds = %bb2
  ret void, !dbg !1144
}

; core::ptr::drop_in_place<anchor_spl::token::FreezeAccount>
; Function Attrs: nounwind
define void @"_ZN4core3ptr53drop_in_place$LT$anchor_spl..token..FreezeAccount$GT$17h7b0d461c2baaab19E"(%"token::FreezeAccount"* %_1) unnamed_addr #1 !dbg !1145 {
start:
  %_1.dbg.spill = alloca %"token::FreezeAccount"*, align 8
  store %"token::FreezeAccount"* %_1, %"token::FreezeAccount"** %_1.dbg.spill, align 8
  call void @llvm.dbg.declare(metadata %"token::FreezeAccount"** %_1.dbg.spill, metadata !1150, metadata !DIExpression()), !dbg !1152
  %0 = bitcast %"token::FreezeAccount"* %_1 to %"anchor_lang::prelude::AccountInfo"*, !dbg !1152
; call core::ptr::drop_in_place<solana_program::account_info::AccountInfo>
  call void @"_ZN4core3ptr62drop_in_place$LT$solana_program..account_info..AccountInfo$GT$17hd1338e6d4cf6ac95E"(%"anchor_lang::prelude::AccountInfo"* %0), !dbg !1152
  br label %bb3, !dbg !1152

bb3:                                              ; preds = %start
  %1 = getelementptr inbounds %"token::FreezeAccount", %"token::FreezeAccount"* %_1, i32 0, i32 1, !dbg !1152
; call core::ptr::drop_in_place<solana_program::account_info::AccountInfo>
  call void @"_ZN4core3ptr62drop_in_place$LT$solana_program..account_info..AccountInfo$GT$17hd1338e6d4cf6ac95E"(%"anchor_lang::prelude::AccountInfo"* %1), !dbg !1152
  br label %bb2, !dbg !1152

bb2:                                              ; preds = %bb3
  %2 = getelementptr inbounds %"token::FreezeAccount", %"token::FreezeAccount"* %_1, i32 0, i32 2, !dbg !1152
; call core::ptr::drop_in_place<solana_program::account_info::AccountInfo>
  call void @"_ZN4core3ptr62drop_in_place$LT$solana_program..account_info..AccountInfo$GT$17hd1338e6d4cf6ac95E"(%"anchor_lang::prelude::AccountInfo"* %2), !dbg !1152
  br label %bb1, !dbg !1152

bb1:                                              ; preds = %bb2
  ret void, !dbg !1152
}

; core::ptr::drop_in_place<anchor_spl::token::InitializeMint>
; Function Attrs: nounwind
define void @"_ZN4core3ptr54drop_in_place$LT$anchor_spl..token..InitializeMint$GT$17h23ff9947c39f1420E"(%"token::InitializeMint"* %_1) unnamed_addr #1 !dbg !1153 {
start:
  %_1.dbg.spill = alloca %"token::InitializeMint"*, align 8
  store %"token::InitializeMint"* %_1, %"token::InitializeMint"** %_1.dbg.spill, align 8
  call void @llvm.dbg.declare(metadata %"token::InitializeMint"** %_1.dbg.spill, metadata !1158, metadata !DIExpression()), !dbg !1160
  %0 = bitcast %"token::InitializeMint"* %_1 to %"anchor_lang::prelude::AccountInfo"*, !dbg !1160
; call core::ptr::drop_in_place<solana_program::account_info::AccountInfo>
  call void @"_ZN4core3ptr62drop_in_place$LT$solana_program..account_info..AccountInfo$GT$17hd1338e6d4cf6ac95E"(%"anchor_lang::prelude::AccountInfo"* %0), !dbg !1160
  br label %bb2, !dbg !1160

bb2:                                              ; preds = %start
  %1 = getelementptr inbounds %"token::InitializeMint", %"token::InitializeMint"* %_1, i32 0, i32 1, !dbg !1160
; call core::ptr::drop_in_place<solana_program::account_info::AccountInfo>
  call void @"_ZN4core3ptr62drop_in_place$LT$solana_program..account_info..AccountInfo$GT$17hd1338e6d4cf6ac95E"(%"anchor_lang::prelude::AccountInfo"* %1), !dbg !1160
  br label %bb1, !dbg !1160

bb1:                                              ; preds = %bb2
  ret void, !dbg !1160
}

; core::ptr::drop_in_place<anchor_spl::token::InitializeAccount>
; Function Attrs: nounwind
define void @"_ZN4core3ptr57drop_in_place$LT$anchor_spl..token..InitializeAccount$GT$17h486db15181d90666E"(%"token::InitializeAccount"* %_1) unnamed_addr #1 !dbg !1161 {
start:
  %_1.dbg.spill = alloca %"token::InitializeAccount"*, align 8
  store %"token::InitializeAccount"* %_1, %"token::InitializeAccount"** %_1.dbg.spill, align 8
  call void @llvm.dbg.declare(metadata %"token::InitializeAccount"** %_1.dbg.spill, metadata !1166, metadata !DIExpression()), !dbg !1168
  %0 = bitcast %"token::InitializeAccount"* %_1 to %"anchor_lang::prelude::AccountInfo"*, !dbg !1168
; call core::ptr::drop_in_place<solana_program::account_info::AccountInfo>
  call void @"_ZN4core3ptr62drop_in_place$LT$solana_program..account_info..AccountInfo$GT$17hd1338e6d4cf6ac95E"(%"anchor_lang::prelude::AccountInfo"* %0), !dbg !1168
  br label %bb4, !dbg !1168

bb4:                                              ; preds = %start
  %1 = getelementptr inbounds %"token::InitializeAccount", %"token::InitializeAccount"* %_1, i32 0, i32 1, !dbg !1168
; call core::ptr::drop_in_place<solana_program::account_info::AccountInfo>
  call void @"_ZN4core3ptr62drop_in_place$LT$solana_program..account_info..AccountInfo$GT$17hd1338e6d4cf6ac95E"(%"anchor_lang::prelude::AccountInfo"* %1), !dbg !1168
  br label %bb3, !dbg !1168

bb3:                                              ; preds = %bb4
  %2 = getelementptr inbounds %"token::InitializeAccount", %"token::InitializeAccount"* %_1, i32 0, i32 2, !dbg !1168
; call core::ptr::drop_in_place<solana_program::account_info::AccountInfo>
  call void @"_ZN4core3ptr62drop_in_place$LT$solana_program..account_info..AccountInfo$GT$17hd1338e6d4cf6ac95E"(%"anchor_lang::prelude::AccountInfo"* %2), !dbg !1168
  br label %bb2, !dbg !1168

bb2:                                              ; preds = %bb3
  %3 = getelementptr inbounds %"token::InitializeAccount", %"token::InitializeAccount"* %_1, i32 0, i32 3, !dbg !1168
; call core::ptr::drop_in_place<solana_program::account_info::AccountInfo>
  call void @"_ZN4core3ptr62drop_in_place$LT$solana_program..account_info..AccountInfo$GT$17hd1338e6d4cf6ac95E"(%"anchor_lang::prelude::AccountInfo"* %3), !dbg !1168
  br label %bb1, !dbg !1168

bb1:                                              ; preds = %bb2
  ret void, !dbg !1168
}

; core::ptr::drop_in_place<[solana_program::account_info::AccountInfo; 7]>
; Function Attrs: nounwind
define void @"_ZN4core3ptr83drop_in_place$LT$$u5b$solana_program..account_info..AccountInfo$u3b$$u20$7$u5d$$GT$17h414727d7035a0590E"([7 x %"anchor_lang::prelude::AccountInfo"]* %_1) unnamed_addr #1 !dbg !1169 {
start:
  %_1.dbg.spill = alloca [7 x %"anchor_lang::prelude::AccountInfo"]*, align 8
  %_9 = alloca %"anchor_lang::prelude::AccountInfo"*, align 8
  %_4 = alloca i64, align 8
  store [7 x %"anchor_lang::prelude::AccountInfo"]* %_1, [7 x %"anchor_lang::prelude::AccountInfo"]** %_1.dbg.spill, align 8
  call void @llvm.dbg.declare(metadata [7 x %"anchor_lang::prelude::AccountInfo"]** %_1.dbg.spill, metadata !1177, metadata !DIExpression()), !dbg !1180
  br i1 false, label %bb4, label %bb7, !dbg !1180

bb4:                                              ; preds = %start
  store i64 0, i64* %_4, align 8, !dbg !1180
  br label %bb3, !dbg !1180

bb7:                                              ; preds = %start
  %0 = bitcast [7 x %"anchor_lang::prelude::AccountInfo"]* %_1 to %"anchor_lang::prelude::AccountInfo"*, !dbg !1180
  store %"anchor_lang::prelude::AccountInfo"* %0, %"anchor_lang::prelude::AccountInfo"** %_9, align 8, !dbg !1180
  %1 = load %"anchor_lang::prelude::AccountInfo"*, %"anchor_lang::prelude::AccountInfo"** %_9, align 8, !dbg !1180
  %_10 = getelementptr inbounds %"anchor_lang::prelude::AccountInfo", %"anchor_lang::prelude::AccountInfo"* %1, i64 7, !dbg !1180
  br label %bb6, !dbg !1180

bb6:                                              ; preds = %bb5, %bb7
  %2 = load %"anchor_lang::prelude::AccountInfo"*, %"anchor_lang::prelude::AccountInfo"** %_9, align 8, !dbg !1180
  %_14 = icmp eq %"anchor_lang::prelude::AccountInfo"* %2, %_10, !dbg !1180
  br i1 %_14, label %bb1, label %bb5, !dbg !1180

bb5:                                              ; preds = %bb6
  %_13 = load %"anchor_lang::prelude::AccountInfo"*, %"anchor_lang::prelude::AccountInfo"** %_9, align 8, !dbg !1180
  %3 = load %"anchor_lang::prelude::AccountInfo"*, %"anchor_lang::prelude::AccountInfo"** %_9, align 8, !dbg !1180
  %4 = getelementptr inbounds %"anchor_lang::prelude::AccountInfo", %"anchor_lang::prelude::AccountInfo"* %3, i64 1, !dbg !1180
  store %"anchor_lang::prelude::AccountInfo"* %4, %"anchor_lang::prelude::AccountInfo"** %_9, align 8, !dbg !1180
; call core::ptr::drop_in_place<solana_program::account_info::AccountInfo>
  call void @"_ZN4core3ptr62drop_in_place$LT$solana_program..account_info..AccountInfo$GT$17hd1338e6d4cf6ac95E"(%"anchor_lang::prelude::AccountInfo"* %_13), !dbg !1180
  br label %bb6, !dbg !1180

bb1:                                              ; preds = %bb3, %bb6
  ret void, !dbg !1180

bb3:                                              ; preds = %bb2, %bb4
  %5 = load i64, i64* %_4, align 8, !dbg !1180
  %_8 = icmp eq i64 %5, 7, !dbg !1180
  br i1 %_8, label %bb1, label %bb2, !dbg !1180

bb2:                                              ; preds = %bb3
  %6 = load i64, i64* %_4, align 8, !dbg !1180
  %_7 = getelementptr inbounds [7 x %"anchor_lang::prelude::AccountInfo"], [7 x %"anchor_lang::prelude::AccountInfo"]* %_1, i64 0, i64 %6, !dbg !1180
  %7 = load i64, i64* %_4, align 8, !dbg !1180
  %8 = add i64 %7, 1, !dbg !1180
  store i64 %8, i64* %_4, align 8, !dbg !1180
; call core::ptr::drop_in_place<solana_program::account_info::AccountInfo>
  call void @"_ZN4core3ptr62drop_in_place$LT$solana_program..account_info..AccountInfo$GT$17hd1338e6d4cf6ac95E"(%"anchor_lang::prelude::AccountInfo"* %_7), !dbg !1180
  br label %bb3, !dbg !1180
}

; core::ptr::drop_in_place<anchor_lang::context::CpiContext<anchor_spl::token::Burn>>
; Function Attrs: nounwind
define void @"_ZN4core3ptr84drop_in_place$LT$anchor_lang..context..CpiContext$LT$anchor_spl..token..Burn$GT$$GT$17h0ab4879ad2f40d14E"(%"anchor_lang::context::CpiContext<token::Burn>"* %_1) unnamed_addr #1 !dbg !1181 {
start:
  %_1.dbg.spill = alloca %"anchor_lang::context::CpiContext<token::Burn>"*, align 8
  store %"anchor_lang::context::CpiContext<token::Burn>"* %_1, %"anchor_lang::context::CpiContext<token::Burn>"** %_1.dbg.spill, align 8
  call void @llvm.dbg.declare(metadata %"anchor_lang::context::CpiContext<token::Burn>"** %_1.dbg.spill, metadata !1225, metadata !DIExpression()), !dbg !1228
  %0 = bitcast %"anchor_lang::context::CpiContext<token::Burn>"* %_1 to %"token::Burn"*, !dbg !1228
; call core::ptr::drop_in_place<anchor_spl::token::Burn>
  call void @"_ZN4core3ptr44drop_in_place$LT$anchor_spl..token..Burn$GT$17h02f57dff800097b2E"(%"token::Burn"* %0), !dbg !1228
  br label %bb3, !dbg !1228

bb3:                                              ; preds = %start
  %1 = getelementptr inbounds %"anchor_lang::context::CpiContext<token::Burn>", %"anchor_lang::context::CpiContext<token::Burn>"* %_1, i32 0, i32 1, !dbg !1228
; call core::ptr::drop_in_place<alloc::vec::Vec<solana_program::account_info::AccountInfo>>
  call void @"_ZN4core3ptr85drop_in_place$LT$alloc..vec..Vec$LT$solana_program..account_info..AccountInfo$GT$$GT$17hb416669ae99ff30fE"(%"std::vec::Vec<anchor_lang::prelude::AccountInfo>"* %1), !dbg !1228
  br label %bb2, !dbg !1228

bb2:                                              ; preds = %bb3
  %2 = getelementptr inbounds %"anchor_lang::context::CpiContext<token::Burn>", %"anchor_lang::context::CpiContext<token::Burn>"* %_1, i32 0, i32 2, !dbg !1228
; call core::ptr::drop_in_place<solana_program::account_info::AccountInfo>
  call void @"_ZN4core3ptr62drop_in_place$LT$solana_program..account_info..AccountInfo$GT$17hd1338e6d4cf6ac95E"(%"anchor_lang::prelude::AccountInfo"* %2), !dbg !1228
  br label %bb1, !dbg !1228

bb1:                                              ; preds = %bb2
  ret void, !dbg !1228
}

; core::ptr::drop_in_place<anchor_lang::context::CpiContext<anchor_spl::token::MintTo>>
; Function Attrs: nounwind
define void @"_ZN4core3ptr86drop_in_place$LT$anchor_lang..context..CpiContext$LT$anchor_spl..token..MintTo$GT$$GT$17h0e6b4f960d889a41E"(%"anchor_lang::context::CpiContext<token::MintTo>"* %_1) unnamed_addr #1 !dbg !1229 {
start:
  %_1.dbg.spill = alloca %"anchor_lang::context::CpiContext<token::MintTo>"*, align 8
  store %"anchor_lang::context::CpiContext<token::MintTo>"* %_1, %"anchor_lang::context::CpiContext<token::MintTo>"** %_1.dbg.spill, align 8
  call void @llvm.dbg.declare(metadata %"anchor_lang::context::CpiContext<token::MintTo>"** %_1.dbg.spill, metadata !1240, metadata !DIExpression()), !dbg !1243
  %0 = bitcast %"anchor_lang::context::CpiContext<token::MintTo>"* %_1 to %"token::MintTo"*, !dbg !1243
; call core::ptr::drop_in_place<anchor_spl::token::MintTo>
  call void @"_ZN4core3ptr46drop_in_place$LT$anchor_spl..token..MintTo$GT$17h1d7927e6b7de9367E"(%"token::MintTo"* %0), !dbg !1243
  br label %bb3, !dbg !1243

bb3:                                              ; preds = %start
  %1 = getelementptr inbounds %"anchor_lang::context::CpiContext<token::MintTo>", %"anchor_lang::context::CpiContext<token::MintTo>"* %_1, i32 0, i32 1, !dbg !1243
; call core::ptr::drop_in_place<alloc::vec::Vec<solana_program::account_info::AccountInfo>>
  call void @"_ZN4core3ptr85drop_in_place$LT$alloc..vec..Vec$LT$solana_program..account_info..AccountInfo$GT$$GT$17hb416669ae99ff30fE"(%"std::vec::Vec<anchor_lang::prelude::AccountInfo>"* %1), !dbg !1243
  br label %bb2, !dbg !1243

bb2:                                              ; preds = %bb3
  %2 = getelementptr inbounds %"anchor_lang::context::CpiContext<token::MintTo>", %"anchor_lang::context::CpiContext<token::MintTo>"* %_1, i32 0, i32 2, !dbg !1243
; call core::ptr::drop_in_place<solana_program::account_info::AccountInfo>
  call void @"_ZN4core3ptr62drop_in_place$LT$solana_program..account_info..AccountInfo$GT$17hd1338e6d4cf6ac95E"(%"anchor_lang::prelude::AccountInfo"* %2), !dbg !1243
  br label %bb1, !dbg !1243

bb1:                                              ; preds = %bb2
  ret void, !dbg !1243
}

; core::ptr::drop_in_place<anchor_lang::context::CpiContext<anchor_spl::token::Revoke>>
; Function Attrs: nounwind
define void @"_ZN4core3ptr86drop_in_place$LT$anchor_lang..context..CpiContext$LT$anchor_spl..token..Revoke$GT$$GT$17hcd753f1ab2ebd4edE"(%"anchor_lang::context::CpiContext<token::Revoke>"* %_1) unnamed_addr #1 !dbg !1244 {
start:
  %_1.dbg.spill = alloca %"anchor_lang::context::CpiContext<token::Revoke>"*, align 8
  store %"anchor_lang::context::CpiContext<token::Revoke>"* %_1, %"anchor_lang::context::CpiContext<token::Revoke>"** %_1.dbg.spill, align 8
  call void @llvm.dbg.declare(metadata %"anchor_lang::context::CpiContext<token::Revoke>"** %_1.dbg.spill, metadata !1255, metadata !DIExpression()), !dbg !1258
  %0 = bitcast %"anchor_lang::context::CpiContext<token::Revoke>"* %_1 to %"token::Revoke"*, !dbg !1258
; call core::ptr::drop_in_place<anchor_spl::token::Revoke>
  call void @"_ZN4core3ptr46drop_in_place$LT$anchor_spl..token..Revoke$GT$17h31b9aede4b09bdb4E"(%"token::Revoke"* %0), !dbg !1258
  br label %bb3, !dbg !1258

bb3:                                              ; preds = %start
  %1 = getelementptr inbounds %"anchor_lang::context::CpiContext<token::Revoke>", %"anchor_lang::context::CpiContext<token::Revoke>"* %_1, i32 0, i32 1, !dbg !1258
; call core::ptr::drop_in_place<alloc::vec::Vec<solana_program::account_info::AccountInfo>>
  call void @"_ZN4core3ptr85drop_in_place$LT$alloc..vec..Vec$LT$solana_program..account_info..AccountInfo$GT$$GT$17hb416669ae99ff30fE"(%"std::vec::Vec<anchor_lang::prelude::AccountInfo>"* %1), !dbg !1258
  br label %bb2, !dbg !1258

bb2:                                              ; preds = %bb3
  %2 = getelementptr inbounds %"anchor_lang::context::CpiContext<token::Revoke>", %"anchor_lang::context::CpiContext<token::Revoke>"* %_1, i32 0, i32 2, !dbg !1258
; call core::ptr::drop_in_place<solana_program::account_info::AccountInfo>
  call void @"_ZN4core3ptr62drop_in_place$LT$solana_program..account_info..AccountInfo$GT$17hd1338e6d4cf6ac95E"(%"anchor_lang::prelude::AccountInfo"* %2), !dbg !1258
  br label %bb1, !dbg !1258

bb1:                                              ; preds = %bb2
  ret void, !dbg !1258
}

; core::ptr::drop_in_place<anchor_lang::context::CpiContext<anchor_spl::token::Approve>>
; Function Attrs: nounwind
define void @"_ZN4core3ptr87drop_in_place$LT$anchor_lang..context..CpiContext$LT$anchor_spl..token..Approve$GT$$GT$17h90ceed7f55fc3ee6E"(%"anchor_lang::context::CpiContext<token::Approve>"* %_1) unnamed_addr #1 !dbg !1259 {
start:
  %_1.dbg.spill = alloca %"anchor_lang::context::CpiContext<token::Approve>"*, align 8
  store %"anchor_lang::context::CpiContext<token::Approve>"* %_1, %"anchor_lang::context::CpiContext<token::Approve>"** %_1.dbg.spill, align 8
  call void @llvm.dbg.declare(metadata %"anchor_lang::context::CpiContext<token::Approve>"** %_1.dbg.spill, metadata !1270, metadata !DIExpression()), !dbg !1273
  %0 = bitcast %"anchor_lang::context::CpiContext<token::Approve>"* %_1 to %"token::Approve"*, !dbg !1273
; call core::ptr::drop_in_place<anchor_spl::token::Approve>
  call void @"_ZN4core3ptr47drop_in_place$LT$anchor_spl..token..Approve$GT$17h11124f7d33ad9318E"(%"token::Approve"* %0), !dbg !1273
  br label %bb3, !dbg !1273

bb3:                                              ; preds = %start
  %1 = getelementptr inbounds %"anchor_lang::context::CpiContext<token::Approve>", %"anchor_lang::context::CpiContext<token::Approve>"* %_1, i32 0, i32 1, !dbg !1273
; call core::ptr::drop_in_place<alloc::vec::Vec<solana_program::account_info::AccountInfo>>
  call void @"_ZN4core3ptr85drop_in_place$LT$alloc..vec..Vec$LT$solana_program..account_info..AccountInfo$GT$$GT$17hb416669ae99ff30fE"(%"std::vec::Vec<anchor_lang::prelude::AccountInfo>"* %1), !dbg !1273
  br label %bb2, !dbg !1273

bb2:                                              ; preds = %bb3
  %2 = getelementptr inbounds %"anchor_lang::context::CpiContext<token::Approve>", %"anchor_lang::context::CpiContext<token::Approve>"* %_1, i32 0, i32 2, !dbg !1273
; call core::ptr::drop_in_place<solana_program::account_info::AccountInfo>
  call void @"_ZN4core3ptr62drop_in_place$LT$solana_program..account_info..AccountInfo$GT$17hd1338e6d4cf6ac95E"(%"anchor_lang::prelude::AccountInfo"* %2), !dbg !1273
  br label %bb1, !dbg !1273

bb1:                                              ; preds = %bb2
  ret void, !dbg !1273
}

; core::ptr::drop_in_place<anchor_lang::context::CpiContext<anchor_spl::token::Transfer>>
; Function Attrs: nounwind
define void @"_ZN4core3ptr88drop_in_place$LT$anchor_lang..context..CpiContext$LT$anchor_spl..token..Transfer$GT$$GT$17ha8d64b4e21df376cE"(%"anchor_lang::context::CpiContext<token::Transfer>"* %_1) unnamed_addr #1 !dbg !1274 {
start:
  %_1.dbg.spill = alloca %"anchor_lang::context::CpiContext<token::Transfer>"*, align 8
  store %"anchor_lang::context::CpiContext<token::Transfer>"* %_1, %"anchor_lang::context::CpiContext<token::Transfer>"** %_1.dbg.spill, align 8
  call void @llvm.dbg.declare(metadata %"anchor_lang::context::CpiContext<token::Transfer>"** %_1.dbg.spill, metadata !1285, metadata !DIExpression()), !dbg !1288
  %0 = bitcast %"anchor_lang::context::CpiContext<token::Transfer>"* %_1 to %"token::Transfer"*, !dbg !1288
; call core::ptr::drop_in_place<anchor_spl::token::Transfer>
  call void @"_ZN4core3ptr48drop_in_place$LT$anchor_spl..token..Transfer$GT$17h047eab053c02aeb1E"(%"token::Transfer"* %0), !dbg !1288
  br label %bb3, !dbg !1288

bb3:                                              ; preds = %start
  %1 = getelementptr inbounds %"anchor_lang::context::CpiContext<token::Transfer>", %"anchor_lang::context::CpiContext<token::Transfer>"* %_1, i32 0, i32 1, !dbg !1288
; call core::ptr::drop_in_place<alloc::vec::Vec<solana_program::account_info::AccountInfo>>
  call void @"_ZN4core3ptr85drop_in_place$LT$alloc..vec..Vec$LT$solana_program..account_info..AccountInfo$GT$$GT$17hb416669ae99ff30fE"(%"std::vec::Vec<anchor_lang::prelude::AccountInfo>"* %1), !dbg !1288
  br label %bb2, !dbg !1288

bb2:                                              ; preds = %bb3
  %2 = getelementptr inbounds %"anchor_lang::context::CpiContext<token::Transfer>", %"anchor_lang::context::CpiContext<token::Transfer>"* %_1, i32 0, i32 2, !dbg !1288
; call core::ptr::drop_in_place<solana_program::account_info::AccountInfo>
  call void @"_ZN4core3ptr62drop_in_place$LT$solana_program..account_info..AccountInfo$GT$17hd1338e6d4cf6ac95E"(%"anchor_lang::prelude::AccountInfo"* %2), !dbg !1288
  br label %bb1, !dbg !1288

bb1:                                              ; preds = %bb2
  ret void, !dbg !1288
}

; core::ptr::drop_in_place<anchor_lang::context::CpiContext<anchor_spl::token::SyncNative>>
; Function Attrs: nounwind
define void @"_ZN4core3ptr90drop_in_place$LT$anchor_lang..context..CpiContext$LT$anchor_spl..token..SyncNative$GT$$GT$17h24690a46d6a42952E"(%"anchor_lang::context::CpiContext<token::SyncNative>"* %_1) unnamed_addr #1 !dbg !1289 {
start:
  %_1.dbg.spill = alloca %"anchor_lang::context::CpiContext<token::SyncNative>"*, align 8
  store %"anchor_lang::context::CpiContext<token::SyncNative>"* %_1, %"anchor_lang::context::CpiContext<token::SyncNative>"** %_1.dbg.spill, align 8
  call void @llvm.dbg.declare(metadata %"anchor_lang::context::CpiContext<token::SyncNative>"** %_1.dbg.spill, metadata !1300, metadata !DIExpression()), !dbg !1303
  %0 = bitcast %"anchor_lang::context::CpiContext<token::SyncNative>"* %_1 to %"token::SyncNative"*, !dbg !1303
; call core::ptr::drop_in_place<anchor_spl::token::SyncNative>
  call void @"_ZN4core3ptr50drop_in_place$LT$anchor_spl..token..SyncNative$GT$17h0c53811c220acf21E"(%"token::SyncNative"* %0), !dbg !1303
  br label %bb3, !dbg !1303

bb3:                                              ; preds = %start
  %1 = getelementptr inbounds %"anchor_lang::context::CpiContext<token::SyncNative>", %"anchor_lang::context::CpiContext<token::SyncNative>"* %_1, i32 0, i32 1, !dbg !1303
; call core::ptr::drop_in_place<alloc::vec::Vec<solana_program::account_info::AccountInfo>>
  call void @"_ZN4core3ptr85drop_in_place$LT$alloc..vec..Vec$LT$solana_program..account_info..AccountInfo$GT$$GT$17hb416669ae99ff30fE"(%"std::vec::Vec<anchor_lang::prelude::AccountInfo>"* %1), !dbg !1303
  br label %bb2, !dbg !1303

bb2:                                              ; preds = %bb3
  %2 = getelementptr inbounds %"anchor_lang::context::CpiContext<token::SyncNative>", %"anchor_lang::context::CpiContext<token::SyncNative>"* %_1, i32 0, i32 2, !dbg !1303
; call core::ptr::drop_in_place<solana_program::account_info::AccountInfo>
  call void @"_ZN4core3ptr62drop_in_place$LT$solana_program..account_info..AccountInfo$GT$17hd1338e6d4cf6ac95E"(%"anchor_lang::prelude::AccountInfo"* %2), !dbg !1303
  br label %bb1, !dbg !1303

bb1:                                              ; preds = %bb2
  ret void, !dbg !1303
}

; core::ptr::drop_in_place<anchor_lang::context::CpiContext<anchor_spl::token::ThawAccount>>
; Function Attrs: nounwind
define void @"_ZN4core3ptr91drop_in_place$LT$anchor_lang..context..CpiContext$LT$anchor_spl..token..ThawAccount$GT$$GT$17h0ef4ad344bab3542E"(%"anchor_lang::context::CpiContext<token::ThawAccount>"* %_1) unnamed_addr #1 !dbg !1304 {
start:
  %_1.dbg.spill = alloca %"anchor_lang::context::CpiContext<token::ThawAccount>"*, align 8
  store %"anchor_lang::context::CpiContext<token::ThawAccount>"* %_1, %"anchor_lang::context::CpiContext<token::ThawAccount>"** %_1.dbg.spill, align 8
  call void @llvm.dbg.declare(metadata %"anchor_lang::context::CpiContext<token::ThawAccount>"** %_1.dbg.spill, metadata !1315, metadata !DIExpression()), !dbg !1318
  %0 = bitcast %"anchor_lang::context::CpiContext<token::ThawAccount>"* %_1 to %"token::ThawAccount"*, !dbg !1318
; call core::ptr::drop_in_place<anchor_spl::token::ThawAccount>
  call void @"_ZN4core3ptr51drop_in_place$LT$anchor_spl..token..ThawAccount$GT$17hd6b9a40b7867e068E"(%"token::ThawAccount"* %0), !dbg !1318
  br label %bb3, !dbg !1318

bb3:                                              ; preds = %start
  %1 = getelementptr inbounds %"anchor_lang::context::CpiContext<token::ThawAccount>", %"anchor_lang::context::CpiContext<token::ThawAccount>"* %_1, i32 0, i32 1, !dbg !1318
; call core::ptr::drop_in_place<alloc::vec::Vec<solana_program::account_info::AccountInfo>>
  call void @"_ZN4core3ptr85drop_in_place$LT$alloc..vec..Vec$LT$solana_program..account_info..AccountInfo$GT$$GT$17hb416669ae99ff30fE"(%"std::vec::Vec<anchor_lang::prelude::AccountInfo>"* %1), !dbg !1318
  br label %bb2, !dbg !1318

bb2:                                              ; preds = %bb3
  %2 = getelementptr inbounds %"anchor_lang::context::CpiContext<token::ThawAccount>", %"anchor_lang::context::CpiContext<token::ThawAccount>"* %_1, i32 0, i32 2, !dbg !1318
; call core::ptr::drop_in_place<solana_program::account_info::AccountInfo>
  call void @"_ZN4core3ptr62drop_in_place$LT$solana_program..account_info..AccountInfo$GT$17hd1338e6d4cf6ac95E"(%"anchor_lang::prelude::AccountInfo"* %2), !dbg !1318
  br label %bb1, !dbg !1318

bb1:                                              ; preds = %bb2
  ret void, !dbg !1318
}

; core::ptr::drop_in_place<anchor_lang::context::CpiContext<anchor_spl::token::CloseAccount>>
; Function Attrs: nounwind
define void @"_ZN4core3ptr92drop_in_place$LT$anchor_lang..context..CpiContext$LT$anchor_spl..token..CloseAccount$GT$$GT$17he47e269d532fbc37E"(%"anchor_lang::context::CpiContext<token::CloseAccount>"* %_1) unnamed_addr #1 !dbg !1319 {
start:
  %_1.dbg.spill = alloca %"anchor_lang::context::CpiContext<token::CloseAccount>"*, align 8
  store %"anchor_lang::context::CpiContext<token::CloseAccount>"* %_1, %"anchor_lang::context::CpiContext<token::CloseAccount>"** %_1.dbg.spill, align 8
  call void @llvm.dbg.declare(metadata %"anchor_lang::context::CpiContext<token::CloseAccount>"** %_1.dbg.spill, metadata !1330, metadata !DIExpression()), !dbg !1333
  %0 = bitcast %"anchor_lang::context::CpiContext<token::CloseAccount>"* %_1 to %"token::CloseAccount"*, !dbg !1333
; call core::ptr::drop_in_place<anchor_spl::token::CloseAccount>
  call void @"_ZN4core3ptr52drop_in_place$LT$anchor_spl..token..CloseAccount$GT$17h463cb745e0978b8aE"(%"token::CloseAccount"* %0), !dbg !1333
  br label %bb3, !dbg !1333

bb3:                                              ; preds = %start
  %1 = getelementptr inbounds %"anchor_lang::context::CpiContext<token::CloseAccount>", %"anchor_lang::context::CpiContext<token::CloseAccount>"* %_1, i32 0, i32 1, !dbg !1333
; call core::ptr::drop_in_place<alloc::vec::Vec<solana_program::account_info::AccountInfo>>
  call void @"_ZN4core3ptr85drop_in_place$LT$alloc..vec..Vec$LT$solana_program..account_info..AccountInfo$GT$$GT$17hb416669ae99ff30fE"(%"std::vec::Vec<anchor_lang::prelude::AccountInfo>"* %1), !dbg !1333
  br label %bb2, !dbg !1333

bb2:                                              ; preds = %bb3
  %2 = getelementptr inbounds %"anchor_lang::context::CpiContext<token::CloseAccount>", %"anchor_lang::context::CpiContext<token::CloseAccount>"* %_1, i32 0, i32 2, !dbg !1333
; call core::ptr::drop_in_place<solana_program::account_info::AccountInfo>
  call void @"_ZN4core3ptr62drop_in_place$LT$solana_program..account_info..AccountInfo$GT$17hd1338e6d4cf6ac95E"(%"anchor_lang::prelude::AccountInfo"* %2), !dbg !1333
  br label %bb1, !dbg !1333

bb1:                                              ; preds = %bb2
  ret void, !dbg !1333
}

; core::ptr::drop_in_place<anchor_lang::context::CpiContext<anchor_spl::token::SetAuthority>>
; Function Attrs: nounwind
define void @"_ZN4core3ptr92drop_in_place$LT$anchor_lang..context..CpiContext$LT$anchor_spl..token..SetAuthority$GT$$GT$17h1dfb91a6052aee82E"(%"anchor_lang::context::CpiContext<token::SetAuthority>"* %_1) unnamed_addr #1 !dbg !1334 {
start:
  %_1.dbg.spill = alloca %"anchor_lang::context::CpiContext<token::SetAuthority>"*, align 8
  store %"anchor_lang::context::CpiContext<token::SetAuthority>"* %_1, %"anchor_lang::context::CpiContext<token::SetAuthority>"** %_1.dbg.spill, align 8
  call void @llvm.dbg.declare(metadata %"anchor_lang::context::CpiContext<token::SetAuthority>"** %_1.dbg.spill, metadata !1345, metadata !DIExpression()), !dbg !1348
  %0 = bitcast %"anchor_lang::context::CpiContext<token::SetAuthority>"* %_1 to %"token::SetAuthority"*, !dbg !1348
; call core::ptr::drop_in_place<anchor_spl::token::SetAuthority>
  call void @"_ZN4core3ptr52drop_in_place$LT$anchor_spl..token..SetAuthority$GT$17h261058feaaefb3e1E"(%"token::SetAuthority"* %0), !dbg !1348
  br label %bb3, !dbg !1348

bb3:                                              ; preds = %start
  %1 = getelementptr inbounds %"anchor_lang::context::CpiContext<token::SetAuthority>", %"anchor_lang::context::CpiContext<token::SetAuthority>"* %_1, i32 0, i32 1, !dbg !1348
; call core::ptr::drop_in_place<alloc::vec::Vec<solana_program::account_info::AccountInfo>>
  call void @"_ZN4core3ptr85drop_in_place$LT$alloc..vec..Vec$LT$solana_program..account_info..AccountInfo$GT$$GT$17hb416669ae99ff30fE"(%"std::vec::Vec<anchor_lang::prelude::AccountInfo>"* %1), !dbg !1348
  br label %bb2, !dbg !1348

bb2:                                              ; preds = %bb3
  %2 = getelementptr inbounds %"anchor_lang::context::CpiContext<token::SetAuthority>", %"anchor_lang::context::CpiContext<token::SetAuthority>"* %_1, i32 0, i32 2, !dbg !1348
; call core::ptr::drop_in_place<solana_program::account_info::AccountInfo>
  call void @"_ZN4core3ptr62drop_in_place$LT$solana_program..account_info..AccountInfo$GT$17hd1338e6d4cf6ac95E"(%"anchor_lang::prelude::AccountInfo"* %2), !dbg !1348
  br label %bb1, !dbg !1348

bb1:                                              ; preds = %bb2
  ret void, !dbg !1348
}

; core::ptr::drop_in_place<anchor_lang::context::CpiContext<anchor_spl::token::FreezeAccount>>
; Function Attrs: nounwind
define void @"_ZN4core3ptr93drop_in_place$LT$anchor_lang..context..CpiContext$LT$anchor_spl..token..FreezeAccount$GT$$GT$17h2ab8ab37c9561c7bE"(%"anchor_lang::context::CpiContext<token::FreezeAccount>"* %_1) unnamed_addr #1 !dbg !1349 {
start:
  %_1.dbg.spill = alloca %"anchor_lang::context::CpiContext<token::FreezeAccount>"*, align 8
  store %"anchor_lang::context::CpiContext<token::FreezeAccount>"* %_1, %"anchor_lang::context::CpiContext<token::FreezeAccount>"** %_1.dbg.spill, align 8
  call void @llvm.dbg.declare(metadata %"anchor_lang::context::CpiContext<token::FreezeAccount>"** %_1.dbg.spill, metadata !1360, metadata !DIExpression()), !dbg !1363
  %0 = bitcast %"anchor_lang::context::CpiContext<token::FreezeAccount>"* %_1 to %"token::FreezeAccount"*, !dbg !1363
; call core::ptr::drop_in_place<anchor_spl::token::FreezeAccount>
  call void @"_ZN4core3ptr53drop_in_place$LT$anchor_spl..token..FreezeAccount$GT$17h7b0d461c2baaab19E"(%"token::FreezeAccount"* %0), !dbg !1363
  br label %bb3, !dbg !1363

bb3:                                              ; preds = %start
  %1 = getelementptr inbounds %"anchor_lang::context::CpiContext<token::FreezeAccount>", %"anchor_lang::context::CpiContext<token::FreezeAccount>"* %_1, i32 0, i32 1, !dbg !1363
; call core::ptr::drop_in_place<alloc::vec::Vec<solana_program::account_info::AccountInfo>>
  call void @"_ZN4core3ptr85drop_in_place$LT$alloc..vec..Vec$LT$solana_program..account_info..AccountInfo$GT$$GT$17hb416669ae99ff30fE"(%"std::vec::Vec<anchor_lang::prelude::AccountInfo>"* %1), !dbg !1363
  br label %bb2, !dbg !1363

bb2:                                              ; preds = %bb3
  %2 = getelementptr inbounds %"anchor_lang::context::CpiContext<token::FreezeAccount>", %"anchor_lang::context::CpiContext<token::FreezeAccount>"* %_1, i32 0, i32 2, !dbg !1363
; call core::ptr::drop_in_place<solana_program::account_info::AccountInfo>
  call void @"_ZN4core3ptr62drop_in_place$LT$solana_program..account_info..AccountInfo$GT$17hd1338e6d4cf6ac95E"(%"anchor_lang::prelude::AccountInfo"* %2), !dbg !1363
  br label %bb1, !dbg !1363

bb1:                                              ; preds = %bb2
  ret void, !dbg !1363
}

; core::ptr::drop_in_place<anchor_lang::context::CpiContext<anchor_spl::token::InitializeMint>>
; Function Attrs: nounwind
define void @"_ZN4core3ptr94drop_in_place$LT$anchor_lang..context..CpiContext$LT$anchor_spl..token..InitializeMint$GT$$GT$17h9014d2495f2c5187E"(%"anchor_lang::context::CpiContext<token::InitializeMint>"* %_1) unnamed_addr #1 !dbg !1364 {
start:
  %_1.dbg.spill = alloca %"anchor_lang::context::CpiContext<token::InitializeMint>"*, align 8
  store %"anchor_lang::context::CpiContext<token::InitializeMint>"* %_1, %"anchor_lang::context::CpiContext<token::InitializeMint>"** %_1.dbg.spill, align 8
  call void @llvm.dbg.declare(metadata %"anchor_lang::context::CpiContext<token::InitializeMint>"** %_1.dbg.spill, metadata !1375, metadata !DIExpression()), !dbg !1378
  %0 = bitcast %"anchor_lang::context::CpiContext<token::InitializeMint>"* %_1 to %"token::InitializeMint"*, !dbg !1378
; call core::ptr::drop_in_place<anchor_spl::token::InitializeMint>
  call void @"_ZN4core3ptr54drop_in_place$LT$anchor_spl..token..InitializeMint$GT$17h23ff9947c39f1420E"(%"token::InitializeMint"* %0), !dbg !1378
  br label %bb3, !dbg !1378

bb3:                                              ; preds = %start
  %1 = getelementptr inbounds %"anchor_lang::context::CpiContext<token::InitializeMint>", %"anchor_lang::context::CpiContext<token::InitializeMint>"* %_1, i32 0, i32 1, !dbg !1378
; call core::ptr::drop_in_place<alloc::vec::Vec<solana_program::account_info::AccountInfo>>
  call void @"_ZN4core3ptr85drop_in_place$LT$alloc..vec..Vec$LT$solana_program..account_info..AccountInfo$GT$$GT$17hb416669ae99ff30fE"(%"std::vec::Vec<anchor_lang::prelude::AccountInfo>"* %1), !dbg !1378
  br label %bb2, !dbg !1378

bb2:                                              ; preds = %bb3
  %2 = getelementptr inbounds %"anchor_lang::context::CpiContext<token::InitializeMint>", %"anchor_lang::context::CpiContext<token::InitializeMint>"* %_1, i32 0, i32 2, !dbg !1378
; call core::ptr::drop_in_place<solana_program::account_info::AccountInfo>
  call void @"_ZN4core3ptr62drop_in_place$LT$solana_program..account_info..AccountInfo$GT$17hd1338e6d4cf6ac95E"(%"anchor_lang::prelude::AccountInfo"* %2), !dbg !1378
  br label %bb1, !dbg !1378

bb1:                                              ; preds = %bb2
  ret void, !dbg !1378
}

; core::ptr::drop_in_place<anchor_lang::context::CpiContext<anchor_spl::token::InitializeAccount>>
; Function Attrs: nounwind
define void @"_ZN4core3ptr97drop_in_place$LT$anchor_lang..context..CpiContext$LT$anchor_spl..token..InitializeAccount$GT$$GT$17h2169426bd06de5aeE"(%"anchor_lang::context::CpiContext<token::InitializeAccount>"* %_1) unnamed_addr #1 !dbg !1379 {
start:
  %_1.dbg.spill = alloca %"anchor_lang::context::CpiContext<token::InitializeAccount>"*, align 8
  store %"anchor_lang::context::CpiContext<token::InitializeAccount>"* %_1, %"anchor_lang::context::CpiContext<token::InitializeAccount>"** %_1.dbg.spill, align 8
  call void @llvm.dbg.declare(metadata %"anchor_lang::context::CpiContext<token::InitializeAccount>"** %_1.dbg.spill, metadata !1390, metadata !DIExpression()), !dbg !1393
  %0 = bitcast %"anchor_lang::context::CpiContext<token::InitializeAccount>"* %_1 to %"token::InitializeAccount"*, !dbg !1393
; call core::ptr::drop_in_place<anchor_spl::token::InitializeAccount>
  call void @"_ZN4core3ptr57drop_in_place$LT$anchor_spl..token..InitializeAccount$GT$17h486db15181d90666E"(%"token::InitializeAccount"* %0), !dbg !1393
  br label %bb3, !dbg !1393

bb3:                                              ; preds = %start
  %1 = getelementptr inbounds %"anchor_lang::context::CpiContext<token::InitializeAccount>", %"anchor_lang::context::CpiContext<token::InitializeAccount>"* %_1, i32 0, i32 1, !dbg !1393
; call core::ptr::drop_in_place<alloc::vec::Vec<solana_program::account_info::AccountInfo>>
  call void @"_ZN4core3ptr85drop_in_place$LT$alloc..vec..Vec$LT$solana_program..account_info..AccountInfo$GT$$GT$17hb416669ae99ff30fE"(%"std::vec::Vec<anchor_lang::prelude::AccountInfo>"* %1), !dbg !1393
  br label %bb2, !dbg !1393

bb2:                                              ; preds = %bb3
  %2 = getelementptr inbounds %"anchor_lang::context::CpiContext<token::InitializeAccount>", %"anchor_lang::context::CpiContext<token::InitializeAccount>"* %_1, i32 0, i32 2, !dbg !1393
; call core::ptr::drop_in_place<solana_program::account_info::AccountInfo>
  call void @"_ZN4core3ptr62drop_in_place$LT$solana_program..account_info..AccountInfo$GT$17hd1338e6d4cf6ac95E"(%"anchor_lang::prelude::AccountInfo"* %2), !dbg !1393
  br label %bb1, !dbg !1393

bb1:                                              ; preds = %bb2
  ret void, !dbg !1393
}

; core::clone::impls::<impl core::clone::Clone for u64>::clone
; Function Attrs: inlinehint nounwind
define internal i64 @"_ZN4core5clone5impls52_$LT$impl$u20$core..clone..Clone$u20$for$u20$u64$GT$5clone17hb98e73fc0f362b46E"(i64* align 8 dereferenceable(8) %self) unnamed_addr #0 !dbg !1394 {
start:
  %self.dbg.spill = alloca i64*, align 8
  store i64* %self, i64** %self.dbg.spill, align 8
  call void @llvm.dbg.declare(metadata i64** %self.dbg.spill, metadata !1403, metadata !DIExpression()), !dbg !1404
  %0 = load i64, i64* %self, align 8, !dbg !1405
  ret i64 %0, !dbg !1406
}

; core::clone::impls::<impl core::clone::Clone for bool>::clone
; Function Attrs: inlinehint nounwind
define internal zeroext i1 @"_ZN4core5clone5impls53_$LT$impl$u20$core..clone..Clone$u20$for$u20$bool$GT$5clone17h746e328702de1eadE"(i8* align 1 dereferenceable(1) %self) unnamed_addr #0 !dbg !1407 {
start:
  %self.dbg.spill = alloca i8*, align 8
  store i8* %self, i8** %self.dbg.spill, align 8
  call void @llvm.dbg.declare(metadata i8** %self.dbg.spill, metadata !1413, metadata !DIExpression()), !dbg !1414
  %0 = load i8, i8* %self, align 1, !dbg !1415, !range !1416
  %1 = trunc i8 %0 to i1, !dbg !1415
  ret i1 %1, !dbg !1417
}

; core::option::Option<T>::as_ref
; Function Attrs: inlinehint nounwind
define align 1 dereferenceable_or_null(32) i8* @"_ZN4core6option15Option$LT$T$GT$6as_ref17h47640b2081b37a0fE"(%"std::option::Option<anchor_lang::prelude::Pubkey>"* align 1 dereferenceable(33) %self) unnamed_addr #0 !dbg !1418 {
start:
  %x.dbg.spill = alloca %"anchor_lang::prelude::Pubkey"*, align 8
  %self.dbg.spill = alloca %"std::option::Option<anchor_lang::prelude::Pubkey>"*, align 8
  %0 = alloca i8*, align 8
  store %"std::option::Option<anchor_lang::prelude::Pubkey>"* %self, %"std::option::Option<anchor_lang::prelude::Pubkey>"** %self.dbg.spill, align 8
  call void @llvm.dbg.declare(metadata %"std::option::Option<anchor_lang::prelude::Pubkey>"** %self.dbg.spill, metadata !1446, metadata !DIExpression()), !dbg !1449
  %1 = bitcast %"std::option::Option<anchor_lang::prelude::Pubkey>"* %self to i8*, !dbg !1450
  %2 = load i8, i8* %1, align 1, !dbg !1450, !range !1416
  %3 = trunc i8 %2 to i1, !dbg !1450
  %_2 = zext i1 %3 to i64, !dbg !1450
  switch i64 %_2, label %bb2 [
    i64 0, label %bb1
    i64 1, label %bb3
  ], !dbg !1451

bb2:                                              ; preds = %start
  unreachable, !dbg !1450

bb1:                                              ; preds = %start
  %4 = bitcast i8** %0 to {}**, !dbg !1452
  store {}* null, {}** %4, align 8, !dbg !1452
  br label %bb4, !dbg !1452

bb3:                                              ; preds = %start
  %5 = bitcast %"std::option::Option<anchor_lang::prelude::Pubkey>"* %self to %"std::option::Option<anchor_lang::prelude::Pubkey>::Some"*, !dbg !1453
  %x = getelementptr inbounds %"std::option::Option<anchor_lang::prelude::Pubkey>::Some", %"std::option::Option<anchor_lang::prelude::Pubkey>::Some"* %5, i32 0, i32 1, !dbg !1453
  store %"anchor_lang::prelude::Pubkey"* %x, %"anchor_lang::prelude::Pubkey"** %x.dbg.spill, align 8, !dbg !1453
  call void @llvm.dbg.declare(metadata %"anchor_lang::prelude::Pubkey"** %x.dbg.spill, metadata !1447, metadata !DIExpression()), !dbg !1454
  %6 = bitcast i8** %0 to %"anchor_lang::prelude::Pubkey"**, !dbg !1455
  store %"anchor_lang::prelude::Pubkey"* %x, %"anchor_lang::prelude::Pubkey"** %6, align 8, !dbg !1455
  br label %bb4, !dbg !1456

bb4:                                              ; preds = %bb1, %bb3
  %7 = load i8*, i8** %0, align 8, !dbg !1457
  ret i8* %7, !dbg !1457
}

; core::option::Option<T>::is_some
; Function Attrs: inlinehint nounwind
define zeroext i1 @"_ZN4core6option15Option$LT$T$GT$7is_some17h7ce10e3c83c92113E"(%"std::option::Option<anchor_lang::prelude::Pubkey>"* align 1 dereferenceable(33) %self) unnamed_addr #0 !dbg !1458 {
start:
  %self.dbg.spill = alloca %"std::option::Option<anchor_lang::prelude::Pubkey>"*, align 8
  %0 = alloca i8, align 1
  store %"std::option::Option<anchor_lang::prelude::Pubkey>"* %self, %"std::option::Option<anchor_lang::prelude::Pubkey>"** %self.dbg.spill, align 8
  call void @llvm.dbg.declare(metadata %"std::option::Option<anchor_lang::prelude::Pubkey>"** %self.dbg.spill, metadata !1462, metadata !DIExpression()), !dbg !1463
  %1 = bitcast %"std::option::Option<anchor_lang::prelude::Pubkey>"* %self to i8*, !dbg !1464
  %2 = load i8, i8* %1, align 1, !dbg !1464, !range !1416
  %3 = trunc i8 %2 to i1, !dbg !1464
  %_2 = zext i1 %3 to i64, !dbg !1464
  %4 = icmp eq i64 %_2, 1, !dbg !1465
  br i1 %4, label %bb2, label %bb1, !dbg !1465

bb2:                                              ; preds = %start
  store i8 1, i8* %0, align 1, !dbg !1465
  br label %bb3, !dbg !1465

bb1:                                              ; preds = %start
  store i8 0, i8* %0, align 1, !dbg !1465
  br label %bb3, !dbg !1465

bb3:                                              ; preds = %bb2, %bb1
  %5 = load i8, i8* %0, align 1, !dbg !1466, !range !1416
  %6 = trunc i8 %5 to i1, !dbg !1466
  ret i1 %6, !dbg !1466
}

; core::result::Result<T,E>::map
; Function Attrs: inlinehint nounwind
define void @"_ZN4core6result19Result$LT$T$C$E$GT$3map17h4fcc517cd2d4da68E"(%"std::result::Result<token::Mint, anchor_lang::prelude::ProgramError>"* noalias nocapture sret(%"std::result::Result<token::Mint, anchor_lang::prelude::ProgramError>") dereferenceable(96) %0, %"std::result::Result<spl_token::state::Mint, anchor_lang::prelude::ProgramError>"* noalias nocapture dereferenceable(96) %self) unnamed_addr #0 !dbg !1467 {
start:
  %op.dbg.spill = alloca {}, align 1
  %_11 = alloca i8, align 1
  %_10 = alloca %"anchor_lang::prelude::ProgramError", align 8
  %e = alloca %"anchor_lang::prelude::ProgramError", align 8
  %_8 = alloca %"spl_token::state::Mint", align 8
  %_7 = alloca { %"spl_token::state::Mint" }, align 8
  %_5 = alloca %"token::Mint", align 8
  %t = alloca %"spl_token::state::Mint", align 8
  call void @llvm.dbg.declare(metadata %"std::result::Result<spl_token::state::Mint, anchor_lang::prelude::ProgramError>"* %self, metadata !1498, metadata !DIExpression()), !dbg !1507
  call void @llvm.dbg.declare(metadata {}* %op.dbg.spill, metadata !1499, metadata !DIExpression()), !dbg !1508
  call void @llvm.dbg.declare(metadata %"spl_token::state::Mint"* %t, metadata !1500, metadata !DIExpression()), !dbg !1509
  call void @llvm.dbg.declare(metadata %"anchor_lang::prelude::ProgramError"* %e, metadata !1502, metadata !DIExpression()), !dbg !1510
  store i8 0, i8* %_11, align 1, !dbg !1511
  store i8 1, i8* %_11, align 1, !dbg !1511
  %1 = bitcast %"std::result::Result<spl_token::state::Mint, anchor_lang::prelude::ProgramError>"* %self to i64*, !dbg !1511
  %_3 = load i64, i64* %1, align 8, !dbg !1511, !range !1512
  switch i64 %_3, label %bb2 [
    i64 0, label %bb3
    i64 1, label %bb1
  ], !dbg !1513

bb2:                                              ; preds = %start
  unreachable, !dbg !1511

bb3:                                              ; preds = %start
  %2 = bitcast %"std::result::Result<spl_token::state::Mint, anchor_lang::prelude::ProgramError>"* %self to %"std::result::Result<spl_token::state::Mint, anchor_lang::prelude::ProgramError>::Ok"*, !dbg !1514
  %3 = getelementptr inbounds %"std::result::Result<spl_token::state::Mint, anchor_lang::prelude::ProgramError>::Ok", %"std::result::Result<spl_token::state::Mint, anchor_lang::prelude::ProgramError>::Ok"* %2, i32 0, i32 1, !dbg !1514
  %4 = bitcast %"spl_token::state::Mint"* %t to i8*, !dbg !1514
  %5 = bitcast %"spl_token::state::Mint"* %3 to i8*, !dbg !1514
  call void @llvm.memcpy.p0i8.p0i8.i64(i8* align 8 %4, i8* align 8 %5, i64 88, i1 false), !dbg !1514
  store i8 0, i8* %_11, align 1, !dbg !1515
  %6 = bitcast %"spl_token::state::Mint"* %_8 to i8*, !dbg !1516
  %7 = bitcast %"spl_token::state::Mint"* %t to i8*, !dbg !1516
  call void @llvm.memcpy.p0i8.p0i8.i64(i8* align 8 %6, i8* align 8 %7, i64 88, i1 false), !dbg !1516
  %8 = bitcast { %"spl_token::state::Mint" }* %_7 to %"spl_token::state::Mint"*, !dbg !1515
  %9 = bitcast %"spl_token::state::Mint"* %8 to i8*, !dbg !1515
  %10 = bitcast %"spl_token::state::Mint"* %_8 to i8*, !dbg !1515
  call void @llvm.memcpy.p0i8.p0i8.i64(i8* align 8 %9, i8* align 8 %10, i64 88, i1 false), !dbg !1515
  %11 = bitcast { %"spl_token::state::Mint" }* %_7 to %"spl_token::state::Mint"*, !dbg !1515
; call core::ops::function::FnOnce::call_once
  call void @_ZN4core3ops8function6FnOnce9call_once17h6d21751929922ea1E(%"token::Mint"* noalias nocapture sret(%"token::Mint") dereferenceable(88) %_5, %"spl_token::state::Mint"* noalias nocapture dereferenceable(88) %11), !dbg !1515
  br label %bb4, !dbg !1515

bb1:                                              ; preds = %start
  %12 = bitcast %"std::result::Result<spl_token::state::Mint, anchor_lang::prelude::ProgramError>"* %self to %"std::result::Result<spl_token::state::Mint, anchor_lang::prelude::ProgramError>::Err"*, !dbg !1517
  %13 = getelementptr inbounds %"std::result::Result<spl_token::state::Mint, anchor_lang::prelude::ProgramError>::Err", %"std::result::Result<spl_token::state::Mint, anchor_lang::prelude::ProgramError>::Err"* %12, i32 0, i32 1, !dbg !1517
  %14 = bitcast %"anchor_lang::prelude::ProgramError"* %e to i8*, !dbg !1517
  %15 = bitcast %"anchor_lang::prelude::ProgramError"* %13 to i8*, !dbg !1517
  call void @llvm.memcpy.p0i8.p0i8.i64(i8* align 8 %14, i8* align 8 %15, i64 32, i1 false), !dbg !1517
  %16 = bitcast %"anchor_lang::prelude::ProgramError"* %_10 to i8*, !dbg !1518
  %17 = bitcast %"anchor_lang::prelude::ProgramError"* %e to i8*, !dbg !1518
  call void @llvm.memcpy.p0i8.p0i8.i64(i8* align 8 %16, i8* align 8 %17, i64 32, i1 false), !dbg !1518
  %18 = bitcast %"std::result::Result<token::Mint, anchor_lang::prelude::ProgramError>"* %0 to %"std::result::Result<token::Mint, anchor_lang::prelude::ProgramError>::Err"*, !dbg !1519
  %19 = getelementptr inbounds %"std::result::Result<token::Mint, anchor_lang::prelude::ProgramError>::Err", %"std::result::Result<token::Mint, anchor_lang::prelude::ProgramError>::Err"* %18, i32 0, i32 1, !dbg !1519
  %20 = bitcast %"anchor_lang::prelude::ProgramError"* %19 to i8*, !dbg !1519
  %21 = bitcast %"anchor_lang::prelude::ProgramError"* %_10 to i8*, !dbg !1519
  call void @llvm.memcpy.p0i8.p0i8.i64(i8* align 8 %20, i8* align 8 %21, i64 32, i1 false), !dbg !1519
  %22 = bitcast %"std::result::Result<token::Mint, anchor_lang::prelude::ProgramError>"* %0 to i64*, !dbg !1519
  store i64 1, i64* %22, align 8, !dbg !1519
  br label %bb5, !dbg !1520

bb5:                                              ; preds = %bb4, %bb1
  %23 = load i8, i8* %_11, align 1, !dbg !1521, !range !1416
  %24 = trunc i8 %23 to i1, !dbg !1521
  br i1 %24, label %bb7, label %bb6, !dbg !1521

bb4:                                              ; preds = %bb3
  %25 = bitcast %"std::result::Result<token::Mint, anchor_lang::prelude::ProgramError>"* %0 to %"std::result::Result<token::Mint, anchor_lang::prelude::ProgramError>::Ok"*, !dbg !1522
  %26 = getelementptr inbounds %"std::result::Result<token::Mint, anchor_lang::prelude::ProgramError>::Ok", %"std::result::Result<token::Mint, anchor_lang::prelude::ProgramError>::Ok"* %25, i32 0, i32 1, !dbg !1522
  %27 = bitcast %"token::Mint"* %26 to i8*, !dbg !1522
  %28 = bitcast %"token::Mint"* %_5 to i8*, !dbg !1522
  call void @llvm.memcpy.p0i8.p0i8.i64(i8* align 8 %27, i8* align 8 %28, i64 88, i1 false), !dbg !1522
  %29 = bitcast %"std::result::Result<token::Mint, anchor_lang::prelude::ProgramError>"* %0 to i64*, !dbg !1522
  store i64 0, i64* %29, align 8, !dbg !1522
  br label %bb5, !dbg !1523

bb6:                                              ; preds = %bb7, %bb5
  ret void, !dbg !1524

bb7:                                              ; preds = %bb5
  br label %bb6, !dbg !1521
}

; core::result::Result<T,E>::map
; Function Attrs: inlinehint nounwind
define void @"_ZN4core6result19Result$LT$T$C$E$GT$3map17hb4c2f46a05b259c4E"(%"std::result::Result<token::TokenAccount, anchor_lang::prelude::ProgramError>"* noalias nocapture sret(%"std::result::Result<token::TokenAccount, anchor_lang::prelude::ProgramError>") dereferenceable(184) %0, %"std::result::Result<spl_token::state::Account, anchor_lang::prelude::ProgramError>"* noalias nocapture dereferenceable(184) %self) unnamed_addr #0 !dbg !1525 {
start:
  %op.dbg.spill = alloca {}, align 1
  %_11 = alloca i8, align 1
  %_10 = alloca %"anchor_lang::prelude::ProgramError", align 8
  %e = alloca %"anchor_lang::prelude::ProgramError", align 8
  %_8 = alloca %"spl_token::state::Account", align 8
  %_7 = alloca { %"spl_token::state::Account" }, align 8
  %_5 = alloca %"token::TokenAccount", align 8
  %t = alloca %"spl_token::state::Account", align 8
  call void @llvm.dbg.declare(metadata %"std::result::Result<spl_token::state::Account, anchor_lang::prelude::ProgramError>"* %self, metadata !1556, metadata !DIExpression()), !dbg !1565
  call void @llvm.dbg.declare(metadata {}* %op.dbg.spill, metadata !1557, metadata !DIExpression()), !dbg !1566
  call void @llvm.dbg.declare(metadata %"spl_token::state::Account"* %t, metadata !1558, metadata !DIExpression()), !dbg !1567
  call void @llvm.dbg.declare(metadata %"anchor_lang::prelude::ProgramError"* %e, metadata !1560, metadata !DIExpression()), !dbg !1568
  store i8 0, i8* %_11, align 1, !dbg !1569
  store i8 1, i8* %_11, align 1, !dbg !1569
  %1 = bitcast %"std::result::Result<spl_token::state::Account, anchor_lang::prelude::ProgramError>"* %self to i64*, !dbg !1569
  %_3 = load i64, i64* %1, align 8, !dbg !1569, !range !1512
  switch i64 %_3, label %bb2 [
    i64 0, label %bb3
    i64 1, label %bb1
  ], !dbg !1570

bb2:                                              ; preds = %start
  unreachable, !dbg !1569

bb3:                                              ; preds = %start
  %2 = bitcast %"std::result::Result<spl_token::state::Account, anchor_lang::prelude::ProgramError>"* %self to %"std::result::Result<spl_token::state::Account, anchor_lang::prelude::ProgramError>::Ok"*, !dbg !1571
  %3 = getelementptr inbounds %"std::result::Result<spl_token::state::Account, anchor_lang::prelude::ProgramError>::Ok", %"std::result::Result<spl_token::state::Account, anchor_lang::prelude::ProgramError>::Ok"* %2, i32 0, i32 1, !dbg !1571
  %4 = bitcast %"spl_token::state::Account"* %t to i8*, !dbg !1571
  %5 = bitcast %"spl_token::state::Account"* %3 to i8*, !dbg !1571
  call void @llvm.memcpy.p0i8.p0i8.i64(i8* align 8 %4, i8* align 8 %5, i64 176, i1 false), !dbg !1571
  store i8 0, i8* %_11, align 1, !dbg !1572
  %6 = bitcast %"spl_token::state::Account"* %_8 to i8*, !dbg !1573
  %7 = bitcast %"spl_token::state::Account"* %t to i8*, !dbg !1573
  call void @llvm.memcpy.p0i8.p0i8.i64(i8* align 8 %6, i8* align 8 %7, i64 176, i1 false), !dbg !1573
  %8 = bitcast { %"spl_token::state::Account" }* %_7 to %"spl_token::state::Account"*, !dbg !1572
  %9 = bitcast %"spl_token::state::Account"* %8 to i8*, !dbg !1572
  %10 = bitcast %"spl_token::state::Account"* %_8 to i8*, !dbg !1572
  call void @llvm.memcpy.p0i8.p0i8.i64(i8* align 8 %9, i8* align 8 %10, i64 176, i1 false), !dbg !1572
  %11 = bitcast { %"spl_token::state::Account" }* %_7 to %"spl_token::state::Account"*, !dbg !1572
; call core::ops::function::FnOnce::call_once
  call void @_ZN4core3ops8function6FnOnce9call_once17h3c5c09e006886266E(%"token::TokenAccount"* noalias nocapture sret(%"token::TokenAccount") dereferenceable(176) %_5, %"spl_token::state::Account"* noalias nocapture dereferenceable(176) %11), !dbg !1572
  br label %bb4, !dbg !1572

bb1:                                              ; preds = %start
  %12 = bitcast %"std::result::Result<spl_token::state::Account, anchor_lang::prelude::ProgramError>"* %self to %"std::result::Result<spl_token::state::Account, anchor_lang::prelude::ProgramError>::Err"*, !dbg !1574
  %13 = getelementptr inbounds %"std::result::Result<spl_token::state::Account, anchor_lang::prelude::ProgramError>::Err", %"std::result::Result<spl_token::state::Account, anchor_lang::prelude::ProgramError>::Err"* %12, i32 0, i32 1, !dbg !1574
  %14 = bitcast %"anchor_lang::prelude::ProgramError"* %e to i8*, !dbg !1574
  %15 = bitcast %"anchor_lang::prelude::ProgramError"* %13 to i8*, !dbg !1574
  call void @llvm.memcpy.p0i8.p0i8.i64(i8* align 8 %14, i8* align 8 %15, i64 32, i1 false), !dbg !1574
  %16 = bitcast %"anchor_lang::prelude::ProgramError"* %_10 to i8*, !dbg !1575
  %17 = bitcast %"anchor_lang::prelude::ProgramError"* %e to i8*, !dbg !1575
  call void @llvm.memcpy.p0i8.p0i8.i64(i8* align 8 %16, i8* align 8 %17, i64 32, i1 false), !dbg !1575
  %18 = bitcast %"std::result::Result<token::TokenAccount, anchor_lang::prelude::ProgramError>"* %0 to %"std::result::Result<token::TokenAccount, anchor_lang::prelude::ProgramError>::Err"*, !dbg !1576
  %19 = getelementptr inbounds %"std::result::Result<token::TokenAccount, anchor_lang::prelude::ProgramError>::Err", %"std::result::Result<token::TokenAccount, anchor_lang::prelude::ProgramError>::Err"* %18, i32 0, i32 1, !dbg !1576
  %20 = bitcast %"anchor_lang::prelude::ProgramError"* %19 to i8*, !dbg !1576
  %21 = bitcast %"anchor_lang::prelude::ProgramError"* %_10 to i8*, !dbg !1576
  call void @llvm.memcpy.p0i8.p0i8.i64(i8* align 8 %20, i8* align 8 %21, i64 32, i1 false), !dbg !1576
  %22 = bitcast %"std::result::Result<token::TokenAccount, anchor_lang::prelude::ProgramError>"* %0 to i64*, !dbg !1576
  store i64 1, i64* %22, align 8, !dbg !1576
  br label %bb5, !dbg !1577

bb5:                                              ; preds = %bb4, %bb1
  %23 = load i8, i8* %_11, align 1, !dbg !1578, !range !1416
  %24 = trunc i8 %23 to i1, !dbg !1578
  br i1 %24, label %bb7, label %bb6, !dbg !1578

bb4:                                              ; preds = %bb3
  %25 = bitcast %"std::result::Result<token::TokenAccount, anchor_lang::prelude::ProgramError>"* %0 to %"std::result::Result<token::TokenAccount, anchor_lang::prelude::ProgramError>::Ok"*, !dbg !1579
  %26 = getelementptr inbounds %"std::result::Result<token::TokenAccount, anchor_lang::prelude::ProgramError>::Ok", %"std::result::Result<token::TokenAccount, anchor_lang::prelude::ProgramError>::Ok"* %25, i32 0, i32 1, !dbg !1579
  %27 = bitcast %"token::TokenAccount"* %26 to i8*, !dbg !1579
  %28 = bitcast %"token::TokenAccount"* %_5 to i8*, !dbg !1579
  call void @llvm.memcpy.p0i8.p0i8.i64(i8* align 8 %27, i8* align 8 %28, i64 176, i1 false), !dbg !1579
  %29 = bitcast %"std::result::Result<token::TokenAccount, anchor_lang::prelude::ProgramError>"* %0 to i64*, !dbg !1579
  store i64 0, i64* %29, align 8, !dbg !1579
  br label %bb5, !dbg !1580

bb6:                                              ; preds = %bb7, %bb5
  ret void, !dbg !1581

bb7:                                              ; preds = %bb5
  br label %bb6, !dbg !1578
}

; core::result::Result<T,E>::map_err
; Function Attrs: inlinehint nounwind
define void @"_ZN4core6result19Result$LT$T$C$E$GT$7map_err17h08c569ad72b3de38E"(%"std::result::Result<anchor_lang::prelude::AccountInfo, anchor_lang::error::Error>"* noalias nocapture sret(%"std::result::Result<anchor_lang::prelude::AccountInfo, anchor_lang::error::Error>") dereferenceable(176) %0, %"std::result::Result<anchor_lang::prelude::AccountInfo, anchor_lang::error::Error>"* noalias nocapture dereferenceable(176) %self) unnamed_addr #0 !dbg !1582 {
start:
  %op.dbg.spill = alloca %"[closure@/home/chinedum/.cargo/registry/src/github.com-1ecc6299db9ec823/anchor-spl-0.25.0/src/token.rs:332:10: 332:18]", align 1
  %_11 = alloca i8, align 1
  %_10 = alloca %"anchor_lang::error::Error", align 8
  %_9 = alloca { %"anchor_lang::error::Error" }, align 8
  %_7 = alloca %"anchor_lang::error::Error", align 8
  %e = alloca %"anchor_lang::error::Error", align 8
  %_5 = alloca %"anchor_lang::prelude::AccountInfo", align 8
  %t = alloca %"anchor_lang::prelude::AccountInfo", align 8
  call void @llvm.dbg.declare(metadata %"std::result::Result<anchor_lang::prelude::AccountInfo, anchor_lang::error::Error>"* %self, metadata !1602, metadata !DIExpression()), !dbg !1610
  call void @llvm.dbg.declare(metadata %"[closure@/home/chinedum/.cargo/registry/src/github.com-1ecc6299db9ec823/anchor-spl-0.25.0/src/token.rs:332:10: 332:18]"* %op.dbg.spill, metadata !1603, metadata !DIExpression()), !dbg !1611
  call void @llvm.dbg.declare(metadata %"anchor_lang::prelude::AccountInfo"* %t, metadata !1604, metadata !DIExpression()), !dbg !1612
  call void @llvm.dbg.declare(metadata %"anchor_lang::error::Error"* %e, metadata !1606, metadata !DIExpression()), !dbg !1613
  store i8 0, i8* %_11, align 1, !dbg !1614
  store i8 1, i8* %_11, align 1, !dbg !1614
  %1 = bitcast %"std::result::Result<anchor_lang::prelude::AccountInfo, anchor_lang::error::Error>"* %self to i64*, !dbg !1614
  %_3 = load i64, i64* %1, align 8, !dbg !1614, !range !1512
  switch i64 %_3, label %bb2 [
    i64 0, label %bb3
    i64 1, label %bb1
  ], !dbg !1615

bb2:                                              ; preds = %start
  unreachable, !dbg !1614

bb3:                                              ; preds = %start
  %2 = bitcast %"std::result::Result<anchor_lang::prelude::AccountInfo, anchor_lang::error::Error>"* %self to %"std::result::Result<anchor_lang::prelude::AccountInfo, anchor_lang::error::Error>::Ok"*, !dbg !1616
  %3 = getelementptr inbounds %"std::result::Result<anchor_lang::prelude::AccountInfo, anchor_lang::error::Error>::Ok", %"std::result::Result<anchor_lang::prelude::AccountInfo, anchor_lang::error::Error>::Ok"* %2, i32 0, i32 1, !dbg !1616
  %4 = bitcast %"anchor_lang::prelude::AccountInfo"* %t to i8*, !dbg !1616
  %5 = bitcast %"anchor_lang::prelude::AccountInfo"* %3 to i8*, !dbg !1616
  call void @llvm.memcpy.p0i8.p0i8.i64(i8* align 8 %4, i8* align 8 %5, i64 48, i1 false), !dbg !1616
  %6 = bitcast %"anchor_lang::prelude::AccountInfo"* %_5 to i8*, !dbg !1617
  %7 = bitcast %"anchor_lang::prelude::AccountInfo"* %t to i8*, !dbg !1617
  call void @llvm.memcpy.p0i8.p0i8.i64(i8* align 8 %6, i8* align 8 %7, i64 48, i1 false), !dbg !1617
  %8 = bitcast %"std::result::Result<anchor_lang::prelude::AccountInfo, anchor_lang::error::Error>"* %0 to %"std::result::Result<anchor_lang::prelude::AccountInfo, anchor_lang::error::Error>::Ok"*, !dbg !1618
  %9 = getelementptr inbounds %"std::result::Result<anchor_lang::prelude::AccountInfo, anchor_lang::error::Error>::Ok", %"std::result::Result<anchor_lang::prelude::AccountInfo, anchor_lang::error::Error>::Ok"* %8, i32 0, i32 1, !dbg !1618
  %10 = bitcast %"anchor_lang::prelude::AccountInfo"* %9 to i8*, !dbg !1618
  %11 = bitcast %"anchor_lang::prelude::AccountInfo"* %_5 to i8*, !dbg !1618
  call void @llvm.memcpy.p0i8.p0i8.i64(i8* align 8 %10, i8* align 8 %11, i64 48, i1 false), !dbg !1618
  %12 = bitcast %"std::result::Result<anchor_lang::prelude::AccountInfo, anchor_lang::error::Error>"* %0 to i64*, !dbg !1618
  store i64 0, i64* %12, align 8, !dbg !1618
  br label %bb5, !dbg !1619

bb1:                                              ; preds = %start
  %13 = bitcast %"std::result::Result<anchor_lang::prelude::AccountInfo, anchor_lang::error::Error>"* %self to %"std::result::Result<anchor_lang::prelude::AccountInfo, anchor_lang::error::Error>::Err"*, !dbg !1620
  %14 = getelementptr inbounds %"std::result::Result<anchor_lang::prelude::AccountInfo, anchor_lang::error::Error>::Err", %"std::result::Result<anchor_lang::prelude::AccountInfo, anchor_lang::error::Error>::Err"* %13, i32 0, i32 1, !dbg !1620
  %15 = bitcast %"anchor_lang::error::Error"* %e to i8*, !dbg !1620
  %16 = bitcast %"anchor_lang::error::Error"* %14 to i8*, !dbg !1620
  call void @llvm.memcpy.p0i8.p0i8.i64(i8* align 8 %15, i8* align 8 %16, i64 168, i1 false), !dbg !1620
  store i8 0, i8* %_11, align 1, !dbg !1621
  %17 = bitcast %"anchor_lang::error::Error"* %_10 to i8*, !dbg !1622
  %18 = bitcast %"anchor_lang::error::Error"* %e to i8*, !dbg !1622
  call void @llvm.memcpy.p0i8.p0i8.i64(i8* align 8 %17, i8* align 8 %18, i64 168, i1 false), !dbg !1622
  %19 = bitcast { %"anchor_lang::error::Error" }* %_9 to %"anchor_lang::error::Error"*, !dbg !1621
  %20 = bitcast %"anchor_lang::error::Error"* %19 to i8*, !dbg !1621
  %21 = bitcast %"anchor_lang::error::Error"* %_10 to i8*, !dbg !1621
  call void @llvm.memcpy.p0i8.p0i8.i64(i8* align 8 %20, i8* align 8 %21, i64 168, i1 false), !dbg !1621
  %22 = bitcast { %"anchor_lang::error::Error" }* %_9 to %"anchor_lang::error::Error"*, !dbg !1621
; call <anchor_spl::token::InitializeMint as anchor_lang::Accounts>::try_accounts::{{closure}}
  call void @"_ZN75_$LT$anchor_spl..token..InitializeMint$u20$as$u20$anchor_lang..Accounts$GT$12try_accounts28_$u7b$$u7b$closure$u7d$$u7d$17h5f11dcd9da887ac0E"(%"anchor_lang::error::Error"* noalias nocapture sret(%"anchor_lang::error::Error") dereferenceable(168) %_7, %"anchor_lang::error::Error"* noalias nocapture dereferenceable(168) %22), !dbg !1621
  br label %bb4, !dbg !1621

bb4:                                              ; preds = %bb1
  %23 = bitcast %"std::result::Result<anchor_lang::prelude::AccountInfo, anchor_lang::error::Error>"* %0 to %"std::result::Result<anchor_lang::prelude::AccountInfo, anchor_lang::error::Error>::Err"*, !dbg !1623
  %24 = getelementptr inbounds %"std::result::Result<anchor_lang::prelude::AccountInfo, anchor_lang::error::Error>::Err", %"std::result::Result<anchor_lang::prelude::AccountInfo, anchor_lang::error::Error>::Err"* %23, i32 0, i32 1, !dbg !1623
  %25 = bitcast %"anchor_lang::error::Error"* %24 to i8*, !dbg !1623
  %26 = bitcast %"anchor_lang::error::Error"* %_7 to i8*, !dbg !1623
  call void @llvm.memcpy.p0i8.p0i8.i64(i8* align 8 %25, i8* align 8 %26, i64 168, i1 false), !dbg !1623
  %27 = bitcast %"std::result::Result<anchor_lang::prelude::AccountInfo, anchor_lang::error::Error>"* %0 to i64*, !dbg !1623
  store i64 1, i64* %27, align 8, !dbg !1623
  br label %bb5, !dbg !1624

bb5:                                              ; preds = %bb3, %bb4
  %28 = load i8, i8* %_11, align 1, !dbg !1625, !range !1416
  %29 = trunc i8 %28 to i1, !dbg !1625
  br i1 %29, label %bb7, label %bb6, !dbg !1625

bb6:                                              ; preds = %bb7, %bb5
  ret void, !dbg !1626

bb7:                                              ; preds = %bb5
  br label %bb6, !dbg !1625
}

; core::result::Result<T,E>::map_err
; Function Attrs: inlinehint nounwind
define void @"_ZN4core6result19Result$LT$T$C$E$GT$7map_err17h0f4873d2bfbae34cE"(%"std::result::Result<anchor_lang::prelude::AccountInfo, anchor_lang::error::Error>"* noalias nocapture sret(%"std::result::Result<anchor_lang::prelude::AccountInfo, anchor_lang::error::Error>") dereferenceable(176) %0, %"std::result::Result<anchor_lang::prelude::AccountInfo, anchor_lang::error::Error>"* noalias nocapture dereferenceable(176) %self) unnamed_addr #0 !dbg !1627 {
start:
  %op.dbg.spill = alloca %"[closure@/home/chinedum/.cargo/registry/src/github.com-1ecc6299db9ec823/anchor-spl-0.25.0/src/token.rs:325:10: 325:18]", align 1
  %_11 = alloca i8, align 1
  %_10 = alloca %"anchor_lang::error::Error", align 8
  %_9 = alloca { %"anchor_lang::error::Error" }, align 8
  %_7 = alloca %"anchor_lang::error::Error", align 8
  %e = alloca %"anchor_lang::error::Error", align 8
  %_5 = alloca %"anchor_lang::prelude::AccountInfo", align 8
  %t = alloca %"anchor_lang::prelude::AccountInfo", align 8
  call void @llvm.dbg.declare(metadata %"std::result::Result<anchor_lang::prelude::AccountInfo, anchor_lang::error::Error>"* %self, metadata !1634, metadata !DIExpression()), !dbg !1642
  call void @llvm.dbg.declare(metadata %"[closure@/home/chinedum/.cargo/registry/src/github.com-1ecc6299db9ec823/anchor-spl-0.25.0/src/token.rs:325:10: 325:18]"* %op.dbg.spill, metadata !1635, metadata !DIExpression()), !dbg !1643
  call void @llvm.dbg.declare(metadata %"anchor_lang::prelude::AccountInfo"* %t, metadata !1636, metadata !DIExpression()), !dbg !1644
  call void @llvm.dbg.declare(metadata %"anchor_lang::error::Error"* %e, metadata !1638, metadata !DIExpression()), !dbg !1645
  store i8 0, i8* %_11, align 1, !dbg !1646
  store i8 1, i8* %_11, align 1, !dbg !1646
  %1 = bitcast %"std::result::Result<anchor_lang::prelude::AccountInfo, anchor_lang::error::Error>"* %self to i64*, !dbg !1646
  %_3 = load i64, i64* %1, align 8, !dbg !1646, !range !1512
  switch i64 %_3, label %bb2 [
    i64 0, label %bb3
    i64 1, label %bb1
  ], !dbg !1647

bb2:                                              ; preds = %start
  unreachable, !dbg !1646

bb3:                                              ; preds = %start
  %2 = bitcast %"std::result::Result<anchor_lang::prelude::AccountInfo, anchor_lang::error::Error>"* %self to %"std::result::Result<anchor_lang::prelude::AccountInfo, anchor_lang::error::Error>::Ok"*, !dbg !1648
  %3 = getelementptr inbounds %"std::result::Result<anchor_lang::prelude::AccountInfo, anchor_lang::error::Error>::Ok", %"std::result::Result<anchor_lang::prelude::AccountInfo, anchor_lang::error::Error>::Ok"* %2, i32 0, i32 1, !dbg !1648
  %4 = bitcast %"anchor_lang::prelude::AccountInfo"* %t to i8*, !dbg !1648
  %5 = bitcast %"anchor_lang::prelude::AccountInfo"* %3 to i8*, !dbg !1648
  call void @llvm.memcpy.p0i8.p0i8.i64(i8* align 8 %4, i8* align 8 %5, i64 48, i1 false), !dbg !1648
  %6 = bitcast %"anchor_lang::prelude::AccountInfo"* %_5 to i8*, !dbg !1649
  %7 = bitcast %"anchor_lang::prelude::AccountInfo"* %t to i8*, !dbg !1649
  call void @llvm.memcpy.p0i8.p0i8.i64(i8* align 8 %6, i8* align 8 %7, i64 48, i1 false), !dbg !1649
  %8 = bitcast %"std::result::Result<anchor_lang::prelude::AccountInfo, anchor_lang::error::Error>"* %0 to %"std::result::Result<anchor_lang::prelude::AccountInfo, anchor_lang::error::Error>::Ok"*, !dbg !1650
  %9 = getelementptr inbounds %"std::result::Result<anchor_lang::prelude::AccountInfo, anchor_lang::error::Error>::Ok", %"std::result::Result<anchor_lang::prelude::AccountInfo, anchor_lang::error::Error>::Ok"* %8, i32 0, i32 1, !dbg !1650
  %10 = bitcast %"anchor_lang::prelude::AccountInfo"* %9 to i8*, !dbg !1650
  %11 = bitcast %"anchor_lang::prelude::AccountInfo"* %_5 to i8*, !dbg !1650
  call void @llvm.memcpy.p0i8.p0i8.i64(i8* align 8 %10, i8* align 8 %11, i64 48, i1 false), !dbg !1650
  %12 = bitcast %"std::result::Result<anchor_lang::prelude::AccountInfo, anchor_lang::error::Error>"* %0 to i64*, !dbg !1650
  store i64 0, i64* %12, align 8, !dbg !1650
  br label %bb5, !dbg !1651

bb1:                                              ; preds = %start
  %13 = bitcast %"std::result::Result<anchor_lang::prelude::AccountInfo, anchor_lang::error::Error>"* %self to %"std::result::Result<anchor_lang::prelude::AccountInfo, anchor_lang::error::Error>::Err"*, !dbg !1652
  %14 = getelementptr inbounds %"std::result::Result<anchor_lang::prelude::AccountInfo, anchor_lang::error::Error>::Err", %"std::result::Result<anchor_lang::prelude::AccountInfo, anchor_lang::error::Error>::Err"* %13, i32 0, i32 1, !dbg !1652
  %15 = bitcast %"anchor_lang::error::Error"* %e to i8*, !dbg !1652
  %16 = bitcast %"anchor_lang::error::Error"* %14 to i8*, !dbg !1652
  call void @llvm.memcpy.p0i8.p0i8.i64(i8* align 8 %15, i8* align 8 %16, i64 168, i1 false), !dbg !1652
  store i8 0, i8* %_11, align 1, !dbg !1653
  %17 = bitcast %"anchor_lang::error::Error"* %_10 to i8*, !dbg !1654
  %18 = bitcast %"anchor_lang::error::Error"* %e to i8*, !dbg !1654
  call void @llvm.memcpy.p0i8.p0i8.i64(i8* align 8 %17, i8* align 8 %18, i64 168, i1 false), !dbg !1654
  %19 = bitcast { %"anchor_lang::error::Error" }* %_9 to %"anchor_lang::error::Error"*, !dbg !1653
  %20 = bitcast %"anchor_lang::error::Error"* %19 to i8*, !dbg !1653
  %21 = bitcast %"anchor_lang::error::Error"* %_10 to i8*, !dbg !1653
  call void @llvm.memcpy.p0i8.p0i8.i64(i8* align 8 %20, i8* align 8 %21, i64 168, i1 false), !dbg !1653
  %22 = bitcast { %"anchor_lang::error::Error" }* %_9 to %"anchor_lang::error::Error"*, !dbg !1653
; call <anchor_spl::token::ThawAccount as anchor_lang::Accounts>::try_accounts::{{closure}}
  call void @"_ZN72_$LT$anchor_spl..token..ThawAccount$u20$as$u20$anchor_lang..Accounts$GT$12try_accounts28_$u7b$$u7b$closure$u7d$$u7d$17h8ee4fe2e9c2dda9bE"(%"anchor_lang::error::Error"* noalias nocapture sret(%"anchor_lang::error::Error") dereferenceable(168) %_7, %"anchor_lang::error::Error"* noalias nocapture dereferenceable(168) %22), !dbg !1653
  br label %bb4, !dbg !1653

bb4:                                              ; preds = %bb1
  %23 = bitcast %"std::result::Result<anchor_lang::prelude::AccountInfo, anchor_lang::error::Error>"* %0 to %"std::result::Result<anchor_lang::prelude::AccountInfo, anchor_lang::error::Error>::Err"*, !dbg !1655
  %24 = getelementptr inbounds %"std::result::Result<anchor_lang::prelude::AccountInfo, anchor_lang::error::Error>::Err", %"std::result::Result<anchor_lang::prelude::AccountInfo, anchor_lang::error::Error>::Err"* %23, i32 0, i32 1, !dbg !1655
  %25 = bitcast %"anchor_lang::error::Error"* %24 to i8*, !dbg !1655
  %26 = bitcast %"anchor_lang::error::Error"* %_7 to i8*, !dbg !1655
  call void @llvm.memcpy.p0i8.p0i8.i64(i8* align 8 %25, i8* align 8 %26, i64 168, i1 false), !dbg !1655
  %27 = bitcast %"std::result::Result<anchor_lang::prelude::AccountInfo, anchor_lang::error::Error>"* %0 to i64*, !dbg !1655
  store i64 1, i64* %27, align 8, !dbg !1655
  br label %bb5, !dbg !1656

bb5:                                              ; preds = %bb3, %bb4
  %28 = load i8, i8* %_11, align 1, !dbg !1657, !range !1416
  %29 = trunc i8 %28 to i1, !dbg !1657
  br i1 %29, label %bb7, label %bb6, !dbg !1657

bb6:                                              ; preds = %bb7, %bb5
  ret void, !dbg !1658

bb7:                                              ; preds = %bb5
  br label %bb6, !dbg !1657
}

; core::result::Result<T,E>::map_err
; Function Attrs: inlinehint nounwind
define void @"_ZN4core6result19Result$LT$T$C$E$GT$7map_err17h1074788c656f5830E"(%"std::result::Result<anchor_lang::prelude::AccountInfo, anchor_lang::error::Error>"* noalias nocapture sret(%"std::result::Result<anchor_lang::prelude::AccountInfo, anchor_lang::error::Error>") dereferenceable(176) %0, %"std::result::Result<anchor_lang::prelude::AccountInfo, anchor_lang::error::Error>"* noalias nocapture dereferenceable(176) %self) unnamed_addr #0 !dbg !1659 {
start:
  %op.dbg.spill = alloca %"[closure@/home/chinedum/.cargo/registry/src/github.com-1ecc6299db9ec823/anchor-spl-0.25.0/src/token.rs:290:10: 290:18]", align 1
  %_11 = alloca i8, align 1
  %_10 = alloca %"anchor_lang::error::Error", align 8
  %_9 = alloca { %"anchor_lang::error::Error" }, align 8
  %_7 = alloca %"anchor_lang::error::Error", align 8
  %e = alloca %"anchor_lang::error::Error", align 8
  %_5 = alloca %"anchor_lang::prelude::AccountInfo", align 8
  %t = alloca %"anchor_lang::prelude::AccountInfo", align 8
  call void @llvm.dbg.declare(metadata %"std::result::Result<anchor_lang::prelude::AccountInfo, anchor_lang::error::Error>"* %self, metadata !1666, metadata !DIExpression()), !dbg !1674
  call void @llvm.dbg.declare(metadata %"[closure@/home/chinedum/.cargo/registry/src/github.com-1ecc6299db9ec823/anchor-spl-0.25.0/src/token.rs:290:10: 290:18]"* %op.dbg.spill, metadata !1667, metadata !DIExpression()), !dbg !1675
  call void @llvm.dbg.declare(metadata %"anchor_lang::prelude::AccountInfo"* %t, metadata !1668, metadata !DIExpression()), !dbg !1676
  call void @llvm.dbg.declare(metadata %"anchor_lang::error::Error"* %e, metadata !1670, metadata !DIExpression()), !dbg !1677
  store i8 0, i8* %_11, align 1, !dbg !1678
  store i8 1, i8* %_11, align 1, !dbg !1678
  %1 = bitcast %"std::result::Result<anchor_lang::prelude::AccountInfo, anchor_lang::error::Error>"* %self to i64*, !dbg !1678
  %_3 = load i64, i64* %1, align 8, !dbg !1678, !range !1512
  switch i64 %_3, label %bb2 [
    i64 0, label %bb3
    i64 1, label %bb1
  ], !dbg !1679

bb2:                                              ; preds = %start
  unreachable, !dbg !1678

bb3:                                              ; preds = %start
  %2 = bitcast %"std::result::Result<anchor_lang::prelude::AccountInfo, anchor_lang::error::Error>"* %self to %"std::result::Result<anchor_lang::prelude::AccountInfo, anchor_lang::error::Error>::Ok"*, !dbg !1680
  %3 = getelementptr inbounds %"std::result::Result<anchor_lang::prelude::AccountInfo, anchor_lang::error::Error>::Ok", %"std::result::Result<anchor_lang::prelude::AccountInfo, anchor_lang::error::Error>::Ok"* %2, i32 0, i32 1, !dbg !1680
  %4 = bitcast %"anchor_lang::prelude::AccountInfo"* %t to i8*, !dbg !1680
  %5 = bitcast %"anchor_lang::prelude::AccountInfo"* %3 to i8*, !dbg !1680
  call void @llvm.memcpy.p0i8.p0i8.i64(i8* align 8 %4, i8* align 8 %5, i64 48, i1 false), !dbg !1680
  %6 = bitcast %"anchor_lang::prelude::AccountInfo"* %_5 to i8*, !dbg !1681
  %7 = bitcast %"anchor_lang::prelude::AccountInfo"* %t to i8*, !dbg !1681
  call void @llvm.memcpy.p0i8.p0i8.i64(i8* align 8 %6, i8* align 8 %7, i64 48, i1 false), !dbg !1681
  %8 = bitcast %"std::result::Result<anchor_lang::prelude::AccountInfo, anchor_lang::error::Error>"* %0 to %"std::result::Result<anchor_lang::prelude::AccountInfo, anchor_lang::error::Error>::Ok"*, !dbg !1682
  %9 = getelementptr inbounds %"std::result::Result<anchor_lang::prelude::AccountInfo, anchor_lang::error::Error>::Ok", %"std::result::Result<anchor_lang::prelude::AccountInfo, anchor_lang::error::Error>::Ok"* %8, i32 0, i32 1, !dbg !1682
  %10 = bitcast %"anchor_lang::prelude::AccountInfo"* %9 to i8*, !dbg !1682
  %11 = bitcast %"anchor_lang::prelude::AccountInfo"* %_5 to i8*, !dbg !1682
  call void @llvm.memcpy.p0i8.p0i8.i64(i8* align 8 %10, i8* align 8 %11, i64 48, i1 false), !dbg !1682
  %12 = bitcast %"std::result::Result<anchor_lang::prelude::AccountInfo, anchor_lang::error::Error>"* %0 to i64*, !dbg !1682
  store i64 0, i64* %12, align 8, !dbg !1682
  br label %bb5, !dbg !1683

bb1:                                              ; preds = %start
  %13 = bitcast %"std::result::Result<anchor_lang::prelude::AccountInfo, anchor_lang::error::Error>"* %self to %"std::result::Result<anchor_lang::prelude::AccountInfo, anchor_lang::error::Error>::Err"*, !dbg !1684
  %14 = getelementptr inbounds %"std::result::Result<anchor_lang::prelude::AccountInfo, anchor_lang::error::Error>::Err", %"std::result::Result<anchor_lang::prelude::AccountInfo, anchor_lang::error::Error>::Err"* %13, i32 0, i32 1, !dbg !1684
  %15 = bitcast %"anchor_lang::error::Error"* %e to i8*, !dbg !1684
  %16 = bitcast %"anchor_lang::error::Error"* %14 to i8*, !dbg !1684
  call void @llvm.memcpy.p0i8.p0i8.i64(i8* align 8 %15, i8* align 8 %16, i64 168, i1 false), !dbg !1684
  store i8 0, i8* %_11, align 1, !dbg !1685
  %17 = bitcast %"anchor_lang::error::Error"* %_10 to i8*, !dbg !1686
  %18 = bitcast %"anchor_lang::error::Error"* %e to i8*, !dbg !1686
  call void @llvm.memcpy.p0i8.p0i8.i64(i8* align 8 %17, i8* align 8 %18, i64 168, i1 false), !dbg !1686
  %19 = bitcast { %"anchor_lang::error::Error" }* %_9 to %"anchor_lang::error::Error"*, !dbg !1685
  %20 = bitcast %"anchor_lang::error::Error"* %19 to i8*, !dbg !1685
  %21 = bitcast %"anchor_lang::error::Error"* %_10 to i8*, !dbg !1685
  call void @llvm.memcpy.p0i8.p0i8.i64(i8* align 8 %20, i8* align 8 %21, i64 168, i1 false), !dbg !1685
  %22 = bitcast { %"anchor_lang::error::Error" }* %_9 to %"anchor_lang::error::Error"*, !dbg !1685
; call <anchor_spl::token::Approve as anchor_lang::Accounts>::try_accounts::{{closure}}
  call void @"_ZN68_$LT$anchor_spl..token..Approve$u20$as$u20$anchor_lang..Accounts$GT$12try_accounts28_$u7b$$u7b$closure$u7d$$u7d$17h6e41c3aafeb52eccE"(%"anchor_lang::error::Error"* noalias nocapture sret(%"anchor_lang::error::Error") dereferenceable(168) %_7, %"anchor_lang::error::Error"* noalias nocapture dereferenceable(168) %22), !dbg !1685
  br label %bb4, !dbg !1685

bb4:                                              ; preds = %bb1
  %23 = bitcast %"std::result::Result<anchor_lang::prelude::AccountInfo, anchor_lang::error::Error>"* %0 to %"std::result::Result<anchor_lang::prelude::AccountInfo, anchor_lang::error::Error>::Err"*, !dbg !1687
  %24 = getelementptr inbounds %"std::result::Result<anchor_lang::prelude::AccountInfo, anchor_lang::error::Error>::Err", %"std::result::Result<anchor_lang::prelude::AccountInfo, anchor_lang::error::Error>::Err"* %23, i32 0, i32 1, !dbg !1687
  %25 = bitcast %"anchor_lang::error::Error"* %24 to i8*, !dbg !1687
  %26 = bitcast %"anchor_lang::error::Error"* %_7 to i8*, !dbg !1687
  call void @llvm.memcpy.p0i8.p0i8.i64(i8* align 8 %25, i8* align 8 %26, i64 168, i1 false), !dbg !1687
  %27 = bitcast %"std::result::Result<anchor_lang::prelude::AccountInfo, anchor_lang::error::Error>"* %0 to i64*, !dbg !1687
  store i64 1, i64* %27, align 8, !dbg !1687
  br label %bb5, !dbg !1688

bb5:                                              ; preds = %bb3, %bb4
  %28 = load i8, i8* %_11, align 1, !dbg !1689, !range !1416
  %29 = trunc i8 %28 to i1, !dbg !1689
  br i1 %29, label %bb7, label %bb6, !dbg !1689

bb6:                                              ; preds = %bb7, %bb5
  ret void, !dbg !1690

bb7:                                              ; preds = %bb5
  br label %bb6, !dbg !1689
}

; core::result::Result<T,E>::map_err
; Function Attrs: inlinehint nounwind
define void @"_ZN4core6result19Result$LT$T$C$E$GT$7map_err17h141e2abeda68e3f5E"(%"std::result::Result<anchor_lang::prelude::AccountInfo, anchor_lang::error::Error>"* noalias nocapture sret(%"std::result::Result<anchor_lang::prelude::AccountInfo, anchor_lang::error::Error>") dereferenceable(176) %0, %"std::result::Result<anchor_lang::prelude::AccountInfo, anchor_lang::error::Error>"* noalias nocapture dereferenceable(176) %self) unnamed_addr #0 !dbg !1691 {
start:
  %op.dbg.spill = alloca %"[closure@/home/chinedum/.cargo/registry/src/github.com-1ecc6299db9ec823/anchor-spl-0.25.0/src/token.rs:344:10: 344:18]", align 1
  %_11 = alloca i8, align 1
  %_10 = alloca %"anchor_lang::error::Error", align 8
  %_9 = alloca { %"anchor_lang::error::Error" }, align 8
  %_7 = alloca %"anchor_lang::error::Error", align 8
  %e = alloca %"anchor_lang::error::Error", align 8
  %_5 = alloca %"anchor_lang::prelude::AccountInfo", align 8
  %t = alloca %"anchor_lang::prelude::AccountInfo", align 8
  call void @llvm.dbg.declare(metadata %"std::result::Result<anchor_lang::prelude::AccountInfo, anchor_lang::error::Error>"* %self, metadata !1698, metadata !DIExpression()), !dbg !1706
  call void @llvm.dbg.declare(metadata %"[closure@/home/chinedum/.cargo/registry/src/github.com-1ecc6299db9ec823/anchor-spl-0.25.0/src/token.rs:344:10: 344:18]"* %op.dbg.spill, metadata !1699, metadata !DIExpression()), !dbg !1707
  call void @llvm.dbg.declare(metadata %"anchor_lang::prelude::AccountInfo"* %t, metadata !1700, metadata !DIExpression()), !dbg !1708
  call void @llvm.dbg.declare(metadata %"anchor_lang::error::Error"* %e, metadata !1702, metadata !DIExpression()), !dbg !1709
  store i8 0, i8* %_11, align 1, !dbg !1710
  store i8 1, i8* %_11, align 1, !dbg !1710
  %1 = bitcast %"std::result::Result<anchor_lang::prelude::AccountInfo, anchor_lang::error::Error>"* %self to i64*, !dbg !1710
  %_3 = load i64, i64* %1, align 8, !dbg !1710, !range !1512
  switch i64 %_3, label %bb2 [
    i64 0, label %bb3
    i64 1, label %bb1
  ], !dbg !1711

bb2:                                              ; preds = %start
  unreachable, !dbg !1710

bb3:                                              ; preds = %start
  %2 = bitcast %"std::result::Result<anchor_lang::prelude::AccountInfo, anchor_lang::error::Error>"* %self to %"std::result::Result<anchor_lang::prelude::AccountInfo, anchor_lang::error::Error>::Ok"*, !dbg !1712
  %3 = getelementptr inbounds %"std::result::Result<anchor_lang::prelude::AccountInfo, anchor_lang::error::Error>::Ok", %"std::result::Result<anchor_lang::prelude::AccountInfo, anchor_lang::error::Error>::Ok"* %2, i32 0, i32 1, !dbg !1712
  %4 = bitcast %"anchor_lang::prelude::AccountInfo"* %t to i8*, !dbg !1712
  %5 = bitcast %"anchor_lang::prelude::AccountInfo"* %3 to i8*, !dbg !1712
  call void @llvm.memcpy.p0i8.p0i8.i64(i8* align 8 %4, i8* align 8 %5, i64 48, i1 false), !dbg !1712
  %6 = bitcast %"anchor_lang::prelude::AccountInfo"* %_5 to i8*, !dbg !1713
  %7 = bitcast %"anchor_lang::prelude::AccountInfo"* %t to i8*, !dbg !1713
  call void @llvm.memcpy.p0i8.p0i8.i64(i8* align 8 %6, i8* align 8 %7, i64 48, i1 false), !dbg !1713
  %8 = bitcast %"std::result::Result<anchor_lang::prelude::AccountInfo, anchor_lang::error::Error>"* %0 to %"std::result::Result<anchor_lang::prelude::AccountInfo, anchor_lang::error::Error>::Ok"*, !dbg !1714
  %9 = getelementptr inbounds %"std::result::Result<anchor_lang::prelude::AccountInfo, anchor_lang::error::Error>::Ok", %"std::result::Result<anchor_lang::prelude::AccountInfo, anchor_lang::error::Error>::Ok"* %8, i32 0, i32 1, !dbg !1714
  %10 = bitcast %"anchor_lang::prelude::AccountInfo"* %9 to i8*, !dbg !1714
  %11 = bitcast %"anchor_lang::prelude::AccountInfo"* %_5 to i8*, !dbg !1714
  call void @llvm.memcpy.p0i8.p0i8.i64(i8* align 8 %10, i8* align 8 %11, i64 48, i1 false), !dbg !1714
  %12 = bitcast %"std::result::Result<anchor_lang::prelude::AccountInfo, anchor_lang::error::Error>"* %0 to i64*, !dbg !1714
  store i64 0, i64* %12, align 8, !dbg !1714
  br label %bb5, !dbg !1715

bb1:                                              ; preds = %start
  %13 = bitcast %"std::result::Result<anchor_lang::prelude::AccountInfo, anchor_lang::error::Error>"* %self to %"std::result::Result<anchor_lang::prelude::AccountInfo, anchor_lang::error::Error>::Err"*, !dbg !1716
  %14 = getelementptr inbounds %"std::result::Result<anchor_lang::prelude::AccountInfo, anchor_lang::error::Error>::Err", %"std::result::Result<anchor_lang::prelude::AccountInfo, anchor_lang::error::Error>::Err"* %13, i32 0, i32 1, !dbg !1716
  %15 = bitcast %"anchor_lang::error::Error"* %e to i8*, !dbg !1716
  %16 = bitcast %"anchor_lang::error::Error"* %14 to i8*, !dbg !1716
  call void @llvm.memcpy.p0i8.p0i8.i64(i8* align 8 %15, i8* align 8 %16, i64 168, i1 false), !dbg !1716
  store i8 0, i8* %_11, align 1, !dbg !1717
  %17 = bitcast %"anchor_lang::error::Error"* %_10 to i8*, !dbg !1718
  %18 = bitcast %"anchor_lang::error::Error"* %e to i8*, !dbg !1718
  call void @llvm.memcpy.p0i8.p0i8.i64(i8* align 8 %17, i8* align 8 %18, i64 168, i1 false), !dbg !1718
  %19 = bitcast { %"anchor_lang::error::Error" }* %_9 to %"anchor_lang::error::Error"*, !dbg !1717
  %20 = bitcast %"anchor_lang::error::Error"* %19 to i8*, !dbg !1717
  %21 = bitcast %"anchor_lang::error::Error"* %_10 to i8*, !dbg !1717
  call void @llvm.memcpy.p0i8.p0i8.i64(i8* align 8 %20, i8* align 8 %21, i64 168, i1 false), !dbg !1717
  %22 = bitcast { %"anchor_lang::error::Error" }* %_9 to %"anchor_lang::error::Error"*, !dbg !1717
; call <anchor_spl::token::SyncNative as anchor_lang::Accounts>::try_accounts::{{closure}}
  call void @"_ZN71_$LT$anchor_spl..token..SyncNative$u20$as$u20$anchor_lang..Accounts$GT$12try_accounts28_$u7b$$u7b$closure$u7d$$u7d$17h9a774d546fbb2f8aE"(%"anchor_lang::error::Error"* noalias nocapture sret(%"anchor_lang::error::Error") dereferenceable(168) %_7, %"anchor_lang::error::Error"* noalias nocapture dereferenceable(168) %22), !dbg !1717
  br label %bb4, !dbg !1717

bb4:                                              ; preds = %bb1
  %23 = bitcast %"std::result::Result<anchor_lang::prelude::AccountInfo, anchor_lang::error::Error>"* %0 to %"std::result::Result<anchor_lang::prelude::AccountInfo, anchor_lang::error::Error>::Err"*, !dbg !1719
  %24 = getelementptr inbounds %"std::result::Result<anchor_lang::prelude::AccountInfo, anchor_lang::error::Error>::Err", %"std::result::Result<anchor_lang::prelude::AccountInfo, anchor_lang::error::Error>::Err"* %23, i32 0, i32 1, !dbg !1719
  %25 = bitcast %"anchor_lang::error::Error"* %24 to i8*, !dbg !1719
  %26 = bitcast %"anchor_lang::error::Error"* %_7 to i8*, !dbg !1719
  call void @llvm.memcpy.p0i8.p0i8.i64(i8* align 8 %25, i8* align 8 %26, i64 168, i1 false), !dbg !1719
  %27 = bitcast %"std::result::Result<anchor_lang::prelude::AccountInfo, anchor_lang::error::Error>"* %0 to i64*, !dbg !1719
  store i64 1, i64* %27, align 8, !dbg !1719
  br label %bb5, !dbg !1720

bb5:                                              ; preds = %bb3, %bb4
  %28 = load i8, i8* %_11, align 1, !dbg !1721, !range !1416
  %29 = trunc i8 %28 to i1, !dbg !1721
  br i1 %29, label %bb7, label %bb6, !dbg !1721

bb6:                                              ; preds = %bb7, %bb5
  ret void, !dbg !1722

bb7:                                              ; preds = %bb5
  br label %bb6, !dbg !1721
}

; core::result::Result<T,E>::map_err
; Function Attrs: inlinehint nounwind
define void @"_ZN4core6result19Result$LT$T$C$E$GT$7map_err17h16a1dbc7961da637E"(%"std::result::Result<anchor_lang::prelude::AccountInfo, anchor_lang::error::Error>"* noalias nocapture sret(%"std::result::Result<anchor_lang::prelude::AccountInfo, anchor_lang::error::Error>") dereferenceable(176) %0, %"std::result::Result<anchor_lang::prelude::AccountInfo, anchor_lang::error::Error>"* noalias nocapture dereferenceable(176) %self) unnamed_addr #0 !dbg !1723 {
start:
  %op.dbg.spill = alloca %"[closure@/home/chinedum/.cargo/registry/src/github.com-1ecc6299db9ec823/anchor-spl-0.25.0/src/associated_token.rs:30:10: 30:18]", align 1
  %_11 = alloca i8, align 1
  %_10 = alloca %"anchor_lang::error::Error", align 8
  %_9 = alloca { %"anchor_lang::error::Error" }, align 8
  %_7 = alloca %"anchor_lang::error::Error", align 8
  %e = alloca %"anchor_lang::error::Error", align 8
  %_5 = alloca %"anchor_lang::prelude::AccountInfo", align 8
  %t = alloca %"anchor_lang::prelude::AccountInfo", align 8
  call void @llvm.dbg.declare(metadata %"std::result::Result<anchor_lang::prelude::AccountInfo, anchor_lang::error::Error>"* %self, metadata !1730, metadata !DIExpression()), !dbg !1738
  call void @llvm.dbg.declare(metadata %"[closure@/home/chinedum/.cargo/registry/src/github.com-1ecc6299db9ec823/anchor-spl-0.25.0/src/associated_token.rs:30:10: 30:18]"* %op.dbg.spill, metadata !1731, metadata !DIExpression()), !dbg !1739
  call void @llvm.dbg.declare(metadata %"anchor_lang::prelude::AccountInfo"* %t, metadata !1732, metadata !DIExpression()), !dbg !1740
  call void @llvm.dbg.declare(metadata %"anchor_lang::error::Error"* %e, metadata !1734, metadata !DIExpression()), !dbg !1741
  store i8 0, i8* %_11, align 1, !dbg !1742
  store i8 1, i8* %_11, align 1, !dbg !1742
  %1 = bitcast %"std::result::Result<anchor_lang::prelude::AccountInfo, anchor_lang::error::Error>"* %self to i64*, !dbg !1742
  %_3 = load i64, i64* %1, align 8, !dbg !1742, !range !1512
  switch i64 %_3, label %bb2 [
    i64 0, label %bb3
    i64 1, label %bb1
  ], !dbg !1743

bb2:                                              ; preds = %start
  unreachable, !dbg !1742

bb3:                                              ; preds = %start
  %2 = bitcast %"std::result::Result<anchor_lang::prelude::AccountInfo, anchor_lang::error::Error>"* %self to %"std::result::Result<anchor_lang::prelude::AccountInfo, anchor_lang::error::Error>::Ok"*, !dbg !1744
  %3 = getelementptr inbounds %"std::result::Result<anchor_lang::prelude::AccountInfo, anchor_lang::error::Error>::Ok", %"std::result::Result<anchor_lang::prelude::AccountInfo, anchor_lang::error::Error>::Ok"* %2, i32 0, i32 1, !dbg !1744
  %4 = bitcast %"anchor_lang::prelude::AccountInfo"* %t to i8*, !dbg !1744
  %5 = bitcast %"anchor_lang::prelude::AccountInfo"* %3 to i8*, !dbg !1744
  call void @llvm.memcpy.p0i8.p0i8.i64(i8* align 8 %4, i8* align 8 %5, i64 48, i1 false), !dbg !1744
  %6 = bitcast %"anchor_lang::prelude::AccountInfo"* %_5 to i8*, !dbg !1745
  %7 = bitcast %"anchor_lang::prelude::AccountInfo"* %t to i8*, !dbg !1745
  call void @llvm.memcpy.p0i8.p0i8.i64(i8* align 8 %6, i8* align 8 %7, i64 48, i1 false), !dbg !1745
  %8 = bitcast %"std::result::Result<anchor_lang::prelude::AccountInfo, anchor_lang::error::Error>"* %0 to %"std::result::Result<anchor_lang::prelude::AccountInfo, anchor_lang::error::Error>::Ok"*, !dbg !1746
  %9 = getelementptr inbounds %"std::result::Result<anchor_lang::prelude::AccountInfo, anchor_lang::error::Error>::Ok", %"std::result::Result<anchor_lang::prelude::AccountInfo, anchor_lang::error::Error>::Ok"* %8, i32 0, i32 1, !dbg !1746
  %10 = bitcast %"anchor_lang::prelude::AccountInfo"* %9 to i8*, !dbg !1746
  %11 = bitcast %"anchor_lang::prelude::AccountInfo"* %_5 to i8*, !dbg !1746
  call void @llvm.memcpy.p0i8.p0i8.i64(i8* align 8 %10, i8* align 8 %11, i64 48, i1 false), !dbg !1746
  %12 = bitcast %"std::result::Result<anchor_lang::prelude::AccountInfo, anchor_lang::error::Error>"* %0 to i64*, !dbg !1746
  store i64 0, i64* %12, align 8, !dbg !1746
  br label %bb5, !dbg !1747

bb1:                                              ; preds = %start
  %13 = bitcast %"std::result::Result<anchor_lang::prelude::AccountInfo, anchor_lang::error::Error>"* %self to %"std::result::Result<anchor_lang::prelude::AccountInfo, anchor_lang::error::Error>::Err"*, !dbg !1748
  %14 = getelementptr inbounds %"std::result::Result<anchor_lang::prelude::AccountInfo, anchor_lang::error::Error>::Err", %"std::result::Result<anchor_lang::prelude::AccountInfo, anchor_lang::error::Error>::Err"* %13, i32 0, i32 1, !dbg !1748
  %15 = bitcast %"anchor_lang::error::Error"* %e to i8*, !dbg !1748
  %16 = bitcast %"anchor_lang::error::Error"* %14 to i8*, !dbg !1748
  call void @llvm.memcpy.p0i8.p0i8.i64(i8* align 8 %15, i8* align 8 %16, i64 168, i1 false), !dbg !1748
  store i8 0, i8* %_11, align 1, !dbg !1749
  %17 = bitcast %"anchor_lang::error::Error"* %_10 to i8*, !dbg !1750
  %18 = bitcast %"anchor_lang::error::Error"* %e to i8*, !dbg !1750
  call void @llvm.memcpy.p0i8.p0i8.i64(i8* align 8 %17, i8* align 8 %18, i64 168, i1 false), !dbg !1750
  %19 = bitcast { %"anchor_lang::error::Error" }* %_9 to %"anchor_lang::error::Error"*, !dbg !1749
  %20 = bitcast %"anchor_lang::error::Error"* %19 to i8*, !dbg !1749
  %21 = bitcast %"anchor_lang::error::Error"* %_10 to i8*, !dbg !1749
  call void @llvm.memcpy.p0i8.p0i8.i64(i8* align 8 %20, i8* align 8 %21, i64 168, i1 false), !dbg !1749
  %22 = bitcast { %"anchor_lang::error::Error" }* %_9 to %"anchor_lang::error::Error"*, !dbg !1749
; call <anchor_spl::associated_token::Create as anchor_lang::Accounts>::try_accounts::{{closure}}
  call void @"_ZN78_$LT$anchor_spl..associated_token..Create$u20$as$u20$anchor_lang..Accounts$GT$12try_accounts28_$u7b$$u7b$closure$u7d$$u7d$17h87afddf393a841f4E"(%"anchor_lang::error::Error"* noalias nocapture sret(%"anchor_lang::error::Error") dereferenceable(168) %_7, %"anchor_lang::error::Error"* noalias nocapture dereferenceable(168) %22), !dbg !1749
  br label %bb4, !dbg !1749

bb4:                                              ; preds = %bb1
  %23 = bitcast %"std::result::Result<anchor_lang::prelude::AccountInfo, anchor_lang::error::Error>"* %0 to %"std::result::Result<anchor_lang::prelude::AccountInfo, anchor_lang::error::Error>::Err"*, !dbg !1751
  %24 = getelementptr inbounds %"std::result::Result<anchor_lang::prelude::AccountInfo, anchor_lang::error::Error>::Err", %"std::result::Result<anchor_lang::prelude::AccountInfo, anchor_lang::error::Error>::Err"* %23, i32 0, i32 1, !dbg !1751
  %25 = bitcast %"anchor_lang::error::Error"* %24 to i8*, !dbg !1751
  %26 = bitcast %"anchor_lang::error::Error"* %_7 to i8*, !dbg !1751
  call void @llvm.memcpy.p0i8.p0i8.i64(i8* align 8 %25, i8* align 8 %26, i64 168, i1 false), !dbg !1751
  %27 = bitcast %"std::result::Result<anchor_lang::prelude::AccountInfo, anchor_lang::error::Error>"* %0 to i64*, !dbg !1751
  store i64 1, i64* %27, align 8, !dbg !1751
  br label %bb5, !dbg !1752

bb5:                                              ; preds = %bb3, %bb4
  %28 = load i8, i8* %_11, align 1, !dbg !1753, !range !1416
  %29 = trunc i8 %28 to i1, !dbg !1753
  br i1 %29, label %bb7, label %bb6, !dbg !1753

bb6:                                              ; preds = %bb7, %bb5
  ret void, !dbg !1754

bb7:                                              ; preds = %bb5
  br label %bb6, !dbg !1753
}

; core::result::Result<T,E>::map_err
; Function Attrs: inlinehint nounwind
define void @"_ZN4core6result19Result$LT$T$C$E$GT$7map_err17h1e574e55636f0e12E"(%"std::result::Result<anchor_lang::prelude::AccountInfo, anchor_lang::error::Error>"* noalias nocapture sret(%"std::result::Result<anchor_lang::prelude::AccountInfo, anchor_lang::error::Error>") dereferenceable(176) %0, %"std::result::Result<anchor_lang::prelude::AccountInfo, anchor_lang::error::Error>"* noalias nocapture dereferenceable(176) %self) unnamed_addr #0 !dbg !1755 {
start:
  %op.dbg.spill = alloca %"[closure@/home/chinedum/.cargo/registry/src/github.com-1ecc6299db9ec823/anchor-spl-0.25.0/src/token.rs:269:10: 269:18]", align 1
  %_11 = alloca i8, align 1
  %_10 = alloca %"anchor_lang::error::Error", align 8
  %_9 = alloca { %"anchor_lang::error::Error" }, align 8
  %_7 = alloca %"anchor_lang::error::Error", align 8
  %e = alloca %"anchor_lang::error::Error", align 8
  %_5 = alloca %"anchor_lang::prelude::AccountInfo", align 8
  %t = alloca %"anchor_lang::prelude::AccountInfo", align 8
  call void @llvm.dbg.declare(metadata %"std::result::Result<anchor_lang::prelude::AccountInfo, anchor_lang::error::Error>"* %self, metadata !1762, metadata !DIExpression()), !dbg !1770
  call void @llvm.dbg.declare(metadata %"[closure@/home/chinedum/.cargo/registry/src/github.com-1ecc6299db9ec823/anchor-spl-0.25.0/src/token.rs:269:10: 269:18]"* %op.dbg.spill, metadata !1763, metadata !DIExpression()), !dbg !1771
  call void @llvm.dbg.declare(metadata %"anchor_lang::prelude::AccountInfo"* %t, metadata !1764, metadata !DIExpression()), !dbg !1772
  call void @llvm.dbg.declare(metadata %"anchor_lang::error::Error"* %e, metadata !1766, metadata !DIExpression()), !dbg !1773
  store i8 0, i8* %_11, align 1, !dbg !1774
  store i8 1, i8* %_11, align 1, !dbg !1774
  %1 = bitcast %"std::result::Result<anchor_lang::prelude::AccountInfo, anchor_lang::error::Error>"* %self to i64*, !dbg !1774
  %_3 = load i64, i64* %1, align 8, !dbg !1774, !range !1512
  switch i64 %_3, label %bb2 [
    i64 0, label %bb3
    i64 1, label %bb1
  ], !dbg !1775

bb2:                                              ; preds = %start
  unreachable, !dbg !1774

bb3:                                              ; preds = %start
  %2 = bitcast %"std::result::Result<anchor_lang::prelude::AccountInfo, anchor_lang::error::Error>"* %self to %"std::result::Result<anchor_lang::prelude::AccountInfo, anchor_lang::error::Error>::Ok"*, !dbg !1776
  %3 = getelementptr inbounds %"std::result::Result<anchor_lang::prelude::AccountInfo, anchor_lang::error::Error>::Ok", %"std::result::Result<anchor_lang::prelude::AccountInfo, anchor_lang::error::Error>::Ok"* %2, i32 0, i32 1, !dbg !1776
  %4 = bitcast %"anchor_lang::prelude::AccountInfo"* %t to i8*, !dbg !1776
  %5 = bitcast %"anchor_lang::prelude::AccountInfo"* %3 to i8*, !dbg !1776
  call void @llvm.memcpy.p0i8.p0i8.i64(i8* align 8 %4, i8* align 8 %5, i64 48, i1 false), !dbg !1776
  %6 = bitcast %"anchor_lang::prelude::AccountInfo"* %_5 to i8*, !dbg !1777
  %7 = bitcast %"anchor_lang::prelude::AccountInfo"* %t to i8*, !dbg !1777
  call void @llvm.memcpy.p0i8.p0i8.i64(i8* align 8 %6, i8* align 8 %7, i64 48, i1 false), !dbg !1777
  %8 = bitcast %"std::result::Result<anchor_lang::prelude::AccountInfo, anchor_lang::error::Error>"* %0 to %"std::result::Result<anchor_lang::prelude::AccountInfo, anchor_lang::error::Error>::Ok"*, !dbg !1778
  %9 = getelementptr inbounds %"std::result::Result<anchor_lang::prelude::AccountInfo, anchor_lang::error::Error>::Ok", %"std::result::Result<anchor_lang::prelude::AccountInfo, anchor_lang::error::Error>::Ok"* %8, i32 0, i32 1, !dbg !1778
  %10 = bitcast %"anchor_lang::prelude::AccountInfo"* %9 to i8*, !dbg !1778
  %11 = bitcast %"anchor_lang::prelude::AccountInfo"* %_5 to i8*, !dbg !1778
  call void @llvm.memcpy.p0i8.p0i8.i64(i8* align 8 %10, i8* align 8 %11, i64 48, i1 false), !dbg !1778
  %12 = bitcast %"std::result::Result<anchor_lang::prelude::AccountInfo, anchor_lang::error::Error>"* %0 to i64*, !dbg !1778
  store i64 0, i64* %12, align 8, !dbg !1778
  br label %bb5, !dbg !1779

bb1:                                              ; preds = %start
  %13 = bitcast %"std::result::Result<anchor_lang::prelude::AccountInfo, anchor_lang::error::Error>"* %self to %"std::result::Result<anchor_lang::prelude::AccountInfo, anchor_lang::error::Error>::Err"*, !dbg !1780
  %14 = getelementptr inbounds %"std::result::Result<anchor_lang::prelude::AccountInfo, anchor_lang::error::Error>::Err", %"std::result::Result<anchor_lang::prelude::AccountInfo, anchor_lang::error::Error>::Err"* %13, i32 0, i32 1, !dbg !1780
  %15 = bitcast %"anchor_lang::error::Error"* %e to i8*, !dbg !1780
  %16 = bitcast %"anchor_lang::error::Error"* %14 to i8*, !dbg !1780
  call void @llvm.memcpy.p0i8.p0i8.i64(i8* align 8 %15, i8* align 8 %16, i64 168, i1 false), !dbg !1780
  store i8 0, i8* %_11, align 1, !dbg !1781
  %17 = bitcast %"anchor_lang::error::Error"* %_10 to i8*, !dbg !1782
  %18 = bitcast %"anchor_lang::error::Error"* %e to i8*, !dbg !1782
  call void @llvm.memcpy.p0i8.p0i8.i64(i8* align 8 %17, i8* align 8 %18, i64 168, i1 false), !dbg !1782
  %19 = bitcast { %"anchor_lang::error::Error" }* %_9 to %"anchor_lang::error::Error"*, !dbg !1781
  %20 = bitcast %"anchor_lang::error::Error"* %19 to i8*, !dbg !1781
  %21 = bitcast %"anchor_lang::error::Error"* %_10 to i8*, !dbg !1781
  call void @llvm.memcpy.p0i8.p0i8.i64(i8* align 8 %20, i8* align 8 %21, i64 168, i1 false), !dbg !1781
  %22 = bitcast { %"anchor_lang::error::Error" }* %_9 to %"anchor_lang::error::Error"*, !dbg !1781
; call <anchor_spl::token::Transfer as anchor_lang::Accounts>::try_accounts::{{closure}}
  call void @"_ZN69_$LT$anchor_spl..token..Transfer$u20$as$u20$anchor_lang..Accounts$GT$12try_accounts28_$u7b$$u7b$closure$u7d$$u7d$17hea2ed581b1184829E"(%"anchor_lang::error::Error"* noalias nocapture sret(%"anchor_lang::error::Error") dereferenceable(168) %_7, %"anchor_lang::error::Error"* noalias nocapture dereferenceable(168) %22), !dbg !1781
  br label %bb4, !dbg !1781

bb4:                                              ; preds = %bb1
  %23 = bitcast %"std::result::Result<anchor_lang::prelude::AccountInfo, anchor_lang::error::Error>"* %0 to %"std::result::Result<anchor_lang::prelude::AccountInfo, anchor_lang::error::Error>::Err"*, !dbg !1783
  %24 = getelementptr inbounds %"std::result::Result<anchor_lang::prelude::AccountInfo, anchor_lang::error::Error>::Err", %"std::result::Result<anchor_lang::prelude::AccountInfo, anchor_lang::error::Error>::Err"* %23, i32 0, i32 1, !dbg !1783
  %25 = bitcast %"anchor_lang::error::Error"* %24 to i8*, !dbg !1783
  %26 = bitcast %"anchor_lang::error::Error"* %_7 to i8*, !dbg !1783
  call void @llvm.memcpy.p0i8.p0i8.i64(i8* align 8 %25, i8* align 8 %26, i64 168, i1 false), !dbg !1783
  %27 = bitcast %"std::result::Result<anchor_lang::prelude::AccountInfo, anchor_lang::error::Error>"* %0 to i64*, !dbg !1783
  store i64 1, i64* %27, align 8, !dbg !1783
  br label %bb5, !dbg !1784

bb5:                                              ; preds = %bb3, %bb4
  %28 = load i8, i8* %_11, align 1, !dbg !1785, !range !1416
  %29 = trunc i8 %28 to i1, !dbg !1785
  br i1 %29, label %bb7, label %bb6, !dbg !1785

bb6:                                              ; preds = %bb7, %bb5
  ret void, !dbg !1786

bb7:                                              ; preds = %bb5
  br label %bb6, !dbg !1785
}

; core::result::Result<T,E>::map_err
; Function Attrs: inlinehint nounwind
define void @"_ZN4core6result19Result$LT$T$C$E$GT$7map_err17h267374493d3c5587E"(%"std::result::Result<anchor_lang::prelude::AccountInfo, anchor_lang::error::Error>"* noalias nocapture sret(%"std::result::Result<anchor_lang::prelude::AccountInfo, anchor_lang::error::Error>") dereferenceable(176) %0, %"std::result::Result<anchor_lang::prelude::AccountInfo, anchor_lang::error::Error>"* noalias nocapture dereferenceable(176) %self) unnamed_addr #0 !dbg !1787 {
start:
  %op.dbg.spill = alloca %"[closure@/home/chinedum/.cargo/registry/src/github.com-1ecc6299db9ec823/anchor-spl-0.25.0/src/token.rs:290:10: 290:18].0", align 1
  %_11 = alloca i8, align 1
  %_10 = alloca %"anchor_lang::error::Error", align 8
  %_9 = alloca { %"anchor_lang::error::Error" }, align 8
  %_7 = alloca %"anchor_lang::error::Error", align 8
  %e = alloca %"anchor_lang::error::Error", align 8
  %_5 = alloca %"anchor_lang::prelude::AccountInfo", align 8
  %t = alloca %"anchor_lang::prelude::AccountInfo", align 8
  call void @llvm.dbg.declare(metadata %"std::result::Result<anchor_lang::prelude::AccountInfo, anchor_lang::error::Error>"* %self, metadata !1792, metadata !DIExpression()), !dbg !1800
  call void @llvm.dbg.declare(metadata %"[closure@/home/chinedum/.cargo/registry/src/github.com-1ecc6299db9ec823/anchor-spl-0.25.0/src/token.rs:290:10: 290:18].0"* %op.dbg.spill, metadata !1793, metadata !DIExpression()), !dbg !1801
  call void @llvm.dbg.declare(metadata %"anchor_lang::prelude::AccountInfo"* %t, metadata !1794, metadata !DIExpression()), !dbg !1802
  call void @llvm.dbg.declare(metadata %"anchor_lang::error::Error"* %e, metadata !1796, metadata !DIExpression()), !dbg !1803
  store i8 0, i8* %_11, align 1, !dbg !1804
  store i8 1, i8* %_11, align 1, !dbg !1804
  %1 = bitcast %"std::result::Result<anchor_lang::prelude::AccountInfo, anchor_lang::error::Error>"* %self to i64*, !dbg !1804
  %_3 = load i64, i64* %1, align 8, !dbg !1804, !range !1512
  switch i64 %_3, label %bb2 [
    i64 0, label %bb3
    i64 1, label %bb1
  ], !dbg !1805

bb2:                                              ; preds = %start
  unreachable, !dbg !1804

bb3:                                              ; preds = %start
  %2 = bitcast %"std::result::Result<anchor_lang::prelude::AccountInfo, anchor_lang::error::Error>"* %self to %"std::result::Result<anchor_lang::prelude::AccountInfo, anchor_lang::error::Error>::Ok"*, !dbg !1806
  %3 = getelementptr inbounds %"std::result::Result<anchor_lang::prelude::AccountInfo, anchor_lang::error::Error>::Ok", %"std::result::Result<anchor_lang::prelude::AccountInfo, anchor_lang::error::Error>::Ok"* %2, i32 0, i32 1, !dbg !1806
  %4 = bitcast %"anchor_lang::prelude::AccountInfo"* %t to i8*, !dbg !1806
  %5 = bitcast %"anchor_lang::prelude::AccountInfo"* %3 to i8*, !dbg !1806
  call void @llvm.memcpy.p0i8.p0i8.i64(i8* align 8 %4, i8* align 8 %5, i64 48, i1 false), !dbg !1806
  %6 = bitcast %"anchor_lang::prelude::AccountInfo"* %_5 to i8*, !dbg !1807
  %7 = bitcast %"anchor_lang::prelude::AccountInfo"* %t to i8*, !dbg !1807
  call void @llvm.memcpy.p0i8.p0i8.i64(i8* align 8 %6, i8* align 8 %7, i64 48, i1 false), !dbg !1807
  %8 = bitcast %"std::result::Result<anchor_lang::prelude::AccountInfo, anchor_lang::error::Error>"* %0 to %"std::result::Result<anchor_lang::prelude::AccountInfo, anchor_lang::error::Error>::Ok"*, !dbg !1808
  %9 = getelementptr inbounds %"std::result::Result<anchor_lang::prelude::AccountInfo, anchor_lang::error::Error>::Ok", %"std::result::Result<anchor_lang::prelude::AccountInfo, anchor_lang::error::Error>::Ok"* %8, i32 0, i32 1, !dbg !1808
  %10 = bitcast %"anchor_lang::prelude::AccountInfo"* %9 to i8*, !dbg !1808
  %11 = bitcast %"anchor_lang::prelude::AccountInfo"* %_5 to i8*, !dbg !1808
  call void @llvm.memcpy.p0i8.p0i8.i64(i8* align 8 %10, i8* align 8 %11, i64 48, i1 false), !dbg !1808
  %12 = bitcast %"std::result::Result<anchor_lang::prelude::AccountInfo, anchor_lang::error::Error>"* %0 to i64*, !dbg !1808
  store i64 0, i64* %12, align 8, !dbg !1808
  br label %bb5, !dbg !1809

bb1:                                              ; preds = %start
  %13 = bitcast %"std::result::Result<anchor_lang::prelude::AccountInfo, anchor_lang::error::Error>"* %self to %"std::result::Result<anchor_lang::prelude::AccountInfo, anchor_lang::error::Error>::Err"*, !dbg !1810
  %14 = getelementptr inbounds %"std::result::Result<anchor_lang::prelude::AccountInfo, anchor_lang::error::Error>::Err", %"std::result::Result<anchor_lang::prelude::AccountInfo, anchor_lang::error::Error>::Err"* %13, i32 0, i32 1, !dbg !1810
  %15 = bitcast %"anchor_lang::error::Error"* %e to i8*, !dbg !1810
  %16 = bitcast %"anchor_lang::error::Error"* %14 to i8*, !dbg !1810
  call void @llvm.memcpy.p0i8.p0i8.i64(i8* align 8 %15, i8* align 8 %16, i64 168, i1 false), !dbg !1810
  store i8 0, i8* %_11, align 1, !dbg !1811
  %17 = bitcast %"anchor_lang::error::Error"* %_10 to i8*, !dbg !1812
  %18 = bitcast %"anchor_lang::error::Error"* %e to i8*, !dbg !1812
  call void @llvm.memcpy.p0i8.p0i8.i64(i8* align 8 %17, i8* align 8 %18, i64 168, i1 false), !dbg !1812
  %19 = bitcast { %"anchor_lang::error::Error" }* %_9 to %"anchor_lang::error::Error"*, !dbg !1811
  %20 = bitcast %"anchor_lang::error::Error"* %19 to i8*, !dbg !1811
  %21 = bitcast %"anchor_lang::error::Error"* %_10 to i8*, !dbg !1811
  call void @llvm.memcpy.p0i8.p0i8.i64(i8* align 8 %20, i8* align 8 %21, i64 168, i1 false), !dbg !1811
  %22 = bitcast { %"anchor_lang::error::Error" }* %_9 to %"anchor_lang::error::Error"*, !dbg !1811
; call <anchor_spl::token::Approve as anchor_lang::Accounts>::try_accounts::{{closure}}
  call void @"_ZN68_$LT$anchor_spl..token..Approve$u20$as$u20$anchor_lang..Accounts$GT$12try_accounts28_$u7b$$u7b$closure$u7d$$u7d$17h7705178674f94b36E"(%"anchor_lang::error::Error"* noalias nocapture sret(%"anchor_lang::error::Error") dereferenceable(168) %_7, %"anchor_lang::error::Error"* noalias nocapture dereferenceable(168) %22), !dbg !1811
  br label %bb4, !dbg !1811

bb4:                                              ; preds = %bb1
  %23 = bitcast %"std::result::Result<anchor_lang::prelude::AccountInfo, anchor_lang::error::Error>"* %0 to %"std::result::Result<anchor_lang::prelude::AccountInfo, anchor_lang::error::Error>::Err"*, !dbg !1813
  %24 = getelementptr inbounds %"std::result::Result<anchor_lang::prelude::AccountInfo, anchor_lang::error::Error>::Err", %"std::result::Result<anchor_lang::prelude::AccountInfo, anchor_lang::error::Error>::Err"* %23, i32 0, i32 1, !dbg !1813
  %25 = bitcast %"anchor_lang::error::Error"* %24 to i8*, !dbg !1813
  %26 = bitcast %"anchor_lang::error::Error"* %_7 to i8*, !dbg !1813
  call void @llvm.memcpy.p0i8.p0i8.i64(i8* align 8 %25, i8* align 8 %26, i64 168, i1 false), !dbg !1813
  %27 = bitcast %"std::result::Result<anchor_lang::prelude::AccountInfo, anchor_lang::error::Error>"* %0 to i64*, !dbg !1813
  store i64 1, i64* %27, align 8, !dbg !1813
  br label %bb5, !dbg !1814

bb5:                                              ; preds = %bb3, %bb4
  %28 = load i8, i8* %_11, align 1, !dbg !1815, !range !1416
  %29 = trunc i8 %28 to i1, !dbg !1815
  br i1 %29, label %bb7, label %bb6, !dbg !1815

bb6:                                              ; preds = %bb7, %bb5
  ret void, !dbg !1816

bb7:                                              ; preds = %bb5
  br label %bb6, !dbg !1815
}

; core::result::Result<T,E>::map_err
; Function Attrs: inlinehint nounwind
define void @"_ZN4core6result19Result$LT$T$C$E$GT$7map_err17h2ee6a3116b7c9d45E"(%"std::result::Result<anchor_lang::prelude::AccountInfo, anchor_lang::error::Error>"* noalias nocapture sret(%"std::result::Result<anchor_lang::prelude::AccountInfo, anchor_lang::error::Error>") dereferenceable(176) %0, %"std::result::Result<anchor_lang::prelude::AccountInfo, anchor_lang::error::Error>"* noalias nocapture dereferenceable(176) %self) unnamed_addr #0 !dbg !1817 {
start:
  %op.dbg.spill = alloca %"[closure@/home/chinedum/.cargo/registry/src/github.com-1ecc6299db9ec823/anchor-spl-0.25.0/src/token.rs:318:10: 318:18]", align 1
  %_11 = alloca i8, align 1
  %_10 = alloca %"anchor_lang::error::Error", align 8
  %_9 = alloca { %"anchor_lang::error::Error" }, align 8
  %_7 = alloca %"anchor_lang::error::Error", align 8
  %e = alloca %"anchor_lang::error::Error", align 8
  %_5 = alloca %"anchor_lang::prelude::AccountInfo", align 8
  %t = alloca %"anchor_lang::prelude::AccountInfo", align 8
  call void @llvm.dbg.declare(metadata %"std::result::Result<anchor_lang::prelude::AccountInfo, anchor_lang::error::Error>"* %self, metadata !1824, metadata !DIExpression()), !dbg !1832
  call void @llvm.dbg.declare(metadata %"[closure@/home/chinedum/.cargo/registry/src/github.com-1ecc6299db9ec823/anchor-spl-0.25.0/src/token.rs:318:10: 318:18]"* %op.dbg.spill, metadata !1825, metadata !DIExpression()), !dbg !1833
  call void @llvm.dbg.declare(metadata %"anchor_lang::prelude::AccountInfo"* %t, metadata !1826, metadata !DIExpression()), !dbg !1834
  call void @llvm.dbg.declare(metadata %"anchor_lang::error::Error"* %e, metadata !1828, metadata !DIExpression()), !dbg !1835
  store i8 0, i8* %_11, align 1, !dbg !1836
  store i8 1, i8* %_11, align 1, !dbg !1836
  %1 = bitcast %"std::result::Result<anchor_lang::prelude::AccountInfo, anchor_lang::error::Error>"* %self to i64*, !dbg !1836
  %_3 = load i64, i64* %1, align 8, !dbg !1836, !range !1512
  switch i64 %_3, label %bb2 [
    i64 0, label %bb3
    i64 1, label %bb1
  ], !dbg !1837

bb2:                                              ; preds = %start
  unreachable, !dbg !1836

bb3:                                              ; preds = %start
  %2 = bitcast %"std::result::Result<anchor_lang::prelude::AccountInfo, anchor_lang::error::Error>"* %self to %"std::result::Result<anchor_lang::prelude::AccountInfo, anchor_lang::error::Error>::Ok"*, !dbg !1838
  %3 = getelementptr inbounds %"std::result::Result<anchor_lang::prelude::AccountInfo, anchor_lang::error::Error>::Ok", %"std::result::Result<anchor_lang::prelude::AccountInfo, anchor_lang::error::Error>::Ok"* %2, i32 0, i32 1, !dbg !1838
  %4 = bitcast %"anchor_lang::prelude::AccountInfo"* %t to i8*, !dbg !1838
  %5 = bitcast %"anchor_lang::prelude::AccountInfo"* %3 to i8*, !dbg !1838
  call void @llvm.memcpy.p0i8.p0i8.i64(i8* align 8 %4, i8* align 8 %5, i64 48, i1 false), !dbg !1838
  %6 = bitcast %"anchor_lang::prelude::AccountInfo"* %_5 to i8*, !dbg !1839
  %7 = bitcast %"anchor_lang::prelude::AccountInfo"* %t to i8*, !dbg !1839
  call void @llvm.memcpy.p0i8.p0i8.i64(i8* align 8 %6, i8* align 8 %7, i64 48, i1 false), !dbg !1839
  %8 = bitcast %"std::result::Result<anchor_lang::prelude::AccountInfo, anchor_lang::error::Error>"* %0 to %"std::result::Result<anchor_lang::prelude::AccountInfo, anchor_lang::error::Error>::Ok"*, !dbg !1840
  %9 = getelementptr inbounds %"std::result::Result<anchor_lang::prelude::AccountInfo, anchor_lang::error::Error>::Ok", %"std::result::Result<anchor_lang::prelude::AccountInfo, anchor_lang::error::Error>::Ok"* %8, i32 0, i32 1, !dbg !1840
  %10 = bitcast %"anchor_lang::prelude::AccountInfo"* %9 to i8*, !dbg !1840
  %11 = bitcast %"anchor_lang::prelude::AccountInfo"* %_5 to i8*, !dbg !1840
  call void @llvm.memcpy.p0i8.p0i8.i64(i8* align 8 %10, i8* align 8 %11, i64 48, i1 false), !dbg !1840
  %12 = bitcast %"std::result::Result<anchor_lang::prelude::AccountInfo, anchor_lang::error::Error>"* %0 to i64*, !dbg !1840
  store i64 0, i64* %12, align 8, !dbg !1840
  br label %bb5, !dbg !1841

bb1:                                              ; preds = %start
  %13 = bitcast %"std::result::Result<anchor_lang::prelude::AccountInfo, anchor_lang::error::Error>"* %self to %"std::result::Result<anchor_lang::prelude::AccountInfo, anchor_lang::error::Error>::Err"*, !dbg !1842
  %14 = getelementptr inbounds %"std::result::Result<anchor_lang::prelude::AccountInfo, anchor_lang::error::Error>::Err", %"std::result::Result<anchor_lang::prelude::AccountInfo, anchor_lang::error::Error>::Err"* %13, i32 0, i32 1, !dbg !1842
  %15 = bitcast %"anchor_lang::error::Error"* %e to i8*, !dbg !1842
  %16 = bitcast %"anchor_lang::error::Error"* %14 to i8*, !dbg !1842
  call void @llvm.memcpy.p0i8.p0i8.i64(i8* align 8 %15, i8* align 8 %16, i64 168, i1 false), !dbg !1842
  store i8 0, i8* %_11, align 1, !dbg !1843
  %17 = bitcast %"anchor_lang::error::Error"* %_10 to i8*, !dbg !1844
  %18 = bitcast %"anchor_lang::error::Error"* %e to i8*, !dbg !1844
  call void @llvm.memcpy.p0i8.p0i8.i64(i8* align 8 %17, i8* align 8 %18, i64 168, i1 false), !dbg !1844
  %19 = bitcast { %"anchor_lang::error::Error" }* %_9 to %"anchor_lang::error::Error"*, !dbg !1843
  %20 = bitcast %"anchor_lang::error::Error"* %19 to i8*, !dbg !1843
  %21 = bitcast %"anchor_lang::error::Error"* %_10 to i8*, !dbg !1843
  call void @llvm.memcpy.p0i8.p0i8.i64(i8* align 8 %20, i8* align 8 %21, i64 168, i1 false), !dbg !1843
  %22 = bitcast { %"anchor_lang::error::Error" }* %_9 to %"anchor_lang::error::Error"*, !dbg !1843
; call <anchor_spl::token::FreezeAccount as anchor_lang::Accounts>::try_accounts::{{closure}}
  call void @"_ZN74_$LT$anchor_spl..token..FreezeAccount$u20$as$u20$anchor_lang..Accounts$GT$12try_accounts28_$u7b$$u7b$closure$u7d$$u7d$17h93276d7a15e9e27aE"(%"anchor_lang::error::Error"* noalias nocapture sret(%"anchor_lang::error::Error") dereferenceable(168) %_7, %"anchor_lang::error::Error"* noalias nocapture dereferenceable(168) %22), !dbg !1843
  br label %bb4, !dbg !1843

bb4:                                              ; preds = %bb1
  %23 = bitcast %"std::result::Result<anchor_lang::prelude::AccountInfo, anchor_lang::error::Error>"* %0 to %"std::result::Result<anchor_lang::prelude::AccountInfo, anchor_lang::error::Error>::Err"*, !dbg !1845
  %24 = getelementptr inbounds %"std::result::Result<anchor_lang::prelude::AccountInfo, anchor_lang::error::Error>::Err", %"std::result::Result<anchor_lang::prelude::AccountInfo, anchor_lang::error::Error>::Err"* %23, i32 0, i32 1, !dbg !1845
  %25 = bitcast %"anchor_lang::error::Error"* %24 to i8*, !dbg !1845
  %26 = bitcast %"anchor_lang::error::Error"* %_7 to i8*, !dbg !1845
  call void @llvm.memcpy.p0i8.p0i8.i64(i8* align 8 %25, i8* align 8 %26, i64 168, i1 false), !dbg !1845
  %27 = bitcast %"std::result::Result<anchor_lang::prelude::AccountInfo, anchor_lang::error::Error>"* %0 to i64*, !dbg !1845
  store i64 1, i64* %27, align 8, !dbg !1845
  br label %bb5, !dbg !1846

bb5:                                              ; preds = %bb3, %bb4
  %28 = load i8, i8* %_11, align 1, !dbg !1847, !range !1416
  %29 = trunc i8 %28 to i1, !dbg !1847
  br i1 %29, label %bb7, label %bb6, !dbg !1847

bb6:                                              ; preds = %bb7, %bb5
  ret void, !dbg !1848

bb7:                                              ; preds = %bb5
  br label %bb6, !dbg !1847
}

; core::result::Result<T,E>::map_err
; Function Attrs: inlinehint nounwind
define void @"_ZN4core6result19Result$LT$T$C$E$GT$7map_err17h39468a5855a64681E"(%"std::result::Result<anchor_lang::prelude::AccountInfo, anchor_lang::error::Error>"* noalias nocapture sret(%"std::result::Result<anchor_lang::prelude::AccountInfo, anchor_lang::error::Error>") dereferenceable(176) %0, %"std::result::Result<anchor_lang::prelude::AccountInfo, anchor_lang::error::Error>"* noalias nocapture dereferenceable(176) %self) unnamed_addr #0 !dbg !1849 {
start:
  %op.dbg.spill = alloca %"[closure@/home/chinedum/.cargo/registry/src/github.com-1ecc6299db9ec823/anchor-spl-0.25.0/src/token.rs:303:10: 303:18]", align 1
  %_11 = alloca i8, align 1
  %_10 = alloca %"anchor_lang::error::Error", align 8
  %_9 = alloca { %"anchor_lang::error::Error" }, align 8
  %_7 = alloca %"anchor_lang::error::Error", align 8
  %e = alloca %"anchor_lang::error::Error", align 8
  %_5 = alloca %"anchor_lang::prelude::AccountInfo", align 8
  %t = alloca %"anchor_lang::prelude::AccountInfo", align 8
  call void @llvm.dbg.declare(metadata %"std::result::Result<anchor_lang::prelude::AccountInfo, anchor_lang::error::Error>"* %self, metadata !1856, metadata !DIExpression()), !dbg !1864
  call void @llvm.dbg.declare(metadata %"[closure@/home/chinedum/.cargo/registry/src/github.com-1ecc6299db9ec823/anchor-spl-0.25.0/src/token.rs:303:10: 303:18]"* %op.dbg.spill, metadata !1857, metadata !DIExpression()), !dbg !1865
  call void @llvm.dbg.declare(metadata %"anchor_lang::prelude::AccountInfo"* %t, metadata !1858, metadata !DIExpression()), !dbg !1866
  call void @llvm.dbg.declare(metadata %"anchor_lang::error::Error"* %e, metadata !1860, metadata !DIExpression()), !dbg !1867
  store i8 0, i8* %_11, align 1, !dbg !1868
  store i8 1, i8* %_11, align 1, !dbg !1868
  %1 = bitcast %"std::result::Result<anchor_lang::prelude::AccountInfo, anchor_lang::error::Error>"* %self to i64*, !dbg !1868
  %_3 = load i64, i64* %1, align 8, !dbg !1868, !range !1512
  switch i64 %_3, label %bb2 [
    i64 0, label %bb3
    i64 1, label %bb1
  ], !dbg !1869

bb2:                                              ; preds = %start
  unreachable, !dbg !1868

bb3:                                              ; preds = %start
  %2 = bitcast %"std::result::Result<anchor_lang::prelude::AccountInfo, anchor_lang::error::Error>"* %self to %"std::result::Result<anchor_lang::prelude::AccountInfo, anchor_lang::error::Error>::Ok"*, !dbg !1870
  %3 = getelementptr inbounds %"std::result::Result<anchor_lang::prelude::AccountInfo, anchor_lang::error::Error>::Ok", %"std::result::Result<anchor_lang::prelude::AccountInfo, anchor_lang::error::Error>::Ok"* %2, i32 0, i32 1, !dbg !1870
  %4 = bitcast %"anchor_lang::prelude::AccountInfo"* %t to i8*, !dbg !1870
  %5 = bitcast %"anchor_lang::prelude::AccountInfo"* %3 to i8*, !dbg !1870
  call void @llvm.memcpy.p0i8.p0i8.i64(i8* align 8 %4, i8* align 8 %5, i64 48, i1 false), !dbg !1870
  %6 = bitcast %"anchor_lang::prelude::AccountInfo"* %_5 to i8*, !dbg !1871
  %7 = bitcast %"anchor_lang::prelude::AccountInfo"* %t to i8*, !dbg !1871
  call void @llvm.memcpy.p0i8.p0i8.i64(i8* align 8 %6, i8* align 8 %7, i64 48, i1 false), !dbg !1871
  %8 = bitcast %"std::result::Result<anchor_lang::prelude::AccountInfo, anchor_lang::error::Error>"* %0 to %"std::result::Result<anchor_lang::prelude::AccountInfo, anchor_lang::error::Error>::Ok"*, !dbg !1872
  %9 = getelementptr inbounds %"std::result::Result<anchor_lang::prelude::AccountInfo, anchor_lang::error::Error>::Ok", %"std::result::Result<anchor_lang::prelude::AccountInfo, anchor_lang::error::Error>::Ok"* %8, i32 0, i32 1, !dbg !1872
  %10 = bitcast %"anchor_lang::prelude::AccountInfo"* %9 to i8*, !dbg !1872
  %11 = bitcast %"anchor_lang::prelude::AccountInfo"* %_5 to i8*, !dbg !1872
  call void @llvm.memcpy.p0i8.p0i8.i64(i8* align 8 %10, i8* align 8 %11, i64 48, i1 false), !dbg !1872
  %12 = bitcast %"std::result::Result<anchor_lang::prelude::AccountInfo, anchor_lang::error::Error>"* %0 to i64*, !dbg !1872
  store i64 0, i64* %12, align 8, !dbg !1872
  br label %bb5, !dbg !1873

bb1:                                              ; preds = %start
  %13 = bitcast %"std::result::Result<anchor_lang::prelude::AccountInfo, anchor_lang::error::Error>"* %self to %"std::result::Result<anchor_lang::prelude::AccountInfo, anchor_lang::error::Error>::Err"*, !dbg !1874
  %14 = getelementptr inbounds %"std::result::Result<anchor_lang::prelude::AccountInfo, anchor_lang::error::Error>::Err", %"std::result::Result<anchor_lang::prelude::AccountInfo, anchor_lang::error::Error>::Err"* %13, i32 0, i32 1, !dbg !1874
  %15 = bitcast %"anchor_lang::error::Error"* %e to i8*, !dbg !1874
  %16 = bitcast %"anchor_lang::error::Error"* %14 to i8*, !dbg !1874
  call void @llvm.memcpy.p0i8.p0i8.i64(i8* align 8 %15, i8* align 8 %16, i64 168, i1 false), !dbg !1874
  store i8 0, i8* %_11, align 1, !dbg !1875
  %17 = bitcast %"anchor_lang::error::Error"* %_10 to i8*, !dbg !1876
  %18 = bitcast %"anchor_lang::error::Error"* %e to i8*, !dbg !1876
  call void @llvm.memcpy.p0i8.p0i8.i64(i8* align 8 %17, i8* align 8 %18, i64 168, i1 false), !dbg !1876
  %19 = bitcast { %"anchor_lang::error::Error" }* %_9 to %"anchor_lang::error::Error"*, !dbg !1875
  %20 = bitcast %"anchor_lang::error::Error"* %19 to i8*, !dbg !1875
  %21 = bitcast %"anchor_lang::error::Error"* %_10 to i8*, !dbg !1875
  call void @llvm.memcpy.p0i8.p0i8.i64(i8* align 8 %20, i8* align 8 %21, i64 168, i1 false), !dbg !1875
  %22 = bitcast { %"anchor_lang::error::Error" }* %_9 to %"anchor_lang::error::Error"*, !dbg !1875
; call <anchor_spl::token::InitializeAccount as anchor_lang::Accounts>::try_accounts::{{closure}}
  call void @"_ZN78_$LT$anchor_spl..token..InitializeAccount$u20$as$u20$anchor_lang..Accounts$GT$12try_accounts28_$u7b$$u7b$closure$u7d$$u7d$17h5ca7915b8123c50aE"(%"anchor_lang::error::Error"* noalias nocapture sret(%"anchor_lang::error::Error") dereferenceable(168) %_7, %"anchor_lang::error::Error"* noalias nocapture dereferenceable(168) %22), !dbg !1875
  br label %bb4, !dbg !1875

bb4:                                              ; preds = %bb1
  %23 = bitcast %"std::result::Result<anchor_lang::prelude::AccountInfo, anchor_lang::error::Error>"* %0 to %"std::result::Result<anchor_lang::prelude::AccountInfo, anchor_lang::error::Error>::Err"*, !dbg !1877
  %24 = getelementptr inbounds %"std::result::Result<anchor_lang::prelude::AccountInfo, anchor_lang::error::Error>::Err", %"std::result::Result<anchor_lang::prelude::AccountInfo, anchor_lang::error::Error>::Err"* %23, i32 0, i32 1, !dbg !1877
  %25 = bitcast %"anchor_lang::error::Error"* %24 to i8*, !dbg !1877
  %26 = bitcast %"anchor_lang::error::Error"* %_7 to i8*, !dbg !1877
  call void @llvm.memcpy.p0i8.p0i8.i64(i8* align 8 %25, i8* align 8 %26, i64 168, i1 false), !dbg !1877
  %27 = bitcast %"std::result::Result<anchor_lang::prelude::AccountInfo, anchor_lang::error::Error>"* %0 to i64*, !dbg !1877
  store i64 1, i64* %27, align 8, !dbg !1877
  br label %bb5, !dbg !1878

bb5:                                              ; preds = %bb3, %bb4
  %28 = load i8, i8* %_11, align 1, !dbg !1879, !range !1416
  %29 = trunc i8 %28 to i1, !dbg !1879
  br i1 %29, label %bb7, label %bb6, !dbg !1879

bb6:                                              ; preds = %bb7, %bb5
  ret void, !dbg !1880

bb7:                                              ; preds = %bb5
  br label %bb6, !dbg !1879
}

; core::result::Result<T,E>::map_err
; Function Attrs: inlinehint nounwind
define void @"_ZN4core6result19Result$LT$T$C$E$GT$7map_err17h3eec447efd212905E"(%"std::result::Result<token::Mint, anchor_lang::error::Error>"* noalias nocapture sret(%"std::result::Result<token::Mint, anchor_lang::error::Error>") dereferenceable(176) %0, %"std::result::Result<token::Mint, anchor_lang::prelude::ProgramError>"* noalias nocapture dereferenceable(96) %self) unnamed_addr #0 !dbg !1881 {
start:
  %op.dbg.spill = alloca {}, align 1
  %_11 = alloca i8, align 1
  %_10 = alloca %"anchor_lang::prelude::ProgramError", align 8
  %_9 = alloca { %"anchor_lang::prelude::ProgramError" }, align 8
  %_7 = alloca %"anchor_lang::error::Error", align 8
  %e = alloca %"anchor_lang::prelude::ProgramError", align 8
  %_5 = alloca %"token::Mint", align 8
  %t = alloca %"token::Mint", align 8
  call void @llvm.dbg.declare(metadata %"std::result::Result<token::Mint, anchor_lang::prelude::ProgramError>"* %self, metadata !1898, metadata !DIExpression()), !dbg !1906
  call void @llvm.dbg.declare(metadata {}* %op.dbg.spill, metadata !1899, metadata !DIExpression()), !dbg !1907
  call void @llvm.dbg.declare(metadata %"token::Mint"* %t, metadata !1900, metadata !DIExpression()), !dbg !1908
  call void @llvm.dbg.declare(metadata %"anchor_lang::prelude::ProgramError"* %e, metadata !1902, metadata !DIExpression()), !dbg !1909
  store i8 0, i8* %_11, align 1, !dbg !1910
  store i8 1, i8* %_11, align 1, !dbg !1910
  %1 = bitcast %"std::result::Result<token::Mint, anchor_lang::prelude::ProgramError>"* %self to i64*, !dbg !1910
  %_3 = load i64, i64* %1, align 8, !dbg !1910, !range !1512
  switch i64 %_3, label %bb2 [
    i64 0, label %bb3
    i64 1, label %bb1
  ], !dbg !1911

bb2:                                              ; preds = %start
  unreachable, !dbg !1910

bb3:                                              ; preds = %start
  %2 = bitcast %"std::result::Result<token::Mint, anchor_lang::prelude::ProgramError>"* %self to %"std::result::Result<token::Mint, anchor_lang::prelude::ProgramError>::Ok"*, !dbg !1912
  %3 = getelementptr inbounds %"std::result::Result<token::Mint, anchor_lang::prelude::ProgramError>::Ok", %"std::result::Result<token::Mint, anchor_lang::prelude::ProgramError>::Ok"* %2, i32 0, i32 1, !dbg !1912
  %4 = bitcast %"token::Mint"* %t to i8*, !dbg !1912
  %5 = bitcast %"token::Mint"* %3 to i8*, !dbg !1912
  call void @llvm.memcpy.p0i8.p0i8.i64(i8* align 8 %4, i8* align 8 %5, i64 88, i1 false), !dbg !1912
  %6 = bitcast %"token::Mint"* %_5 to i8*, !dbg !1913
  %7 = bitcast %"token::Mint"* %t to i8*, !dbg !1913
  call void @llvm.memcpy.p0i8.p0i8.i64(i8* align 8 %6, i8* align 8 %7, i64 88, i1 false), !dbg !1913
  %8 = bitcast %"std::result::Result<token::Mint, anchor_lang::error::Error>"* %0 to %"std::result::Result<token::Mint, anchor_lang::error::Error>::Ok"*, !dbg !1914
  %9 = getelementptr inbounds %"std::result::Result<token::Mint, anchor_lang::error::Error>::Ok", %"std::result::Result<token::Mint, anchor_lang::error::Error>::Ok"* %8, i32 0, i32 1, !dbg !1914
  %10 = bitcast %"token::Mint"* %9 to i8*, !dbg !1914
  %11 = bitcast %"token::Mint"* %_5 to i8*, !dbg !1914
  call void @llvm.memcpy.p0i8.p0i8.i64(i8* align 8 %10, i8* align 8 %11, i64 88, i1 false), !dbg !1914
  %12 = bitcast %"std::result::Result<token::Mint, anchor_lang::error::Error>"* %0 to i64*, !dbg !1914
  store i64 0, i64* %12, align 8, !dbg !1914
  br label %bb5, !dbg !1915

bb1:                                              ; preds = %start
  %13 = bitcast %"std::result::Result<token::Mint, anchor_lang::prelude::ProgramError>"* %self to %"std::result::Result<token::Mint, anchor_lang::prelude::ProgramError>::Err"*, !dbg !1916
  %14 = getelementptr inbounds %"std::result::Result<token::Mint, anchor_lang::prelude::ProgramError>::Err", %"std::result::Result<token::Mint, anchor_lang::prelude::ProgramError>::Err"* %13, i32 0, i32 1, !dbg !1916
  %15 = bitcast %"anchor_lang::prelude::ProgramError"* %e to i8*, !dbg !1916
  %16 = bitcast %"anchor_lang::prelude::ProgramError"* %14 to i8*, !dbg !1916
  call void @llvm.memcpy.p0i8.p0i8.i64(i8* align 8 %15, i8* align 8 %16, i64 32, i1 false), !dbg !1916
  store i8 0, i8* %_11, align 1, !dbg !1917
  %17 = bitcast %"anchor_lang::prelude::ProgramError"* %_10 to i8*, !dbg !1918
  %18 = bitcast %"anchor_lang::prelude::ProgramError"* %e to i8*, !dbg !1918
  call void @llvm.memcpy.p0i8.p0i8.i64(i8* align 8 %17, i8* align 8 %18, i64 32, i1 false), !dbg !1918
  %19 = bitcast { %"anchor_lang::prelude::ProgramError" }* %_9 to %"anchor_lang::prelude::ProgramError"*, !dbg !1917
  %20 = bitcast %"anchor_lang::prelude::ProgramError"* %19 to i8*, !dbg !1917
  %21 = bitcast %"anchor_lang::prelude::ProgramError"* %_10 to i8*, !dbg !1917
  call void @llvm.memcpy.p0i8.p0i8.i64(i8* align 8 %20, i8* align 8 %21, i64 32, i1 false), !dbg !1917
  %22 = bitcast { %"anchor_lang::prelude::ProgramError" }* %_9 to %"anchor_lang::prelude::ProgramError"*, !dbg !1917
; call core::ops::function::FnOnce::call_once
  call void @_ZN4core3ops8function6FnOnce9call_once17h3ae31c3536f71eacE(%"anchor_lang::error::Error"* noalias nocapture sret(%"anchor_lang::error::Error") dereferenceable(168) %_7, %"anchor_lang::prelude::ProgramError"* noalias nocapture dereferenceable(32) %22), !dbg !1917
  br label %bb4, !dbg !1917

bb4:                                              ; preds = %bb1
  %23 = bitcast %"std::result::Result<token::Mint, anchor_lang::error::Error>"* %0 to %"std::result::Result<token::Mint, anchor_lang::error::Error>::Err"*, !dbg !1919
  %24 = getelementptr inbounds %"std::result::Result<token::Mint, anchor_lang::error::Error>::Err", %"std::result::Result<token::Mint, anchor_lang::error::Error>::Err"* %23, i32 0, i32 1, !dbg !1919
  %25 = bitcast %"anchor_lang::error::Error"* %24 to i8*, !dbg !1919
  %26 = bitcast %"anchor_lang::error::Error"* %_7 to i8*, !dbg !1919
  call void @llvm.memcpy.p0i8.p0i8.i64(i8* align 8 %25, i8* align 8 %26, i64 168, i1 false), !dbg !1919
  %27 = bitcast %"std::result::Result<token::Mint, anchor_lang::error::Error>"* %0 to i64*, !dbg !1919
  store i64 1, i64* %27, align 8, !dbg !1919
  br label %bb5, !dbg !1920

bb5:                                              ; preds = %bb3, %bb4
  %28 = load i8, i8* %_11, align 1, !dbg !1921, !range !1416
  %29 = trunc i8 %28 to i1, !dbg !1921
  br i1 %29, label %bb7, label %bb6, !dbg !1921

bb6:                                              ; preds = %bb7, %bb5
  ret void, !dbg !1922

bb7:                                              ; preds = %bb5
  br label %bb6, !dbg !1921
}

; core::result::Result<T,E>::map_err
; Function Attrs: inlinehint nounwind
define void @"_ZN4core6result19Result$LT$T$C$E$GT$7map_err17h49d8c1f3b536e0bbE"(%"std::result::Result<anchor_lang::prelude::AccountInfo, anchor_lang::error::Error>"* noalias nocapture sret(%"std::result::Result<anchor_lang::prelude::AccountInfo, anchor_lang::error::Error>") dereferenceable(176) %0, %"std::result::Result<anchor_lang::prelude::AccountInfo, anchor_lang::error::Error>"* noalias nocapture dereferenceable(176) %self) unnamed_addr #0 !dbg !1923 {
start:
  %op.dbg.spill = alloca %"[closure@/home/chinedum/.cargo/registry/src/github.com-1ecc6299db9ec823/anchor-spl-0.25.0/src/associated_token.rs:30:10: 30:18].1", align 1
  %_11 = alloca i8, align 1
  %_10 = alloca %"anchor_lang::error::Error", align 8
  %_9 = alloca { %"anchor_lang::error::Error" }, align 8
  %_7 = alloca %"anchor_lang::error::Error", align 8
  %e = alloca %"anchor_lang::error::Error", align 8
  %_5 = alloca %"anchor_lang::prelude::AccountInfo", align 8
  %t = alloca %"anchor_lang::prelude::AccountInfo", align 8
  call void @llvm.dbg.declare(metadata %"std::result::Result<anchor_lang::prelude::AccountInfo, anchor_lang::error::Error>"* %self, metadata !1928, metadata !DIExpression()), !dbg !1936
  call void @llvm.dbg.declare(metadata %"[closure@/home/chinedum/.cargo/registry/src/github.com-1ecc6299db9ec823/anchor-spl-0.25.0/src/associated_token.rs:30:10: 30:18].1"* %op.dbg.spill, metadata !1929, metadata !DIExpression()), !dbg !1937
  call void @llvm.dbg.declare(metadata %"anchor_lang::prelude::AccountInfo"* %t, metadata !1930, metadata !DIExpression()), !dbg !1938
  call void @llvm.dbg.declare(metadata %"anchor_lang::error::Error"* %e, metadata !1932, metadata !DIExpression()), !dbg !1939
  store i8 0, i8* %_11, align 1, !dbg !1940
  store i8 1, i8* %_11, align 1, !dbg !1940
  %1 = bitcast %"std::result::Result<anchor_lang::prelude::AccountInfo, anchor_lang::error::Error>"* %self to i64*, !dbg !1940
  %_3 = load i64, i64* %1, align 8, !dbg !1940, !range !1512
  switch i64 %_3, label %bb2 [
    i64 0, label %bb3
    i64 1, label %bb1
  ], !dbg !1941

bb2:                                              ; preds = %start
  unreachable, !dbg !1940

bb3:                                              ; preds = %start
  %2 = bitcast %"std::result::Result<anchor_lang::prelude::AccountInfo, anchor_lang::error::Error>"* %self to %"std::result::Result<anchor_lang::prelude::AccountInfo, anchor_lang::error::Error>::Ok"*, !dbg !1942
  %3 = getelementptr inbounds %"std::result::Result<anchor_lang::prelude::AccountInfo, anchor_lang::error::Error>::Ok", %"std::result::Result<anchor_lang::prelude::AccountInfo, anchor_lang::error::Error>::Ok"* %2, i32 0, i32 1, !dbg !1942
  %4 = bitcast %"anchor_lang::prelude::AccountInfo"* %t to i8*, !dbg !1942
  %5 = bitcast %"anchor_lang::prelude::AccountInfo"* %3 to i8*, !dbg !1942
  call void @llvm.memcpy.p0i8.p0i8.i64(i8* align 8 %4, i8* align 8 %5, i64 48, i1 false), !dbg !1942
  %6 = bitcast %"anchor_lang::prelude::AccountInfo"* %_5 to i8*, !dbg !1943
  %7 = bitcast %"anchor_lang::prelude::AccountInfo"* %t to i8*, !dbg !1943
  call void @llvm.memcpy.p0i8.p0i8.i64(i8* align 8 %6, i8* align 8 %7, i64 48, i1 false), !dbg !1943
  %8 = bitcast %"std::result::Result<anchor_lang::prelude::AccountInfo, anchor_lang::error::Error>"* %0 to %"std::result::Result<anchor_lang::prelude::AccountInfo, anchor_lang::error::Error>::Ok"*, !dbg !1944
  %9 = getelementptr inbounds %"std::result::Result<anchor_lang::prelude::AccountInfo, anchor_lang::error::Error>::Ok", %"std::result::Result<anchor_lang::prelude::AccountInfo, anchor_lang::error::Error>::Ok"* %8, i32 0, i32 1, !dbg !1944
  %10 = bitcast %"anchor_lang::prelude::AccountInfo"* %9 to i8*, !dbg !1944
  %11 = bitcast %"anchor_lang::prelude::AccountInfo"* %_5 to i8*, !dbg !1944
  call void @llvm.memcpy.p0i8.p0i8.i64(i8* align 8 %10, i8* align 8 %11, i64 48, i1 false), !dbg !1944
  %12 = bitcast %"std::result::Result<anchor_lang::prelude::AccountInfo, anchor_lang::error::Error>"* %0 to i64*, !dbg !1944
  store i64 0, i64* %12, align 8, !dbg !1944
  br label %bb5, !dbg !1945

bb1:                                              ; preds = %start
  %13 = bitcast %"std::result::Result<anchor_lang::prelude::AccountInfo, anchor_lang::error::Error>"* %self to %"std::result::Result<anchor_lang::prelude::AccountInfo, anchor_lang::error::Error>::Err"*, !dbg !1946
  %14 = getelementptr inbounds %"std::result::Result<anchor_lang::prelude::AccountInfo, anchor_lang::error::Error>::Err", %"std::result::Result<anchor_lang::prelude::AccountInfo, anchor_lang::error::Error>::Err"* %13, i32 0, i32 1, !dbg !1946
  %15 = bitcast %"anchor_lang::error::Error"* %e to i8*, !dbg !1946
  %16 = bitcast %"anchor_lang::error::Error"* %14 to i8*, !dbg !1946
  call void @llvm.memcpy.p0i8.p0i8.i64(i8* align 8 %15, i8* align 8 %16, i64 168, i1 false), !dbg !1946
  store i8 0, i8* %_11, align 1, !dbg !1947
  %17 = bitcast %"anchor_lang::error::Error"* %_10 to i8*, !dbg !1948
  %18 = bitcast %"anchor_lang::error::Error"* %e to i8*, !dbg !1948
  call void @llvm.memcpy.p0i8.p0i8.i64(i8* align 8 %17, i8* align 8 %18, i64 168, i1 false), !dbg !1948
  %19 = bitcast { %"anchor_lang::error::Error" }* %_9 to %"anchor_lang::error::Error"*, !dbg !1947
  %20 = bitcast %"anchor_lang::error::Error"* %19 to i8*, !dbg !1947
  %21 = bitcast %"anchor_lang::error::Error"* %_10 to i8*, !dbg !1947
  call void @llvm.memcpy.p0i8.p0i8.i64(i8* align 8 %20, i8* align 8 %21, i64 168, i1 false), !dbg !1947
  %22 = bitcast { %"anchor_lang::error::Error" }* %_9 to %"anchor_lang::error::Error"*, !dbg !1947
; call <anchor_spl::associated_token::Create as anchor_lang::Accounts>::try_accounts::{{closure}}
  call void @"_ZN78_$LT$anchor_spl..associated_token..Create$u20$as$u20$anchor_lang..Accounts$GT$12try_accounts28_$u7b$$u7b$closure$u7d$$u7d$17hedee94648bcf81faE"(%"anchor_lang::error::Error"* noalias nocapture sret(%"anchor_lang::error::Error") dereferenceable(168) %_7, %"anchor_lang::error::Error"* noalias nocapture dereferenceable(168) %22), !dbg !1947
  br label %bb4, !dbg !1947

bb4:                                              ; preds = %bb1
  %23 = bitcast %"std::result::Result<anchor_lang::prelude::AccountInfo, anchor_lang::error::Error>"* %0 to %"std::result::Result<anchor_lang::prelude::AccountInfo, anchor_lang::error::Error>::Err"*, !dbg !1949
  %24 = getelementptr inbounds %"std::result::Result<anchor_lang::prelude::AccountInfo, anchor_lang::error::Error>::Err", %"std::result::Result<anchor_lang::prelude::AccountInfo, anchor_lang::error::Error>::Err"* %23, i32 0, i32 1, !dbg !1949
  %25 = bitcast %"anchor_lang::error::Error"* %24 to i8*, !dbg !1949
  %26 = bitcast %"anchor_lang::error::Error"* %_7 to i8*, !dbg !1949
  call void @llvm.memcpy.p0i8.p0i8.i64(i8* align 8 %25, i8* align 8 %26, i64 168, i1 false), !dbg !1949
  %27 = bitcast %"std::result::Result<anchor_lang::prelude::AccountInfo, anchor_lang::error::Error>"* %0 to i64*, !dbg !1949
  store i64 1, i64* %27, align 8, !dbg !1949
  br label %bb5, !dbg !1950

bb5:                                              ; preds = %bb3, %bb4
  %28 = load i8, i8* %_11, align 1, !dbg !1951, !range !1416
  %29 = trunc i8 %28 to i1, !dbg !1951
  br i1 %29, label %bb7, label %bb6, !dbg !1951

bb6:                                              ; preds = %bb7, %bb5
  ret void, !dbg !1952

bb7:                                              ; preds = %bb5
  br label %bb6, !dbg !1951
}

; core::result::Result<T,E>::map_err
; Function Attrs: inlinehint nounwind
define void @"_ZN4core6result19Result$LT$T$C$E$GT$7map_err17h587c7fd65e4925dbE"(%"std::result::Result<anchor_lang::prelude::AccountInfo, anchor_lang::error::Error>"* noalias nocapture sret(%"std::result::Result<anchor_lang::prelude::AccountInfo, anchor_lang::error::Error>") dereferenceable(176) %0, %"std::result::Result<anchor_lang::prelude::AccountInfo, anchor_lang::error::Error>"* noalias nocapture dereferenceable(176) %self) unnamed_addr #0 !dbg !1953 {
start:
  %op.dbg.spill = alloca %"[closure@/home/chinedum/.cargo/registry/src/github.com-1ecc6299db9ec823/anchor-spl-0.25.0/src/token.rs:276:10: 276:18]", align 1
  %_11 = alloca i8, align 1
  %_10 = alloca %"anchor_lang::error::Error", align 8
  %_9 = alloca { %"anchor_lang::error::Error" }, align 8
  %_7 = alloca %"anchor_lang::error::Error", align 8
  %e = alloca %"anchor_lang::error::Error", align 8
  %_5 = alloca %"anchor_lang::prelude::AccountInfo", align 8
  %t = alloca %"anchor_lang::prelude::AccountInfo", align 8
  call void @llvm.dbg.declare(metadata %"std::result::Result<anchor_lang::prelude::AccountInfo, anchor_lang::error::Error>"* %self, metadata !1960, metadata !DIExpression()), !dbg !1968
  call void @llvm.dbg.declare(metadata %"[closure@/home/chinedum/.cargo/registry/src/github.com-1ecc6299db9ec823/anchor-spl-0.25.0/src/token.rs:276:10: 276:18]"* %op.dbg.spill, metadata !1961, metadata !DIExpression()), !dbg !1969
  call void @llvm.dbg.declare(metadata %"anchor_lang::prelude::AccountInfo"* %t, metadata !1962, metadata !DIExpression()), !dbg !1970
  call void @llvm.dbg.declare(metadata %"anchor_lang::error::Error"* %e, metadata !1964, metadata !DIExpression()), !dbg !1971
  store i8 0, i8* %_11, align 1, !dbg !1972
  store i8 1, i8* %_11, align 1, !dbg !1972
  %1 = bitcast %"std::result::Result<anchor_lang::prelude::AccountInfo, anchor_lang::error::Error>"* %self to i64*, !dbg !1972
  %_3 = load i64, i64* %1, align 8, !dbg !1972, !range !1512
  switch i64 %_3, label %bb2 [
    i64 0, label %bb3
    i64 1, label %bb1
  ], !dbg !1973

bb2:                                              ; preds = %start
  unreachable, !dbg !1972

bb3:                                              ; preds = %start
  %2 = bitcast %"std::result::Result<anchor_lang::prelude::AccountInfo, anchor_lang::error::Error>"* %self to %"std::result::Result<anchor_lang::prelude::AccountInfo, anchor_lang::error::Error>::Ok"*, !dbg !1974
  %3 = getelementptr inbounds %"std::result::Result<anchor_lang::prelude::AccountInfo, anchor_lang::error::Error>::Ok", %"std::result::Result<anchor_lang::prelude::AccountInfo, anchor_lang::error::Error>::Ok"* %2, i32 0, i32 1, !dbg !1974
  %4 = bitcast %"anchor_lang::prelude::AccountInfo"* %t to i8*, !dbg !1974
  %5 = bitcast %"anchor_lang::prelude::AccountInfo"* %3 to i8*, !dbg !1974
  call void @llvm.memcpy.p0i8.p0i8.i64(i8* align 8 %4, i8* align 8 %5, i64 48, i1 false), !dbg !1974
  %6 = bitcast %"anchor_lang::prelude::AccountInfo"* %_5 to i8*, !dbg !1975
  %7 = bitcast %"anchor_lang::prelude::AccountInfo"* %t to i8*, !dbg !1975
  call void @llvm.memcpy.p0i8.p0i8.i64(i8* align 8 %6, i8* align 8 %7, i64 48, i1 false), !dbg !1975
  %8 = bitcast %"std::result::Result<anchor_lang::prelude::AccountInfo, anchor_lang::error::Error>"* %0 to %"std::result::Result<anchor_lang::prelude::AccountInfo, anchor_lang::error::Error>::Ok"*, !dbg !1976
  %9 = getelementptr inbounds %"std::result::Result<anchor_lang::prelude::AccountInfo, anchor_lang::error::Error>::Ok", %"std::result::Result<anchor_lang::prelude::AccountInfo, anchor_lang::error::Error>::Ok"* %8, i32 0, i32 1, !dbg !1976
  %10 = bitcast %"anchor_lang::prelude::AccountInfo"* %9 to i8*, !dbg !1976
  %11 = bitcast %"anchor_lang::prelude::AccountInfo"* %_5 to i8*, !dbg !1976
  call void @llvm.memcpy.p0i8.p0i8.i64(i8* align 8 %10, i8* align 8 %11, i64 48, i1 false), !dbg !1976
  %12 = bitcast %"std::result::Result<anchor_lang::prelude::AccountInfo, anchor_lang::error::Error>"* %0 to i64*, !dbg !1976
  store i64 0, i64* %12, align 8, !dbg !1976
  br label %bb5, !dbg !1977

bb1:                                              ; preds = %start
  %13 = bitcast %"std::result::Result<anchor_lang::prelude::AccountInfo, anchor_lang::error::Error>"* %self to %"std::result::Result<anchor_lang::prelude::AccountInfo, anchor_lang::error::Error>::Err"*, !dbg !1978
  %14 = getelementptr inbounds %"std::result::Result<anchor_lang::prelude::AccountInfo, anchor_lang::error::Error>::Err", %"std::result::Result<anchor_lang::prelude::AccountInfo, anchor_lang::error::Error>::Err"* %13, i32 0, i32 1, !dbg !1978
  %15 = bitcast %"anchor_lang::error::Error"* %e to i8*, !dbg !1978
  %16 = bitcast %"anchor_lang::error::Error"* %14 to i8*, !dbg !1978
  call void @llvm.memcpy.p0i8.p0i8.i64(i8* align 8 %15, i8* align 8 %16, i64 168, i1 false), !dbg !1978
  store i8 0, i8* %_11, align 1, !dbg !1979
  %17 = bitcast %"anchor_lang::error::Error"* %_10 to i8*, !dbg !1980
  %18 = bitcast %"anchor_lang::error::Error"* %e to i8*, !dbg !1980
  call void @llvm.memcpy.p0i8.p0i8.i64(i8* align 8 %17, i8* align 8 %18, i64 168, i1 false), !dbg !1980
  %19 = bitcast { %"anchor_lang::error::Error" }* %_9 to %"anchor_lang::error::Error"*, !dbg !1979
  %20 = bitcast %"anchor_lang::error::Error"* %19 to i8*, !dbg !1979
  %21 = bitcast %"anchor_lang::error::Error"* %_10 to i8*, !dbg !1979
  call void @llvm.memcpy.p0i8.p0i8.i64(i8* align 8 %20, i8* align 8 %21, i64 168, i1 false), !dbg !1979
  %22 = bitcast { %"anchor_lang::error::Error" }* %_9 to %"anchor_lang::error::Error"*, !dbg !1979
; call <anchor_spl::token::MintTo as anchor_lang::Accounts>::try_accounts::{{closure}}
  call void @"_ZN67_$LT$anchor_spl..token..MintTo$u20$as$u20$anchor_lang..Accounts$GT$12try_accounts28_$u7b$$u7b$closure$u7d$$u7d$17h4dbbc431738f3557E"(%"anchor_lang::error::Error"* noalias nocapture sret(%"anchor_lang::error::Error") dereferenceable(168) %_7, %"anchor_lang::error::Error"* noalias nocapture dereferenceable(168) %22), !dbg !1979
  br label %bb4, !dbg !1979

bb4:                                              ; preds = %bb1
  %23 = bitcast %"std::result::Result<anchor_lang::prelude::AccountInfo, anchor_lang::error::Error>"* %0 to %"std::result::Result<anchor_lang::prelude::AccountInfo, anchor_lang::error::Error>::Err"*, !dbg !1981
  %24 = getelementptr inbounds %"std::result::Result<anchor_lang::prelude::AccountInfo, anchor_lang::error::Error>::Err", %"std::result::Result<anchor_lang::prelude::AccountInfo, anchor_lang::error::Error>::Err"* %23, i32 0, i32 1, !dbg !1981
  %25 = bitcast %"anchor_lang::error::Error"* %24 to i8*, !dbg !1981
  %26 = bitcast %"anchor_lang::error::Error"* %_7 to i8*, !dbg !1981
  call void @llvm.memcpy.p0i8.p0i8.i64(i8* align 8 %25, i8* align 8 %26, i64 168, i1 false), !dbg !1981
  %27 = bitcast %"std::result::Result<anchor_lang::prelude::AccountInfo, anchor_lang::error::Error>"* %0 to i64*, !dbg !1981
  store i64 1, i64* %27, align 8, !dbg !1981
  br label %bb5, !dbg !1982

bb5:                                              ; preds = %bb3, %bb4
  %28 = load i8, i8* %_11, align 1, !dbg !1983, !range !1416
  %29 = trunc i8 %28 to i1, !dbg !1983
  br i1 %29, label %bb7, label %bb6, !dbg !1983

bb6:                                              ; preds = %bb7, %bb5
  ret void, !dbg !1984

bb7:                                              ; preds = %bb5
  br label %bb6, !dbg !1983
}

; core::result::Result<T,E>::map_err
; Function Attrs: inlinehint nounwind
define void @"_ZN4core6result19Result$LT$T$C$E$GT$7map_err17h5ff1f1c131ae7f9fE"(%"std::result::Result<anchor_lang::prelude::AccountInfo, anchor_lang::error::Error>"* noalias nocapture sret(%"std::result::Result<anchor_lang::prelude::AccountInfo, anchor_lang::error::Error>") dereferenceable(176) %0, %"std::result::Result<anchor_lang::prelude::AccountInfo, anchor_lang::error::Error>"* noalias nocapture dereferenceable(176) %self) unnamed_addr #0 !dbg !1985 {
start:
  %op.dbg.spill = alloca %"[closure@/home/chinedum/.cargo/registry/src/github.com-1ecc6299db9ec823/anchor-spl-0.25.0/src/token.rs:332:10: 332:18].2", align 1
  %_11 = alloca i8, align 1
  %_10 = alloca %"anchor_lang::error::Error", align 8
  %_9 = alloca { %"anchor_lang::error::Error" }, align 8
  %_7 = alloca %"anchor_lang::error::Error", align 8
  %e = alloca %"anchor_lang::error::Error", align 8
  %_5 = alloca %"anchor_lang::prelude::AccountInfo", align 8
  %t = alloca %"anchor_lang::prelude::AccountInfo", align 8
  call void @llvm.dbg.declare(metadata %"std::result::Result<anchor_lang::prelude::AccountInfo, anchor_lang::error::Error>"* %self, metadata !1990, metadata !DIExpression()), !dbg !1998
  call void @llvm.dbg.declare(metadata %"[closure@/home/chinedum/.cargo/registry/src/github.com-1ecc6299db9ec823/anchor-spl-0.25.0/src/token.rs:332:10: 332:18].2"* %op.dbg.spill, metadata !1991, metadata !DIExpression()), !dbg !1999
  call void @llvm.dbg.declare(metadata %"anchor_lang::prelude::AccountInfo"* %t, metadata !1992, metadata !DIExpression()), !dbg !2000
  call void @llvm.dbg.declare(metadata %"anchor_lang::error::Error"* %e, metadata !1994, metadata !DIExpression()), !dbg !2001
  store i8 0, i8* %_11, align 1, !dbg !2002
  store i8 1, i8* %_11, align 1, !dbg !2002
  %1 = bitcast %"std::result::Result<anchor_lang::prelude::AccountInfo, anchor_lang::error::Error>"* %self to i64*, !dbg !2002
  %_3 = load i64, i64* %1, align 8, !dbg !2002, !range !1512
  switch i64 %_3, label %bb2 [
    i64 0, label %bb3
    i64 1, label %bb1
  ], !dbg !2003

bb2:                                              ; preds = %start
