; ModuleID = 'keccak.f7240e90-cgu.0'
source_filename = "keccak.f7240e90-cgu.0"
target datalayout = "e-m:e-p:64:64-i64:64-n32:64-S128"
target triple = "bpfel"

%"core::panic::Location" = type { { [0 x i8]*, i64 }, i32, i32 }
%"core::array::TryFromSliceError" = type { {} }
%"core::ptr::metadata::PtrRepr<[u8]>" = type { [2 x i64] }
%"core::ptr::metadata::PtrRepr<[u64]>" = type { [2 x i64] }
%"core::result::Result<[u8; 4], core::array::TryFromSliceError>" = type { i8, [4 x i8] }
%"core::result::Result<[u8; 2], core::array::TryFromSliceError>" = type { i8, [2 x i8] }
%"[closure@core::array::<impl core::convert::TryFrom<&[u8]> for [u8; 4]>::try_from::{closure#0}]" = type {}
%"[closure@core::array::<impl core::convert::TryFrom<&[u8]> for [u8; 2]>::try_from::{closure#0}]" = type {}
%"core::result::Result<[u8; 4], core::array::TryFromSliceError>::Err" = type { [1 x i8], %"core::array::TryFromSliceError" }
%"core::result::Result<[u8; 4], core::array::TryFromSliceError>::Ok" = type { [1 x i8], [4 x i8] }
%"core::result::Result<[u8; 2], core::array::TryFromSliceError>::Err" = type { [1 x i8], %"core::array::TryFromSliceError" }
%"core::result::Result<[u8; 2], core::array::TryFromSliceError>::Ok" = type { [1 x i8], [2 x i8] }
%"[closure@/home/chinedum/.cargo/registry/src/github.com-1ecc6299db9ec823/keccak-0.1.2/src/lib.rs:123:24: 123:57]" = type {}
%"[closure@/home/chinedum/.cargo/registry/src/github.com-1ecc6299db9ec823/keccak-0.1.2/src/lib.rs:124:25: 127:2]" = type {}
%"[closure@/home/chinedum/.cargo/registry/src/github.com-1ecc6299db9ec823/keccak-0.1.2/src/lib.rs:128:25: 131:2]" = type {}
%"[closure@/home/chinedum/.cargo/registry/src/github.com-1ecc6299db9ec823/keccak-0.1.2/src/lib.rs:132:25: 132:41]" = type {}
%"core::fmt::Formatter" = type { { i64, i64 }, { i64, i64 }, { {}*, [3 x i64]* }, i32, i32, i8, [7 x i8] }

@alloc774 = private unnamed_addr constant <{ [43 x i8] }> <{ [43 x i8] c"called `Result::unwrap()` on an `Err` value" }>, align 1
@vtable.0 = private unnamed_addr constant <{ i8*, [16 x i8], i8*, [0 x i8] }> <{ i8* bitcast (void (%"core::array::TryFromSliceError"*)* @"_ZN4core3ptr51drop_in_place$LT$core..array..TryFromSliceError$GT$17h96219832bb737860E" to i8*), [16 x i8] c"\00\00\00\00\00\00\00\00\01\00\00\00\00\00\00\00", i8* bitcast (i1 (%"core::array::TryFromSliceError"*, %"core::fmt::Formatter"*)* @"_ZN67_$LT$core..array..TryFromSliceError$u20$as$u20$core..fmt..Debug$GT$3fmt17hf76d34ae020e321eE" to i8*), [0 x i8] zeroinitializer }>, align 8, !dbg !0
@alloc792 = private unnamed_addr constant <{ [65 x i8] }> <{ [65 x i8] c"A round_count greater than KECCAK_F_ROUND_COUNT is not supported!" }>, align 1
@alloc799 = private unnamed_addr constant <{ [86 x i8] }> <{ [86 x i8] c"/home/chinedum/.cargo/registry/src/github.com-1ecc6299db9ec823/keccak-0.1.2/src/lib.rs" }>, align 1
@alloc777 = private unnamed_addr constant <{ i8*, [16 x i8] }> <{ i8* getelementptr inbounds (<{ [86 x i8] }>, <{ [86 x i8] }>* @alloc799, i32 0, i32 0, i32 0), [16 x i8] c"V\00\00\00\00\00\00\00\B7\00\00\00\09\00\00\00" }>, align 8
@alloc758 = private unnamed_addr constant <{ [192 x i8] }> <{ [192 x i8] c"\01\00\00\00\00\00\00\00\82\80\00\00\00\00\00\00\8A\80\00\00\00\00\00\80\00\80\00\80\00\00\00\80\8B\80\00\00\00\00\00\00\01\00\00\80\00\00\00\00\81\80\00\80\00\00\00\80\09\80\00\00\00\00\00\80\8A\00\00\00\00\00\00\00\88\00\00\00\00\00\00\00\09\80\00\80\00\00\00\00\0A\00\00\80\00\00\00\00\8B\80\00\80\00\00\00\00\8B\00\00\00\00\00\00\80\89\80\00\00\00\00\00\80\03\80\00\00\00\00\00\80\02\80\00\00\00\00\00\80\80\00\00\00\00\00\00\80\0A\80\00\00\00\00\00\00\0A\00\00\80\00\00\00\80\81\80\00\80\00\00\00\80\80\80\00\00\00\00\00\80\01\00\00\80\00\00\00\00\08\80\00\80\00\00\00\80" }>, align 8
@alloc779 = private unnamed_addr constant <{ i8*, [16 x i8] }> <{ i8* getelementptr inbounds (<{ [86 x i8] }>, <{ [86 x i8] }>* @alloc799, i32 0, i32 0, i32 0), [16 x i8] c"V\00\00\00\00\00\00\00\BC\00\00\00\1C\00\00\00" }>, align 8
@str.1 = internal constant [33 x i8] c"attempt to subtract with overflow"
@alloc781 = private unnamed_addr constant <{ i8*, [16 x i8] }> <{ i8* getelementptr inbounds (<{ [86 x i8] }>, <{ [86 x i8] }>* @alloc799, i32 0, i32 0, i32 0), [16 x i8] c"V\00\00\00\00\00\00\00\BC\00\00\00\19\00\00\00" }>, align 8
@alloc783 = private unnamed_addr constant <{ i8*, [16 x i8] }> <{ i8* getelementptr inbounds (<{ [86 x i8] }>, <{ [86 x i8] }>* @alloc799, i32 0, i32 0, i32 0), [16 x i8] c"V\00\00\00\00\00\00\00\DF\00\00\00\22\00\00\00" }>, align 8
@str.2 = internal constant [28 x i8] c"attempt to add with overflow"
@alloc785 = private unnamed_addr constant <{ i8*, [16 x i8] }> <{ i8* getelementptr inbounds (<{ [86 x i8] }>, <{ [86 x i8] }>* @alloc799, i32 0, i32 0, i32 0), [16 x i8] c"V\00\00\00\00\00\00\00\DF\00\00\00\1C\00\00\00" }>, align 8
@alloc787 = private unnamed_addr constant <{ i8*, [16 x i8] }> <{ i8* getelementptr inbounds (<{ [86 x i8] }>, <{ [86 x i8] }>* @alloc799, i32 0, i32 0, i32 0), [16 x i8] c"V\00\00\00\00\00\00\00\E5\00\00\00\17\00\00\00" }>, align 8
@alloc789 = private unnamed_addr constant <{ i8*, [16 x i8] }> <{ i8* getelementptr inbounds (<{ [86 x i8] }>, <{ [86 x i8] }>* @alloc799, i32 0, i32 0, i32 0), [16 x i8] c"V\00\00\00\00\00\00\00\E5\00\00\00\11\00\00\00" }>, align 8
@alloc748 = private unnamed_addr constant <{ [0 x i8] }> zeroinitializer, align 1
@alloc794 = private unnamed_addr constant <{ i8*, [16 x i8] }> <{ i8* getelementptr inbounds (<{ [86 x i8] }>, <{ [86 x i8] }>* @alloc799, i32 0, i32 0, i32 0), [16 x i8] c"V\00\00\00\00\00\00\00~\00\00\00\19\00\00\00" }>, align 8
@alloc796 = private unnamed_addr constant <{ i8*, [16 x i8] }> <{ i8* getelementptr inbounds (<{ [86 x i8] }>, <{ [86 x i8] }>* @alloc799, i32 0, i32 0, i32 0), [16 x i8] c"V\00\00\00\00\00\00\00~\00\00\00=\00\00\00" }>, align 8
@alloc798 = private unnamed_addr constant <{ i8*, [16 x i8] }> <{ i8* getelementptr inbounds (<{ [86 x i8] }>, <{ [86 x i8] }>* @alloc799, i32 0, i32 0, i32 0), [16 x i8] c"V\00\00\00\00\00\00\00\82\00\00\00\19\00\00\00" }>, align 8
@alloc800 = private unnamed_addr constant <{ i8*, [16 x i8] }> <{ i8* getelementptr inbounds (<{ [86 x i8] }>, <{ [86 x i8] }>* @alloc799, i32 0, i32 0, i32 0), [16 x i8] c"V\00\00\00\00\00\00\00\82\00\00\00=\00\00\00" }>, align 8

; <core::ops::range::Range<usize> as core::slice::index::SliceIndex<[T]>>::get_unchecked
; Function Attrs: inlinehint nounwind
define { [0 x i8]*, i64 } @"_ZN106_$LT$core..ops..range..Range$LT$usize$GT$$u20$as$u20$core..slice..index..SliceIndex$LT$$u5b$T$u5d$$GT$$GT$13get_unchecked17h20532ac72bb25637E"(i64 %self.0, i64 %self.1, [0 x i8]* %slice.0, i64 %slice.1) unnamed_addr #0 !dbg !16 {
start:
  %0 = alloca i8*, align 8
  %count.dbg.spill.i.i = alloca i64, align 8
  %self.dbg.spill.i.i = alloca i8*, align 8
  %count.dbg.spill.i = alloca i64, align 8
  %self.dbg.spill.i = alloca i8*, align 8
  %slice.dbg.spill = alloca { [0 x i8]*, i64 }, align 8
  %self.dbg.spill = alloca { i64, i64 }, align 8
  %1 = getelementptr inbounds { i64, i64 }, { i64, i64 }* %self.dbg.spill, i32 0, i32 0
  store i64 %self.0, i64* %1, align 8
  %2 = getelementptr inbounds { i64, i64 }, { i64, i64 }* %self.dbg.spill, i32 0, i32 1
  store i64 %self.1, i64* %2, align 8
  call void @llvm.dbg.declare(metadata { i64, i64 }* %self.dbg.spill, metadata !39, metadata !DIExpression()), !dbg !43
  %3 = getelementptr inbounds { [0 x i8]*, i64 }, { [0 x i8]*, i64 }* %slice.dbg.spill, i32 0, i32 0
  store [0 x i8]* %slice.0, [0 x i8]** %3, align 8
  %4 = getelementptr inbounds { [0 x i8]*, i64 }, { [0 x i8]*, i64 }* %slice.dbg.spill, i32 0, i32 1
  store i64 %slice.1, i64* %4, align 8
  call void @llvm.dbg.declare(metadata { [0 x i8]*, i64 }* %slice.dbg.spill, metadata !40, metadata !DIExpression()), !dbg !44
; call core::ptr::const_ptr::<impl *const [T]>::as_ptr
  %_4 = call i8* @"_ZN4core3ptr9const_ptr43_$LT$impl$u20$$BP$const$u20$$u5b$T$u5d$$GT$6as_ptr17h46f3085f8537b5a0E"([0 x i8]* %slice.0, i64 %slice.1), !dbg !45
  br label %bb1, !dbg !45

bb1:                                              ; preds = %start
  store i8* %_4, i8** %self.dbg.spill.i, align 8
  call void @llvm.dbg.declare(metadata i8** %self.dbg.spill.i, metadata !46, metadata !DIExpression()), !dbg !56
  store i64 %self.0, i64* %count.dbg.spill.i, align 8
  call void @llvm.dbg.declare(metadata i64* %count.dbg.spill.i, metadata !55, metadata !DIExpression()), !dbg !58
  store i8* %_4, i8** %self.dbg.spill.i.i, align 8
  call void @llvm.dbg.declare(metadata i8** %self.dbg.spill.i.i, metadata !59, metadata !DIExpression()), !dbg !66
  store i64 %self.0, i64* %count.dbg.spill.i.i, align 8
  call void @llvm.dbg.declare(metadata i64* %count.dbg.spill.i.i, metadata !65, metadata !DIExpression()), !dbg !68
  %5 = getelementptr inbounds i8, i8* %_4, i64 %self.0, !dbg !69
  store i8* %5, i8** %0, align 8, !dbg !69
  %6 = load i8*, i8** %0, align 8, !dbg !69
  br label %bb2, !dbg !45

bb2:                                              ; preds = %bb1
  %_7 = sub i64 %self.1, %self.0, !dbg !70
; call core::ptr::slice_from_raw_parts
  %7 = call { [0 x i8]*, i64 } @_ZN4core3ptr20slice_from_raw_parts17h2d4211fb8b98be95E(i8* %6, i64 %_7), !dbg !71
  %8 = extractvalue { [0 x i8]*, i64 } %7, 0, !dbg !71
  %9 = extractvalue { [0 x i8]*, i64 } %7, 1, !dbg !71
  br label %bb3, !dbg !71

bb3:                                              ; preds = %bb2
  %10 = insertvalue { [0 x i8]*, i64 } undef, [0 x i8]* %8, 0, !dbg !72
  %11 = insertvalue { [0 x i8]*, i64 } %10, i64 %9, 1, !dbg !72
  ret { [0 x i8]*, i64 } %11, !dbg !72
}

; <core::ops::range::Range<usize> as core::slice::index::SliceIndex<[T]>>::get_unchecked
; Function Attrs: inlinehint nounwind
define { [0 x i64]*, i64 } @"_ZN106_$LT$core..ops..range..Range$LT$usize$GT$$u20$as$u20$core..slice..index..SliceIndex$LT$$u5b$T$u5d$$GT$$GT$13get_unchecked17hc442195dec157d4dE"(i64 %self.0, i64 %self.1, [0 x i64]* %slice.0, i64 %slice.1) unnamed_addr #0 !dbg !73 {
start:
  %0 = alloca i64*, align 8
  %count.dbg.spill.i.i = alloca i64, align 8
  %self.dbg.spill.i.i = alloca i64*, align 8
  %count.dbg.spill.i = alloca i64, align 8
  %self.dbg.spill.i = alloca i64*, align 8
  %slice.dbg.spill = alloca { [0 x i64]*, i64 }, align 8
  %self.dbg.spill = alloca { i64, i64 }, align 8
  %1 = getelementptr inbounds { i64, i64 }, { i64, i64 }* %self.dbg.spill, i32 0, i32 0
  store i64 %self.0, i64* %1, align 8
  %2 = getelementptr inbounds { i64, i64 }, { i64, i64 }* %self.dbg.spill, i32 0, i32 1
  store i64 %self.1, i64* %2, align 8
  call void @llvm.dbg.declare(metadata { i64, i64 }* %self.dbg.spill, metadata !83, metadata !DIExpression()), !dbg !87
  %3 = getelementptr inbounds { [0 x i64]*, i64 }, { [0 x i64]*, i64 }* %slice.dbg.spill, i32 0, i32 0
  store [0 x i64]* %slice.0, [0 x i64]** %3, align 8
  %4 = getelementptr inbounds { [0 x i64]*, i64 }, { [0 x i64]*, i64 }* %slice.dbg.spill, i32 0, i32 1
  store i64 %slice.1, i64* %4, align 8
  call void @llvm.dbg.declare(metadata { [0 x i64]*, i64 }* %slice.dbg.spill, metadata !84, metadata !DIExpression()), !dbg !88
; call core::ptr::const_ptr::<impl *const [T]>::as_ptr
  %_4 = call i64* @"_ZN4core3ptr9const_ptr43_$LT$impl$u20$$BP$const$u20$$u5b$T$u5d$$GT$6as_ptr17hf603e550c87e2b45E"([0 x i64]* %slice.0, i64 %slice.1), !dbg !89
  br label %bb1, !dbg !89

bb1:                                              ; preds = %start
  store i64* %_4, i64** %self.dbg.spill.i, align 8
  call void @llvm.dbg.declare(metadata i64** %self.dbg.spill.i, metadata !90, metadata !DIExpression()), !dbg !96
  store i64 %self.0, i64* %count.dbg.spill.i, align 8
  call void @llvm.dbg.declare(metadata i64* %count.dbg.spill.i, metadata !95, metadata !DIExpression()), !dbg !98
  store i64* %_4, i64** %self.dbg.spill.i.i, align 8
  call void @llvm.dbg.declare(metadata i64** %self.dbg.spill.i.i, metadata !99, metadata !DIExpression()), !dbg !105
  store i64 %self.0, i64* %count.dbg.spill.i.i, align 8
  call void @llvm.dbg.declare(metadata i64* %count.dbg.spill.i.i, metadata !104, metadata !DIExpression()), !dbg !107
  %5 = getelementptr inbounds i64, i64* %_4, i64 %self.0, !dbg !108
  store i64* %5, i64** %0, align 8, !dbg !108
  %6 = load i64*, i64** %0, align 8, !dbg !108
  br label %bb2, !dbg !89

bb2:                                              ; preds = %bb1
  %_7 = sub i64 %self.1, %self.0, !dbg !109
; call core::ptr::slice_from_raw_parts
  %7 = call { [0 x i64]*, i64 } @_ZN4core3ptr20slice_from_raw_parts17h905e9a4da0d928d9E(i64* %6, i64 %_7), !dbg !110
  %8 = extractvalue { [0 x i64]*, i64 } %7, 0, !dbg !110
  %9 = extractvalue { [0 x i64]*, i64 } %7, 1, !dbg !110
  br label %bb3, !dbg !110

bb3:                                              ; preds = %bb2
  %10 = insertvalue { [0 x i64]*, i64 } undef, [0 x i64]* %8, 0, !dbg !111
  %11 = insertvalue { [0 x i64]*, i64 } %10, i64 %9, 1, !dbg !111
  ret { [0 x i64]*, i64 } %11, !dbg !111
}

; <core::ops::range::Range<usize> as core::slice::index::SliceIndex<[T]>>::index
; Function Attrs: inlinehint nounwind
define { [0 x i64]*, i64 } @"_ZN106_$LT$core..ops..range..Range$LT$usize$GT$$u20$as$u20$core..slice..index..SliceIndex$LT$$u5b$T$u5d$$GT$$GT$5index17h455a979ba90827d9E"(i64 %self.0, i64 %self.1, [0 x i64]* nonnull align 8 %slice.0, i64 %slice.1, %"core::panic::Location"* align 8 dereferenceable(24) %0) unnamed_addr #0 !dbg !112 {
start:
  %slice.dbg.spill = alloca { [0 x i64]*, i64 }, align 8
  %self.dbg.spill = alloca { i64, i64 }, align 8
  %1 = getelementptr inbounds { i64, i64 }, { i64, i64 }* %self.dbg.spill, i32 0, i32 0
  store i64 %self.0, i64* %1, align 8
  %2 = getelementptr inbounds { i64, i64 }, { i64, i64 }* %self.dbg.spill, i32 0, i32 1
  store i64 %self.1, i64* %2, align 8
  call void @llvm.dbg.declare(metadata { i64, i64 }* %self.dbg.spill, metadata !133, metadata !DIExpression()), !dbg !135
  %3 = getelementptr inbounds { [0 x i64]*, i64 }, { [0 x i64]*, i64 }* %slice.dbg.spill, i32 0, i32 0
  store [0 x i64]* %slice.0, [0 x i64]** %3, align 8
  %4 = getelementptr inbounds { [0 x i64]*, i64 }, { [0 x i64]*, i64 }* %slice.dbg.spill, i32 0, i32 1
  store i64 %slice.1, i64* %4, align 8
  call void @llvm.dbg.declare(metadata { [0 x i64]*, i64 }* %slice.dbg.spill, metadata !134, metadata !DIExpression()), !dbg !136
  %_3 = icmp ugt i64 %self.0, %self.1, !dbg !137
  br i1 %_3, label %bb1, label %bb2, !dbg !137

bb2:                                              ; preds = %start
  %_8 = icmp ugt i64 %self.1, %slice.1, !dbg !138
  br i1 %_8, label %bb3, label %bb4, !dbg !138

bb1:                                              ; preds = %start
; call core::slice::index::slice_index_order_fail
  call void @_ZN4core5slice5index22slice_index_order_fail17h0a02db5c3145b3dbE(i64 %self.0, i64 %self.1, %"core::panic::Location"* align 8 dereferenceable(24) %0), !dbg !139
  unreachable, !dbg !139

bb4:                                              ; preds = %bb2
; call <core::ops::range::Range<usize> as core::slice::index::SliceIndex<[T]>>::get_unchecked
  %5 = call { [0 x i64]*, i64 } @"_ZN106_$LT$core..ops..range..Range$LT$usize$GT$$u20$as$u20$core..slice..index..SliceIndex$LT$$u5b$T$u5d$$GT$$GT$13get_unchecked17hc442195dec157d4dE"(i64 %self.0, i64 %self.1, [0 x i64]* %slice.0, i64 %slice.1), !dbg !140
  %_15.0 = extractvalue { [0 x i64]*, i64 } %5, 0, !dbg !140
  %_15.1 = extractvalue { [0 x i64]*, i64 } %5, 1, !dbg !140
  br label %bb5, !dbg !140

bb3:                                              ; preds = %bb2
; call core::slice::index::slice_end_index_len_fail
  call void @_ZN4core5slice5index24slice_end_index_len_fail17hc9093b080894820aE(i64 %self.1, i64 %slice.1, %"core::panic::Location"* align 8 dereferenceable(24) %0), !dbg !141
  unreachable, !dbg !141

bb5:                                              ; preds = %bb4
  %6 = insertvalue { [0 x i64]*, i64 } undef, [0 x i64]* %_15.0, 0, !dbg !142
  %7 = insertvalue { [0 x i64]*, i64 } %6, i64 %_15.1, 1, !dbg !142
  ret { [0 x i64]*, i64 } %7, !dbg !142
}

; <core::ops::range::Range<usize> as core::slice::index::SliceIndex<[T]>>::index
; Function Attrs: inlinehint nounwind
define { [0 x i8]*, i64 } @"_ZN106_$LT$core..ops..range..Range$LT$usize$GT$$u20$as$u20$core..slice..index..SliceIndex$LT$$u5b$T$u5d$$GT$$GT$5index17haad276466735930cE"(i64 %self.0, i64 %self.1, [0 x i8]* nonnull align 1 %slice.0, i64 %slice.1, %"core::panic::Location"* align 8 dereferenceable(24) %0) unnamed_addr #0 !dbg !143 {
start:
  %slice.dbg.spill = alloca { [0 x i8]*, i64 }, align 8
  %self.dbg.spill = alloca { i64, i64 }, align 8
  %1 = getelementptr inbounds { i64, i64 }, { i64, i64 }* %self.dbg.spill, i32 0, i32 0
  store i64 %self.0, i64* %1, align 8
  %2 = getelementptr inbounds { i64, i64 }, { i64, i64 }* %self.dbg.spill, i32 0, i32 1
  store i64 %self.1, i64* %2, align 8
  call void @llvm.dbg.declare(metadata { i64, i64 }* %self.dbg.spill, metadata !151, metadata !DIExpression()), !dbg !153
  %3 = getelementptr inbounds { [0 x i8]*, i64 }, { [0 x i8]*, i64 }* %slice.dbg.spill, i32 0, i32 0
  store [0 x i8]* %slice.0, [0 x i8]** %3, align 8
  %4 = getelementptr inbounds { [0 x i8]*, i64 }, { [0 x i8]*, i64 }* %slice.dbg.spill, i32 0, i32 1
  store i64 %slice.1, i64* %4, align 8
  call void @llvm.dbg.declare(metadata { [0 x i8]*, i64 }* %slice.dbg.spill, metadata !152, metadata !DIExpression()), !dbg !154
  %_3 = icmp ugt i64 %self.0, %self.1, !dbg !155
  br i1 %_3, label %bb1, label %bb2, !dbg !155

bb2:                                              ; preds = %start
  %_8 = icmp ugt i64 %self.1, %slice.1, !dbg !156
  br i1 %_8, label %bb3, label %bb4, !dbg !156

bb1:                                              ; preds = %start
; call core::slice::index::slice_index_order_fail
  call void @_ZN4core5slice5index22slice_index_order_fail17h0a02db5c3145b3dbE(i64 %self.0, i64 %self.1, %"core::panic::Location"* align 8 dereferenceable(24) %0), !dbg !157
  unreachable, !dbg !157

bb4:                                              ; preds = %bb2
; call <core::ops::range::Range<usize> as core::slice::index::SliceIndex<[T]>>::get_unchecked
  %5 = call { [0 x i8]*, i64 } @"_ZN106_$LT$core..ops..range..Range$LT$usize$GT$$u20$as$u20$core..slice..index..SliceIndex$LT$$u5b$T$u5d$$GT$$GT$13get_unchecked17h20532ac72bb25637E"(i64 %self.0, i64 %self.1, [0 x i8]* %slice.0, i64 %slice.1), !dbg !158
  %_15.0 = extractvalue { [0 x i8]*, i64 } %5, 0, !dbg !158
  %_15.1 = extractvalue { [0 x i8]*, i64 } %5, 1, !dbg !158
  br label %bb5, !dbg !158

bb3:                                              ; preds = %bb2
; call core::slice::index::slice_end_index_len_fail
  call void @_ZN4core5slice5index24slice_end_index_len_fail17hc9093b080894820aE(i64 %self.1, i64 %slice.1, %"core::panic::Location"* align 8 dereferenceable(24) %0), !dbg !159
  unreachable, !dbg !159

bb5:                                              ; preds = %bb4
  %6 = insertvalue { [0 x i8]*, i64 } undef, [0 x i8]* %_15.0, 0, !dbg !160
  %7 = insertvalue { [0 x i8]*, i64 } %6, i64 %_15.1, 1, !dbg !160
  ret { [0 x i8]*, i64 } %7, !dbg !160
}

; <core::ops::range::RangeTo<usize> as core::slice::index::SliceIndex<[T]>>::index
; Function Attrs: inlinehint nounwind
define { [0 x i8]*, i64 } @"_ZN108_$LT$core..ops..range..RangeTo$LT$usize$GT$$u20$as$u20$core..slice..index..SliceIndex$LT$$u5b$T$u5d$$GT$$GT$5index17h96e372e8f02c54dbE"(i64 %self, [0 x i8]* nonnull align 1 %slice.0, i64 %slice.1, %"core::panic::Location"* align 8 dereferenceable(24) %0) unnamed_addr #0 !dbg !161 {
start:
  %slice.dbg.spill = alloca { [0 x i8]*, i64 }, align 8
  %self.dbg.spill = alloca i64, align 8
  %_3 = alloca { i64, i64 }, align 8
  store i64 %self, i64* %self.dbg.spill, align 8
  call void @llvm.dbg.declare(metadata i64* %self.dbg.spill, metadata !169, metadata !DIExpression()), !dbg !171
  %1 = getelementptr inbounds { [0 x i8]*, i64 }, { [0 x i8]*, i64 }* %slice.dbg.spill, i32 0, i32 0
  store [0 x i8]* %slice.0, [0 x i8]** %1, align 8
  %2 = getelementptr inbounds { [0 x i8]*, i64 }, { [0 x i8]*, i64 }* %slice.dbg.spill, i32 0, i32 1
  store i64 %slice.1, i64* %2, align 8
  call void @llvm.dbg.declare(metadata { [0 x i8]*, i64 }* %slice.dbg.spill, metadata !170, metadata !DIExpression()), !dbg !172
  %3 = bitcast { i64, i64 }* %_3 to i64*, !dbg !173
  store i64 0, i64* %3, align 8, !dbg !173
  %4 = getelementptr inbounds { i64, i64 }, { i64, i64 }* %_3, i32 0, i32 1, !dbg !173
  store i64 %self, i64* %4, align 8, !dbg !173
  %5 = getelementptr inbounds { i64, i64 }, { i64, i64 }* %_3, i32 0, i32 0, !dbg !173
  %6 = load i64, i64* %5, align 8, !dbg !173
  %7 = getelementptr inbounds { i64, i64 }, { i64, i64 }* %_3, i32 0, i32 1, !dbg !173
  %8 = load i64, i64* %7, align 8, !dbg !173
; call <core::ops::range::Range<usize> as core::slice::index::SliceIndex<[T]>>::index
  %9 = call { [0 x i8]*, i64 } @"_ZN106_$LT$core..ops..range..Range$LT$usize$GT$$u20$as$u20$core..slice..index..SliceIndex$LT$$u5b$T$u5d$$GT$$GT$5index17haad276466735930cE"(i64 %6, i64 %8, [0 x i8]* nonnull align 1 %slice.0, i64 %slice.1, %"core::panic::Location"* align 8 dereferenceable(24) %0), !dbg !173
  %10 = extractvalue { [0 x i8]*, i64 } %9, 0, !dbg !173
  %11 = extractvalue { [0 x i8]*, i64 } %9, 1, !dbg !173
  br label %bb1, !dbg !173

bb1:                                              ; preds = %start
  %12 = insertvalue { [0 x i8]*, i64 } undef, [0 x i8]* %10, 0, !dbg !174
  %13 = insertvalue { [0 x i8]*, i64 } %12, i64 %11, 1, !dbg !174
  ret { [0 x i8]*, i64 } %13, !dbg !174
}

; <u8 as core::ops::bit::Not>::not
; Function Attrs: inlinehint nounwind
define internal i8 @"_ZN42_$LT$u8$u20$as$u20$core..ops..bit..Not$GT$3not17h33b40eff19708b69E"(i8 %self) unnamed_addr #0 !dbg !175 {
start:
  %self.dbg.spill = alloca i8, align 1
  store i8 %self, i8* %self.dbg.spill, align 1
  call void @llvm.dbg.declare(metadata i8* %self.dbg.spill, metadata !182, metadata !DIExpression()), !dbg !183
  %0 = xor i8 %self, -1, !dbg !184
  ret i8 %0, !dbg !185
}

; <u16 as core::ops::bit::Not>::not
; Function Attrs: inlinehint nounwind
define internal i16 @"_ZN43_$LT$u16$u20$as$u20$core..ops..bit..Not$GT$3not17h6b02d6e069c62d10E"(i16 %self) unnamed_addr #0 !dbg !186 {
start:
  %self.dbg.spill = alloca i16, align 2
  store i16 %self, i16* %self.dbg.spill, align 2
  call void @llvm.dbg.declare(metadata i16* %self.dbg.spill, metadata !192, metadata !DIExpression()), !dbg !193
  %0 = xor i16 %self, -1, !dbg !194
  ret i16 %0, !dbg !195
}

; <u32 as core::ops::bit::Not>::not
; Function Attrs: inlinehint nounwind
define internal i32 @"_ZN43_$LT$u32$u20$as$u20$core..ops..bit..Not$GT$3not17h807c49e8e4295647E"(i32 %self) unnamed_addr #0 !dbg !196 {
start:
  %self.dbg.spill = alloca i32, align 4
  store i32 %self, i32* %self.dbg.spill, align 4
  call void @llvm.dbg.declare(metadata i32* %self.dbg.spill, metadata !201, metadata !DIExpression()), !dbg !202
  %0 = xor i32 %self, -1, !dbg !203
  ret i32 %0, !dbg !204
}

; <u64 as core::ops::bit::Not>::not
; Function Attrs: inlinehint nounwind
define internal i64 @"_ZN43_$LT$u64$u20$as$u20$core..ops..bit..Not$GT$3not17h4a14053068a98ed5E"(i64 %self) unnamed_addr #0 !dbg !205 {
start:
  %self.dbg.spill = alloca i64, align 8
  store i64 %self, i64* %self.dbg.spill, align 8
  call void @llvm.dbg.declare(metadata i64* %self.dbg.spill, metadata !210, metadata !DIExpression()), !dbg !211
  %0 = xor i64 %self, -1, !dbg !212
  ret i64 %0, !dbg !213
}

; <u8 as core::default::Default>::default
; Function Attrs: inlinehint nounwind
define internal i8 @"_ZN45_$LT$u8$u20$as$u20$core..default..Default$GT$7default17h3da1013ad33fcdc3E"() unnamed_addr #0 !dbg !214 {
start:
  ret i8 0, !dbg !220
}

; <u8 as core::ops::bit::BitAnd>::bitand
; Function Attrs: inlinehint nounwind
define internal i8 @"_ZN45_$LT$u8$u20$as$u20$core..ops..bit..BitAnd$GT$6bitand17h7fda153920d390ecE"(i8 %self, i8 %rhs) unnamed_addr #0 !dbg !221 {
start:
  %rhs.dbg.spill = alloca i8, align 1
  %self.dbg.spill = alloca i8, align 1
  store i8 %self, i8* %self.dbg.spill, align 1
  call void @llvm.dbg.declare(metadata i8* %self.dbg.spill, metadata !226, metadata !DIExpression()), !dbg !228
  store i8 %rhs, i8* %rhs.dbg.spill, align 1
  call void @llvm.dbg.declare(metadata i8* %rhs.dbg.spill, metadata !227, metadata !DIExpression()), !dbg !229
  %0 = and i8 %self, %rhs, !dbg !230
  ret i8 %0, !dbg !231
}

; <u8 as core::ops::bit::BitXor>::bitxor
; Function Attrs: inlinehint nounwind
define internal i8 @"_ZN45_$LT$u8$u20$as$u20$core..ops..bit..BitXor$GT$6bitxor17h1122952624e9ab26E"(i8 %self, i8 %other) unnamed_addr #0 !dbg !232 {
start:
  %other.dbg.spill = alloca i8, align 1
  %self.dbg.spill = alloca i8, align 1
  store i8 %self, i8* %self.dbg.spill, align 1
  call void @llvm.dbg.declare(metadata i8* %self.dbg.spill, metadata !235, metadata !DIExpression()), !dbg !237
  store i8 %other, i8* %other.dbg.spill, align 1
  call void @llvm.dbg.declare(metadata i8* %other.dbg.spill, metadata !236, metadata !DIExpression()), !dbg !238
  %0 = xor i8 %self, %other, !dbg !239
  ret i8 %0, !dbg !240
}

; <u16 as core::default::Default>::default
; Function Attrs: inlinehint nounwind
define internal i16 @"_ZN46_$LT$u16$u20$as$u20$core..default..Default$GT$7default17hd30e691bea768ce6E"() unnamed_addr #0 !dbg !241 {
start:
  ret i16 0, !dbg !245
}

; <u16 as core::ops::bit::BitAnd>::bitand
; Function Attrs: inlinehint nounwind
define internal i16 @"_ZN46_$LT$u16$u20$as$u20$core..ops..bit..BitAnd$GT$6bitand17h96d7c5ac525a3cacE"(i16 %self, i16 %rhs) unnamed_addr #0 !dbg !246 {
start:
  %rhs.dbg.spill = alloca i16, align 2
  %self.dbg.spill = alloca i16, align 2
  store i16 %self, i16* %self.dbg.spill, align 2
  call void @llvm.dbg.declare(metadata i16* %self.dbg.spill, metadata !251, metadata !DIExpression()), !dbg !253
  store i16 %rhs, i16* %rhs.dbg.spill, align 2
  call void @llvm.dbg.declare(metadata i16* %rhs.dbg.spill, metadata !252, metadata !DIExpression()), !dbg !254
  %0 = and i16 %self, %rhs, !dbg !255
  ret i16 %0, !dbg !256
}

; <u16 as core::ops::bit::BitXor>::bitxor
; Function Attrs: inlinehint nounwind
define internal i16 @"_ZN46_$LT$u16$u20$as$u20$core..ops..bit..BitXor$GT$6bitxor17h9914b0e9d72735afE"(i16 %self, i16 %other) unnamed_addr #0 !dbg !257 {
start:
  %other.dbg.spill = alloca i16, align 2
  %self.dbg.spill = alloca i16, align 2
  store i16 %self, i16* %self.dbg.spill, align 2
  call void @llvm.dbg.declare(metadata i16* %self.dbg.spill, metadata !260, metadata !DIExpression()), !dbg !262
  store i16 %other, i16* %other.dbg.spill, align 2
  call void @llvm.dbg.declare(metadata i16* %other.dbg.spill, metadata !261, metadata !DIExpression()), !dbg !263
  %0 = xor i16 %self, %other, !dbg !264
  ret i16 %0, !dbg !265
}

; <u32 as core::default::Default>::default
; Function Attrs: inlinehint nounwind
define internal i32 @"_ZN46_$LT$u32$u20$as$u20$core..default..Default$GT$7default17h11d4d0124420a650E"() unnamed_addr #0 !dbg !266 {
start:
  ret i32 0, !dbg !270
}

; <u32 as core::ops::bit::BitAnd>::bitand
; Function Attrs: inlinehint nounwind
define internal i32 @"_ZN46_$LT$u32$u20$as$u20$core..ops..bit..BitAnd$GT$6bitand17h478c4032372cda27E"(i32 %self, i32 %rhs) unnamed_addr #0 !dbg !271 {
start:
  %rhs.dbg.spill = alloca i32, align 4
  %self.dbg.spill = alloca i32, align 4
  store i32 %self, i32* %self.dbg.spill, align 4
  call void @llvm.dbg.declare(metadata i32* %self.dbg.spill, metadata !276, metadata !DIExpression()), !dbg !278
  store i32 %rhs, i32* %rhs.dbg.spill, align 4
  call void @llvm.dbg.declare(metadata i32* %rhs.dbg.spill, metadata !277, metadata !DIExpression()), !dbg !279
  %0 = and i32 %self, %rhs, !dbg !280
  ret i32 %0, !dbg !281
}

; <u32 as core::ops::bit::BitXor>::bitxor
; Function Attrs: inlinehint nounwind
define internal i32 @"_ZN46_$LT$u32$u20$as$u20$core..ops..bit..BitXor$GT$6bitxor17ha77bac360f7482f0E"(i32 %self, i32 %other) unnamed_addr #0 !dbg !282 {
start:
  %other.dbg.spill = alloca i32, align 4
  %self.dbg.spill = alloca i32, align 4
  store i32 %self, i32* %self.dbg.spill, align 4
  call void @llvm.dbg.declare(metadata i32* %self.dbg.spill, metadata !285, metadata !DIExpression()), !dbg !287
  store i32 %other, i32* %other.dbg.spill, align 4
  call void @llvm.dbg.declare(metadata i32* %other.dbg.spill, metadata !286, metadata !DIExpression()), !dbg !288
  %0 = xor i32 %self, %other, !dbg !289
  ret i32 %0, !dbg !290
}

; <u64 as core::default::Default>::default
; Function Attrs: inlinehint nounwind
define internal i64 @"_ZN46_$LT$u64$u20$as$u20$core..default..Default$GT$7default17h4c66a39cc5de07f1E"() unnamed_addr #0 !dbg !291 {
start:
  ret i64 0, !dbg !295
}

; <u64 as core::ops::bit::BitAnd>::bitand
; Function Attrs: inlinehint nounwind
define internal i64 @"_ZN46_$LT$u64$u20$as$u20$core..ops..bit..BitAnd$GT$6bitand17h9dc2a884df11b956E"(i64 %self, i64 %rhs) unnamed_addr #0 !dbg !296 {
start:
  %rhs.dbg.spill = alloca i64, align 8
  %self.dbg.spill = alloca i64, align 8
  store i64 %self, i64* %self.dbg.spill, align 8
  call void @llvm.dbg.declare(metadata i64* %self.dbg.spill, metadata !301, metadata !DIExpression()), !dbg !303
  store i64 %rhs, i64* %rhs.dbg.spill, align 8
  call void @llvm.dbg.declare(metadata i64* %rhs.dbg.spill, metadata !302, metadata !DIExpression()), !dbg !304
  %0 = and i64 %self, %rhs, !dbg !305
  ret i64 %0, !dbg !306
}

; <u64 as core::ops::bit::BitXor>::bitxor
; Function Attrs: inlinehint nounwind
define internal i64 @"_ZN46_$LT$u64$u20$as$u20$core..ops..bit..BitXor$GT$6bitxor17h7e70a648784d0ba5E"(i64 %self, i64 %other) unnamed_addr #0 !dbg !307 {
start:
  %other.dbg.spill = alloca i64, align 8
  %self.dbg.spill = alloca i64, align 8
  store i64 %self, i64* %self.dbg.spill, align 8
  call void @llvm.dbg.declare(metadata i64* %self.dbg.spill, metadata !310, metadata !DIExpression()), !dbg !312
  store i64 %other, i64* %other.dbg.spill, align 8
  call void @llvm.dbg.declare(metadata i64* %other.dbg.spill, metadata !311, metadata !DIExpression()), !dbg !313
  %0 = xor i64 %self, %other, !dbg !314
  ret i64 %0, !dbg !315
}

; core::num::<impl u16>::from_le_bytes
; Function Attrs: inlinehint nounwind
define internal i16 @"_ZN4core3num21_$LT$impl$u20$u16$GT$13from_le_bytes17hec04099dfa7de829E"(i16 %0) unnamed_addr #0 !dbg !316 {
start:
  %x.dbg.spill.i = alloca i16, align 2
  %_3 = alloca [2 x i8], align 1
  %1 = alloca i16, align 2
  %bytes = alloca [2 x i8], align 1
  store i16 %0, i16* %1, align 2
  %2 = bitcast [2 x i8]* %bytes to i8*
  %3 = bitcast i16* %1 to i8*
  call void @llvm.memcpy.p0i8.p0i8.i64(i8* align 1 %2, i8* align 2 %3, i64 2, i1 false)
  call void @llvm.dbg.declare(metadata [2 x i8]* %bytes, metadata !326, metadata !DIExpression()), !dbg !327
  %4 = bitcast [2 x i8]* %_3 to i8*, !dbg !328
  %5 = bitcast [2 x i8]* %bytes to i8*, !dbg !328
  call void @llvm.memcpy.p0i8.p0i8.i64(i8* align 1 %4, i8* align 1 %5, i64 2, i1 false), !dbg !328
  %6 = bitcast [2 x i8]* %_3 to i16*, !dbg !329
  %7 = load i16, i16* %6, align 1, !dbg !329
; call core::num::<impl u16>::from_ne_bytes
  %_2 = call i16 @"_ZN4core3num21_$LT$impl$u20$u16$GT$13from_ne_bytes17he6a39f6f7e8ef7e5E"(i16 %7), !dbg !329
  br label %bb1, !dbg !329

bb1:                                              ; preds = %start
  store i16 %_2, i16* %x.dbg.spill.i, align 2
  call void @llvm.dbg.declare(metadata i16* %x.dbg.spill.i, metadata !330, metadata !DIExpression()), !dbg !333
  br label %bb2, !dbg !335

bb2:                                              ; preds = %bb1
  ret i16 %_2, !dbg !336
}

; core::num::<impl u16>::from_ne_bytes
; Function Attrs: inlinehint nounwind
define internal i16 @"_ZN4core3num21_$LT$impl$u20$u16$GT$13from_ne_bytes17he6a39f6f7e8ef7e5E"(i16 %0) unnamed_addr #0 !dbg !337 {
start:
  %1 = alloca i16, align 2
  %_2 = alloca [2 x i8], align 1
  %2 = alloca i16, align 2
  %bytes = alloca [2 x i8], align 1
  store i16 %0, i16* %2, align 2
  %3 = bitcast [2 x i8]* %bytes to i8*
  %4 = bitcast i16* %2 to i8*
  call void @llvm.memcpy.p0i8.p0i8.i64(i8* align 1 %3, i8* align 2 %4, i64 2, i1 false)
  call void @llvm.dbg.declare(metadata [2 x i8]* %bytes, metadata !339, metadata !DIExpression()), !dbg !340
  %5 = bitcast [2 x i8]* %_2 to i8*, !dbg !341
  %6 = bitcast [2 x i8]* %bytes to i8*, !dbg !341
  call void @llvm.memcpy.p0i8.p0i8.i64(i8* align 1 %5, i8* align 1 %6, i64 2, i1 false), !dbg !341
  %7 = bitcast i16* %1 to [2 x i8]*, !dbg !342
  %8 = bitcast [2 x i8]* %7 to i8*, !dbg !342
  %9 = bitcast [2 x i8]* %_2 to i8*, !dbg !342
  call void @llvm.memcpy.p0i8.p0i8.i64(i8* align 1 %8, i8* align 1 %9, i64 2, i1 false), !dbg !342
  %10 = load i16, i16* %1, align 2, !dbg !342
  br label %bb1, !dbg !342

bb1:                                              ; preds = %start
  ret i16 %10, !dbg !343
}

; core::num::<impl u32>::from_le_bytes
; Function Attrs: inlinehint nounwind
define internal i32 @"_ZN4core3num21_$LT$impl$u20$u32$GT$13from_le_bytes17h3cdb6bbd1439e67eE"(i32 %0) unnamed_addr #0 !dbg !344 {
start:
  %x.dbg.spill.i = alloca i32, align 4
  %_3 = alloca [4 x i8], align 1
  %1 = alloca i32, align 4
  %bytes = alloca [4 x i8], align 1
  store i32 %0, i32* %1, align 4
  %2 = bitcast [4 x i8]* %bytes to i8*
  %3 = bitcast i32* %1 to i8*
  call void @llvm.memcpy.p0i8.p0i8.i64(i8* align 1 %2, i8* align 4 %3, i64 4, i1 false)
  call void @llvm.dbg.declare(metadata [4 x i8]* %bytes, metadata !352, metadata !DIExpression()), !dbg !353
  %4 = bitcast [4 x i8]* %_3 to i8*, !dbg !354
  %5 = bitcast [4 x i8]* %bytes to i8*, !dbg !354
  call void @llvm.memcpy.p0i8.p0i8.i64(i8* align 1 %4, i8* align 1 %5, i64 4, i1 false), !dbg !354
  %6 = bitcast [4 x i8]* %_3 to i32*, !dbg !355
  %7 = load i32, i32* %6, align 1, !dbg !355
; call core::num::<impl u32>::from_ne_bytes
  %_2 = call i32 @"_ZN4core3num21_$LT$impl$u20$u32$GT$13from_ne_bytes17h0c942f14719d0898E"(i32 %7), !dbg !355
  br label %bb1, !dbg !355

bb1:                                              ; preds = %start
  store i32 %_2, i32* %x.dbg.spill.i, align 4
  call void @llvm.dbg.declare(metadata i32* %x.dbg.spill.i, metadata !356, metadata !DIExpression()), !dbg !359
  br label %bb2, !dbg !361

bb2:                                              ; preds = %bb1
  ret i32 %_2, !dbg !362
}

; core::num::<impl u32>::from_ne_bytes
; Function Attrs: inlinehint nounwind
define internal i32 @"_ZN4core3num21_$LT$impl$u20$u32$GT$13from_ne_bytes17h0c942f14719d0898E"(i32 %0) unnamed_addr #0 !dbg !363 {
start:
  %1 = alloca i32, align 4
  %_2 = alloca [4 x i8], align 1
  %2 = alloca i32, align 4
  %bytes = alloca [4 x i8], align 1
  store i32 %0, i32* %2, align 4
  %3 = bitcast [4 x i8]* %bytes to i8*
  %4 = bitcast i32* %2 to i8*
  call void @llvm.memcpy.p0i8.p0i8.i64(i8* align 1 %3, i8* align 4 %4, i64 4, i1 false)
  call void @llvm.dbg.declare(metadata [4 x i8]* %bytes, metadata !365, metadata !DIExpression()), !dbg !366
  %5 = bitcast [4 x i8]* %_2 to i8*, !dbg !367
  %6 = bitcast [4 x i8]* %bytes to i8*, !dbg !367
  call void @llvm.memcpy.p0i8.p0i8.i64(i8* align 1 %5, i8* align 1 %6, i64 4, i1 false), !dbg !367
  %7 = bitcast i32* %1 to [4 x i8]*, !dbg !368
  %8 = bitcast [4 x i8]* %7 to i8*, !dbg !368
  %9 = bitcast [4 x i8]* %_2 to i8*, !dbg !368
  call void @llvm.memcpy.p0i8.p0i8.i64(i8* align 1 %8, i8* align 1 %9, i64 4, i1 false), !dbg !368
  %10 = load i32, i32* %1, align 4, !dbg !368
  br label %bb1, !dbg !368

bb1:                                              ; preds = %start
  ret i32 %10, !dbg !369
}

; core::num::<impl u64>::to_le_bytes
; Function Attrs: inlinehint nounwind
define internal i64 @"_ZN4core3num21_$LT$impl$u20$u64$GT$11to_le_bytes17h988627bae20fead3E"(i64 %self) unnamed_addr #0 !dbg !370 {
start:
  %self.dbg.spill.i = alloca i64, align 8
  %0 = alloca i64, align 8
  %self.dbg.spill = alloca i64, align 8
  %1 = alloca [8 x i8], align 1
  store i64 %self, i64* %self.dbg.spill, align 8
  call void @llvm.dbg.declare(metadata i64* %self.dbg.spill, metadata !378, metadata !DIExpression()), !dbg !379
  store i64 %self, i64* %self.dbg.spill.i, align 8
  call void @llvm.dbg.declare(metadata i64* %self.dbg.spill.i, metadata !380, metadata !DIExpression()), !dbg !383
  br label %bb1, !dbg !385

bb1:                                              ; preds = %start
; call core::num::<impl u64>::to_ne_bytes
  %2 = call i64 @"_ZN4core3num21_$LT$impl$u20$u64$GT$11to_ne_bytes17h85c35719eb45c3b7E"(i64 %self), !dbg !385
  store i64 %2, i64* %0, align 8, !dbg !385
  %3 = bitcast [8 x i8]* %1 to i8*, !dbg !385
  %4 = bitcast i64* %0 to i8*, !dbg !385
  call void @llvm.memcpy.p0i8.p0i8.i64(i8* align 1 %3, i8* align 8 %4, i64 8, i1 false), !dbg !385
  br label %bb2, !dbg !385

bb2:                                              ; preds = %bb1
  %5 = bitcast [8 x i8]* %1 to i64*, !dbg !386
  %6 = load i64, i64* %5, align 1, !dbg !386
  ret i64 %6, !dbg !386
}

; core::num::<impl u64>::to_ne_bytes
; Function Attrs: inlinehint nounwind
define internal i64 @"_ZN4core3num21_$LT$impl$u20$u64$GT$11to_ne_bytes17h85c35719eb45c3b7E"(i64 %self) unnamed_addr #0 !dbg !387 {
start:
  %self.dbg.spill = alloca i64, align 8
  %0 = alloca [8 x i8], align 1
  store i64 %self, i64* %self.dbg.spill, align 8
  call void @llvm.dbg.declare(metadata i64* %self.dbg.spill, metadata !389, metadata !DIExpression()), !dbg !390
  %1 = bitcast [8 x i8]* %0 to i64*, !dbg !391
  store i64 %self, i64* %1, align 1, !dbg !391
  br label %bb1, !dbg !391

bb1:                                              ; preds = %start
  %2 = bitcast [8 x i8]* %0 to i64*, !dbg !392
  %3 = load i64, i64* %2, align 1, !dbg !392
  ret i64 %3, !dbg !392
}

; core::ptr::slice_from_raw_parts
; Function Attrs: inlinehint nounwind
define { [0 x i8]*, i64 } @_ZN4core3ptr20slice_from_raw_parts17h2d4211fb8b98be95E(i8* %data, i64 %len) unnamed_addr #0 !dbg !393 {
start:
  %len.dbg.spill = alloca i64, align 8
  %data.dbg.spill = alloca i8*, align 8
  store i8* %data, i8** %data.dbg.spill, align 8
  call void @llvm.dbg.declare(metadata i8** %data.dbg.spill, metadata !398, metadata !DIExpression()), !dbg !400
  store i64 %len, i64* %len.dbg.spill, align 8
  call void @llvm.dbg.declare(metadata i64* %len.dbg.spill, metadata !399, metadata !DIExpression()), !dbg !401
; call core::ptr::const_ptr::<impl *const T>::cast
  %_3 = call {}* @"_ZN4core3ptr9const_ptr33_$LT$impl$u20$$BP$const$u20$T$GT$4cast17h384ab39543a9b011E"(i8* %data), !dbg !402
  br label %bb1, !dbg !402

bb1:                                              ; preds = %start
; call core::ptr::metadata::from_raw_parts
  %0 = call { [0 x i8]*, i64 } @_ZN4core3ptr8metadata14from_raw_parts17h7746cb03cd41af35E({}* %_3, i64 %len), !dbg !403
  %1 = extractvalue { [0 x i8]*, i64 } %0, 0, !dbg !403
  %2 = extractvalue { [0 x i8]*, i64 } %0, 1, !dbg !403
  br label %bb2, !dbg !403

bb2:                                              ; preds = %bb1
  %3 = insertvalue { [0 x i8]*, i64 } undef, [0 x i8]* %1, 0, !dbg !404
  %4 = insertvalue { [0 x i8]*, i64 } %3, i64 %2, 1, !dbg !404
  ret { [0 x i8]*, i64 } %4, !dbg !404
}

; core::ptr::slice_from_raw_parts
; Function Attrs: inlinehint nounwind
define { [0 x i64]*, i64 } @_ZN4core3ptr20slice_from_raw_parts17h905e9a4da0d928d9E(i64* %data, i64 %len) unnamed_addr #0 !dbg !405 {
start:
  %len.dbg.spill = alloca i64, align 8
  %data.dbg.spill = alloca i64*, align 8
  store i64* %data, i64** %data.dbg.spill, align 8
  call void @llvm.dbg.declare(metadata i64** %data.dbg.spill, metadata !409, metadata !DIExpression()), !dbg !411
  store i64 %len, i64* %len.dbg.spill, align 8
  call void @llvm.dbg.declare(metadata i64* %len.dbg.spill, metadata !410, metadata !DIExpression()), !dbg !412
; call core::ptr::const_ptr::<impl *const T>::cast
  %_3 = call {}* @"_ZN4core3ptr9const_ptr33_$LT$impl$u20$$BP$const$u20$T$GT$4cast17h44266de9bba853b1E"(i64* %data), !dbg !413
  br label %bb1, !dbg !413

bb1:                                              ; preds = %start
; call core::ptr::metadata::from_raw_parts
  %0 = call { [0 x i64]*, i64 } @_ZN4core3ptr8metadata14from_raw_parts17h94e10ad2084f768cE({}* %_3, i64 %len), !dbg !414
  %1 = extractvalue { [0 x i64]*, i64 } %0, 0, !dbg !414
  %2 = extractvalue { [0 x i64]*, i64 } %0, 1, !dbg !414
  br label %bb2, !dbg !414

bb2:                                              ; preds = %bb1
  %3 = insertvalue { [0 x i64]*, i64 } undef, [0 x i64]* %1, 0, !dbg !415
  %4 = insertvalue { [0 x i64]*, i64 } %3, i64 %2, 1, !dbg !415
  ret { [0 x i64]*, i64 } %4, !dbg !415
}

; core::ptr::drop_in_place<core::array::TryFromSliceError>
; Function Attrs: inlinehint nounwind
define internal void @"_ZN4core3ptr51drop_in_place$LT$core..array..TryFromSliceError$GT$17h96219832bb737860E"(%"core::array::TryFromSliceError"* %_1) unnamed_addr #0 !dbg !416 {
start:
  %_1.dbg.spill = alloca %"core::array::TryFromSliceError"*, align 8
  store %"core::array::TryFromSliceError"* %_1, %"core::array::TryFromSliceError"** %_1.dbg.spill, align 8
  call void @llvm.dbg.declare(metadata %"core::array::TryFromSliceError"** %_1.dbg.spill, metadata !421, metadata !DIExpression()), !dbg !424
  ret void, !dbg !424
}

; core::ptr::mut_ptr::<impl *mut T>::guaranteed_eq
; Function Attrs: inlinehint nounwind
define zeroext i1 @"_ZN4core3ptr7mut_ptr31_$LT$impl$u20$$BP$mut$u20$T$GT$13guaranteed_eq17h650d57f4e5c72843E"(i8* %self, i8* %other) unnamed_addr #0 !dbg !425 {
start:
  %0 = alloca i8, align 1
  %other.dbg.spill = alloca i8*, align 8
  %self.dbg.spill = alloca i8*, align 8
  store i8* %self, i8** %self.dbg.spill, align 8
  call void @llvm.dbg.declare(metadata i8** %self.dbg.spill, metadata !434, metadata !DIExpression()), !dbg !436
  store i8* %other, i8** %other.dbg.spill, align 8
  call void @llvm.dbg.declare(metadata i8** %other.dbg.spill, metadata !435, metadata !DIExpression()), !dbg !437
  %1 = icmp eq i8* %self, %other, !dbg !438
  %2 = zext i1 %1 to i8, !dbg !438
  store i8 %2, i8* %0, align 1, !dbg !438
  %3 = load i8, i8* %0, align 1, !dbg !438, !range !439
  %4 = trunc i8 %3 to i1, !dbg !438
  br label %bb1, !dbg !438

bb1:                                              ; preds = %start
  ret i1 %4, !dbg !440
}

; core::ptr::mut_ptr::<impl *mut T>::is_null
; Function Attrs: inlinehint nounwind
define zeroext i1 @"_ZN4core3ptr7mut_ptr31_$LT$impl$u20$$BP$mut$u20$T$GT$7is_null17ha42a77f1ed40fe01E"(i64* %self) unnamed_addr #0 !dbg !441 {
start:
  %self.dbg.spill = alloca i64*, align 8
  store i64* %self, i64** %self.dbg.spill, align 8
  call void @llvm.dbg.declare(metadata i64** %self.dbg.spill, metadata !446, metadata !DIExpression()), !dbg !447
  %_2 = bitcast i64* %self to i8*, !dbg !448
  br label %bb1, !dbg !449

bb1:                                              ; preds = %start
; call core::ptr::mut_ptr::<impl *mut T>::guaranteed_eq
  %0 = call zeroext i1 @"_ZN4core3ptr7mut_ptr31_$LT$impl$u20$$BP$mut$u20$T$GT$13guaranteed_eq17h650d57f4e5c72843E"(i8* %_2, i8* null), !dbg !448
  br label %bb2, !dbg !448

bb2:                                              ; preds = %bb1
  ret i1 %0, !dbg !450
}

; core::ptr::metadata::from_raw_parts
; Function Attrs: inlinehint nounwind
define { [0 x i8]*, i64 } @_ZN4core3ptr8metadata14from_raw_parts17h7746cb03cd41af35E({}* %data_address, i64 %metadata) unnamed_addr #0 !dbg !451 {
start:
  %metadata.dbg.spill = alloca i64, align 8
  %data_address.dbg.spill = alloca {}*, align 8
  %_4 = alloca { i8*, i64 }, align 8
  %_3 = alloca %"core::ptr::metadata::PtrRepr<[u8]>", align 8
  store {}* %data_address, {}** %data_address.dbg.spill, align 8
  call void @llvm.dbg.declare(metadata {}** %data_address.dbg.spill, metadata !458, metadata !DIExpression()), !dbg !465
  store i64 %metadata, i64* %metadata.dbg.spill, align 8
  call void @llvm.dbg.declare(metadata i64* %metadata.dbg.spill, metadata !459, metadata !DIExpression()), !dbg !466
  %0 = bitcast { i8*, i64 }* %_4 to {}**, !dbg !467
  store {}* %data_address, {}** %0, align 8, !dbg !467
  %1 = getelementptr inbounds { i8*, i64 }, { i8*, i64 }* %_4, i32 0, i32 1, !dbg !467
  store i64 %metadata, i64* %1, align 8, !dbg !467
  %2 = bitcast %"core::ptr::metadata::PtrRepr<[u8]>"* %_3 to { i8*, i64 }*, !dbg !468
  %3 = getelementptr inbounds { i8*, i64 }, { i8*, i64 }* %_4, i32 0, i32 0, !dbg !468
  %4 = load i8*, i8** %3, align 8, !dbg !468
  %5 = getelementptr inbounds { i8*, i64 }, { i8*, i64 }* %_4, i32 0, i32 1, !dbg !468
  %6 = load i64, i64* %5, align 8, !dbg !468
  %7 = getelementptr inbounds { i8*, i64 }, { i8*, i64 }* %2, i32 0, i32 0, !dbg !468
  store i8* %4, i8** %7, align 8, !dbg !468
  %8 = getelementptr inbounds { i8*, i64 }, { i8*, i64 }* %2, i32 0, i32 1, !dbg !468
  store i64 %6, i64* %8, align 8, !dbg !468
  %9 = bitcast %"core::ptr::metadata::PtrRepr<[u8]>"* %_3 to { [0 x i8]*, i64 }*, !dbg !468
  %10 = getelementptr inbounds { [0 x i8]*, i64 }, { [0 x i8]*, i64 }* %9, i32 0, i32 0, !dbg !468
  %11 = load [0 x i8]*, [0 x i8]** %10, align 8, !dbg !468
  %12 = getelementptr inbounds { [0 x i8]*, i64 }, { [0 x i8]*, i64 }* %9, i32 0, i32 1, !dbg !468
  %13 = load i64, i64* %12, align 8, !dbg !468
  %14 = insertvalue { [0 x i8]*, i64 } undef, [0 x i8]* %11, 0, !dbg !469
  %15 = insertvalue { [0 x i8]*, i64 } %14, i64 %13, 1, !dbg !469
  ret { [0 x i8]*, i64 } %15, !dbg !469
}

; core::ptr::metadata::from_raw_parts
; Function Attrs: inlinehint nounwind
define { [0 x i64]*, i64 } @_ZN4core3ptr8metadata14from_raw_parts17h94e10ad2084f768cE({}* %data_address, i64 %metadata) unnamed_addr #0 !dbg !470 {
start:
  %metadata.dbg.spill = alloca i64, align 8
  %data_address.dbg.spill = alloca {}*, align 8
  %_4 = alloca { i8*, i64 }, align 8
  %_3 = alloca %"core::ptr::metadata::PtrRepr<[u64]>", align 8
  store {}* %data_address, {}** %data_address.dbg.spill, align 8
  call void @llvm.dbg.declare(metadata {}** %data_address.dbg.spill, metadata !474, metadata !DIExpression()), !dbg !479
  store i64 %metadata, i64* %metadata.dbg.spill, align 8
  call void @llvm.dbg.declare(metadata i64* %metadata.dbg.spill, metadata !475, metadata !DIExpression()), !dbg !480
  %0 = bitcast { i8*, i64 }* %_4 to {}**, !dbg !481
  store {}* %data_address, {}** %0, align 8, !dbg !481
  %1 = getelementptr inbounds { i8*, i64 }, { i8*, i64 }* %_4, i32 0, i32 1, !dbg !481
  store i64 %metadata, i64* %1, align 8, !dbg !481
  %2 = bitcast %"core::ptr::metadata::PtrRepr<[u64]>"* %_3 to { i8*, i64 }*, !dbg !482
  %3 = getelementptr inbounds { i8*, i64 }, { i8*, i64 }* %_4, i32 0, i32 0, !dbg !482
  %4 = load i8*, i8** %3, align 8, !dbg !482
  %5 = getelementptr inbounds { i8*, i64 }, { i8*, i64 }* %_4, i32 0, i32 1, !dbg !482
  %6 = load i64, i64* %5, align 8, !dbg !482
  %7 = getelementptr inbounds { i8*, i64 }, { i8*, i64 }* %2, i32 0, i32 0, !dbg !482
  store i8* %4, i8** %7, align 8, !dbg !482
  %8 = getelementptr inbounds { i8*, i64 }, { i8*, i64 }* %2, i32 0, i32 1, !dbg !482
  store i64 %6, i64* %8, align 8, !dbg !482
  %9 = bitcast %"core::ptr::metadata::PtrRepr<[u64]>"* %_3 to { [0 x i64]*, i64 }*, !dbg !482
  %10 = getelementptr inbounds { [0 x i64]*, i64 }, { [0 x i64]*, i64 }* %9, i32 0, i32 0, !dbg !482
  %11 = load [0 x i64]*, [0 x i64]** %10, align 8, !dbg !482
  %12 = getelementptr inbounds { [0 x i64]*, i64 }, { [0 x i64]*, i64 }* %9, i32 0, i32 1, !dbg !482
  %13 = load i64, i64* %12, align 8, !dbg !482
  %14 = insertvalue { [0 x i64]*, i64 } undef, [0 x i64]* %11, 0, !dbg !483
  %15 = insertvalue { [0 x i64]*, i64 } %14, i64 %13, 1, !dbg !483
  ret { [0 x i64]*, i64 } %15, !dbg !483
}

; core::ptr::non_null::NonNull<T>::new_unchecked
; Function Attrs: inlinehint nounwind
define nonnull i64* @"_ZN4core3ptr8non_null16NonNull$LT$T$GT$13new_unchecked17ha204180a7b418cb8E"(i64* %ptr) unnamed_addr #0 !dbg !484 {
start:
  %ptr.dbg.spill = alloca i64*, align 8
  %0 = alloca i64*, align 8
  store i64* %ptr, i64** %ptr.dbg.spill, align 8
  call void @llvm.dbg.declare(metadata i64** %ptr.dbg.spill, metadata !493, metadata !DIExpression()), !dbg !494
  store i64* %ptr, i64** %0, align 8, !dbg !495
  %1 = load i64*, i64** %0, align 8, !dbg !496, !nonnull !4
  ret i64* %1, !dbg !496
}

; core::ptr::non_null::NonNull<T>::as_ptr
; Function Attrs: inlinehint nounwind
define i64* @"_ZN4core3ptr8non_null16NonNull$LT$T$GT$6as_ptr17h0e931d49e82229bdE"(i64* nonnull %self) unnamed_addr #0 !dbg !497 {
start:
  %self.dbg.spill = alloca i64*, align 8
  store i64* %self, i64** %self.dbg.spill, align 8
  call void @llvm.dbg.declare(metadata i64** %self.dbg.spill, metadata !501, metadata !DIExpression()), !dbg !502
  ret i64* %self, !dbg !503
}

; core::ptr::const_ptr::<impl *const T>::guaranteed_eq
; Function Attrs: inlinehint nounwind
define zeroext i1 @"_ZN4core3ptr9const_ptr33_$LT$impl$u20$$BP$const$u20$T$GT$13guaranteed_eq17hc7b54feebc9c2453E"(i8* %self, i8* %other) unnamed_addr #0 !dbg !504 {
start:
  %0 = alloca i8, align 1
  %other.dbg.spill = alloca i8*, align 8
  %self.dbg.spill = alloca i8*, align 8
  store i8* %self, i8** %self.dbg.spill, align 8
  call void @llvm.dbg.declare(metadata i8** %self.dbg.spill, metadata !508, metadata !DIExpression()), !dbg !510
  store i8* %other, i8** %other.dbg.spill, align 8
  call void @llvm.dbg.declare(metadata i8** %other.dbg.spill, metadata !509, metadata !DIExpression()), !dbg !511
  %1 = icmp eq i8* %self, %other, !dbg !512
  %2 = zext i1 %1 to i8, !dbg !512
  store i8 %2, i8* %0, align 1, !dbg !512
  %3 = load i8, i8* %0, align 1, !dbg !512, !range !439
  %4 = trunc i8 %3 to i1, !dbg !512
  br label %bb1, !dbg !512

bb1:                                              ; preds = %start
  ret i1 %4, !dbg !513
}

; core::ptr::const_ptr::<impl *const T>::cast
; Function Attrs: inlinehint nounwind
define {}* @"_ZN4core3ptr9const_ptr33_$LT$impl$u20$$BP$const$u20$T$GT$4cast17h384ab39543a9b011E"(i8* %self) unnamed_addr #0 !dbg !514 {
start:
  %self.dbg.spill = alloca i8*, align 8
  store i8* %self, i8** %self.dbg.spill, align 8
  call void @llvm.dbg.declare(metadata i8** %self.dbg.spill, metadata !518, metadata !DIExpression()), !dbg !521
  %0 = bitcast i8* %self to {}*, !dbg !522
  ret {}* %0, !dbg !523
}

; core::ptr::const_ptr::<impl *const T>::cast
; Function Attrs: inlinehint nounwind
define {}* @"_ZN4core3ptr9const_ptr33_$LT$impl$u20$$BP$const$u20$T$GT$4cast17h44266de9bba853b1E"(i64* %self) unnamed_addr #0 !dbg !524 {
start:
  %self.dbg.spill = alloca i64*, align 8
  store i64* %self, i64** %self.dbg.spill, align 8
  call void @llvm.dbg.declare(metadata i64** %self.dbg.spill, metadata !528, metadata !DIExpression()), !dbg !530
  %0 = bitcast i64* %self to {}*, !dbg !531
  ret {}* %0, !dbg !532
}

; core::ptr::const_ptr::<impl *const T>::is_null
; Function Attrs: inlinehint nounwind
define zeroext i1 @"_ZN4core3ptr9const_ptr33_$LT$impl$u20$$BP$const$u20$T$GT$7is_null17h63411b0d7619e779E"(i64* %self) unnamed_addr #0 !dbg !533 {
start:
  %self.dbg.spill = alloca i64*, align 8
  store i64* %self, i64** %self.dbg.spill, align 8
  call void @llvm.dbg.declare(metadata i64** %self.dbg.spill, metadata !537, metadata !DIExpression()), !dbg !538
  %_2 = bitcast i64* %self to i8*, !dbg !539
  br label %bb1, !dbg !540

bb1:                                              ; preds = %start
; call core::ptr::const_ptr::<impl *const T>::guaranteed_eq
  %0 = call zeroext i1 @"_ZN4core3ptr9const_ptr33_$LT$impl$u20$$BP$const$u20$T$GT$13guaranteed_eq17hc7b54feebc9c2453E"(i8* %_2, i8* null), !dbg !539
  br label %bb2, !dbg !539

bb2:                                              ; preds = %bb1
  ret i1 %0, !dbg !541
}

; core::ptr::const_ptr::<impl *const [T]>::as_ptr
; Function Attrs: inlinehint nounwind
define i8* @"_ZN4core3ptr9const_ptr43_$LT$impl$u20$$BP$const$u20$$u5b$T$u5d$$GT$6as_ptr17h46f3085f8537b5a0E"([0 x i8]* %self.0, i64 %self.1) unnamed_addr #0 !dbg !542 {
start:
  %self.dbg.spill = alloca { [0 x i8]*, i64 }, align 8
  %0 = getelementptr inbounds { [0 x i8]*, i64 }, { [0 x i8]*, i64 }* %self.dbg.spill, i32 0, i32 0
  store [0 x i8]* %self.0, [0 x i8]** %0, align 8
  %1 = getelementptr inbounds { [0 x i8]*, i64 }, { [0 x i8]*, i64 }* %self.dbg.spill, i32 0, i32 1
  store i64 %self.1, i64* %1, align 8
  call void @llvm.dbg.declare(metadata { [0 x i8]*, i64 }* %self.dbg.spill, metadata !547, metadata !DIExpression()), !dbg !548
  %2 = bitcast [0 x i8]* %self.0 to i8*, !dbg !549
  ret i8* %2, !dbg !550
}

; core::ptr::const_ptr::<impl *const [T]>::as_ptr
; Function Attrs: inlinehint nounwind
define i64* @"_ZN4core3ptr9const_ptr43_$LT$impl$u20$$BP$const$u20$$u5b$T$u5d$$GT$6as_ptr17hf603e550c87e2b45E"([0 x i64]* %self.0, i64 %self.1) unnamed_addr #0 !dbg !551 {
start:
  %self.dbg.spill = alloca { [0 x i64]*, i64 }, align 8
  %0 = getelementptr inbounds { [0 x i64]*, i64 }, { [0 x i64]*, i64 }* %self.dbg.spill, i32 0, i32 0
  store [0 x i64]* %self.0, [0 x i64]** %0, align 8
  %1 = getelementptr inbounds { [0 x i64]*, i64 }, { [0 x i64]*, i64 }* %self.dbg.spill, i32 0, i32 1
  store i64 %self.1, i64* %1, align 8
  call void @llvm.dbg.declare(metadata { [0 x i64]*, i64 }* %self.dbg.spill, metadata !555, metadata !DIExpression()), !dbg !556
  %2 = bitcast [0 x i64]* %self.0 to i64*, !dbg !557
  ret i64* %2, !dbg !558
}

; core::array::<impl core::convert::TryFrom<&[T]> for &[T; N]>::try_from
; Function Attrs: nounwind
define align 1 dereferenceable_or_null(2) i8* @"_ZN4core5array102_$LT$impl$u20$core..convert..TryFrom$LT$$RF$$u5b$T$u5d$$GT$$u20$for$u20$$RF$$u5b$T$u3b$$u20$N$u5d$$GT$8try_from17h417c9a7102f68270E"([0 x i8]* nonnull align 1 %slice.0, i64 %slice.1) unnamed_addr #1 !dbg !559 {
start:
  %ptr.dbg.spill = alloca [2 x i8]*, align 8
  %slice.dbg.spill = alloca { [0 x i8]*, i64 }, align 8
  %0 = alloca i8*, align 8
  %1 = getelementptr inbounds { [0 x i8]*, i64 }, { [0 x i8]*, i64 }* %slice.dbg.spill, i32 0, i32 0
  store [0 x i8]* %slice.0, [0 x i8]** %1, align 8
  %2 = getelementptr inbounds { [0 x i8]*, i64 }, { [0 x i8]*, i64 }* %slice.dbg.spill, i32 0, i32 1
  store i64 %slice.1, i64* %2, align 8
  call void @llvm.dbg.declare(metadata { [0 x i8]*, i64 }* %slice.dbg.spill, metadata !583, metadata !DIExpression()), !dbg !587
  %_2 = icmp eq i64 %slice.1, 2, !dbg !588
  br i1 %_2, label %bb1, label %bb3, !dbg !588

bb3:                                              ; preds = %start
  %3 = bitcast i8** %0 to {}**, !dbg !589
  store {}* null, {}** %3, align 8, !dbg !589
  br label %bb4, !dbg !590

bb1:                                              ; preds = %start
; call core::slice::<impl [T]>::as_ptr
  %_6 = call i8* @"_ZN4core5slice29_$LT$impl$u20$$u5b$T$u5d$$GT$6as_ptr17hc092bea656b17644E"([0 x i8]* nonnull align 1 %slice.0, i64 %slice.1), !dbg !591
  br label %bb2, !dbg !591

bb2:                                              ; preds = %bb1
  %ptr = bitcast i8* %_6 to [2 x i8]*, !dbg !591
  store [2 x i8]* %ptr, [2 x i8]** %ptr.dbg.spill, align 8, !dbg !591
  call void @llvm.dbg.declare(metadata [2 x i8]** %ptr.dbg.spill, metadata !584, metadata !DIExpression()), !dbg !592
  %4 = bitcast i8** %0 to [2 x i8]**, !dbg !593
  store [2 x i8]* %ptr, [2 x i8]** %4, align 8, !dbg !593
  br label %bb4, !dbg !590

bb4:                                              ; preds = %bb3, %bb2
  %5 = load i8*, i8** %0, align 8, !dbg !594
  ret i8* %5, !dbg !594
}

; core::array::<impl core::convert::TryFrom<&[T]> for &[T; N]>::try_from
; Function Attrs: nounwind
define align 1 dereferenceable_or_null(4) i8* @"_ZN4core5array102_$LT$impl$u20$core..convert..TryFrom$LT$$RF$$u5b$T$u5d$$GT$$u20$for$u20$$RF$$u5b$T$u3b$$u20$N$u5d$$GT$8try_from17h4614ce6495c2044dE"([0 x i8]* nonnull align 1 %slice.0, i64 %slice.1) unnamed_addr #1 !dbg !595 {
start:
  %ptr.dbg.spill = alloca [4 x i8]*, align 8
  %slice.dbg.spill = alloca { [0 x i8]*, i64 }, align 8
  %0 = alloca i8*, align 8
  %1 = getelementptr inbounds { [0 x i8]*, i64 }, { [0 x i8]*, i64 }* %slice.dbg.spill, i32 0, i32 0
  store [0 x i8]* %slice.0, [0 x i8]** %1, align 8
  %2 = getelementptr inbounds { [0 x i8]*, i64 }, { [0 x i8]*, i64 }* %slice.dbg.spill, i32 0, i32 1
  store i64 %slice.1, i64* %2, align 8
  call void @llvm.dbg.declare(metadata { [0 x i8]*, i64 }* %slice.dbg.spill, metadata !614, metadata !DIExpression()), !dbg !618
  %_2 = icmp eq i64 %slice.1, 4, !dbg !619
  br i1 %_2, label %bb1, label %bb3, !dbg !619

bb3:                                              ; preds = %start
  %3 = bitcast i8** %0 to {}**, !dbg !620
  store {}* null, {}** %3, align 8, !dbg !620
  br label %bb4, !dbg !621

bb1:                                              ; preds = %start
; call core::slice::<impl [T]>::as_ptr
  %_6 = call i8* @"_ZN4core5slice29_$LT$impl$u20$$u5b$T$u5d$$GT$6as_ptr17hc092bea656b17644E"([0 x i8]* nonnull align 1 %slice.0, i64 %slice.1), !dbg !622
  br label %bb2, !dbg !622

bb2:                                              ; preds = %bb1
  %ptr = bitcast i8* %_6 to [4 x i8]*, !dbg !622
  store [4 x i8]* %ptr, [4 x i8]** %ptr.dbg.spill, align 8, !dbg !622
  call void @llvm.dbg.declare(metadata [4 x i8]** %ptr.dbg.spill, metadata !615, metadata !DIExpression()), !dbg !623
  %4 = bitcast i8** %0 to [4 x i8]**, !dbg !624
  store [4 x i8]* %ptr, [4 x i8]** %4, align 8, !dbg !624
  br label %bb4, !dbg !621

bb4:                                              ; preds = %bb3, %bb2
  %5 = load i8*, i8** %0, align 8, !dbg !625
  ret i8* %5, !dbg !625
}

; core::array::<impl core::ops::index::Index<I> for [T; N]>::index
; Function Attrs: inlinehint nounwind
define { [0 x i8]*, i64 } @"_ZN4core5array85_$LT$impl$u20$core..ops..index..Index$LT$I$GT$$u20$for$u20$$u5b$T$u3b$$u20$N$u5d$$GT$5index17h02cc879486f20253E"([8 x i8]* align 1 dereferenceable(8) %self, i64 %index, %"core::panic::Location"* align 8 dereferenceable(24) %0) unnamed_addr #0 !dbg !626 {
start:
  %index.dbg.spill = alloca i64, align 8
  %self.dbg.spill = alloca [8 x i8]*, align 8
  store [8 x i8]* %self, [8 x i8]** %self.dbg.spill, align 8
  call void @llvm.dbg.declare(metadata [8 x i8]** %self.dbg.spill, metadata !632, metadata !DIExpression()), !dbg !636
  store i64 %index, i64* %index.dbg.spill, align 8
  call void @llvm.dbg.declare(metadata i64* %index.dbg.spill, metadata !633, metadata !DIExpression()), !dbg !637
  %_4.0 = bitcast [8 x i8]* %self to [0 x i8]*, !dbg !638
; call core::slice::index::<impl core::ops::index::Index<I> for [T]>::index
  %1 = call { [0 x i8]*, i64 } @"_ZN4core5slice5index74_$LT$impl$u20$core..ops..index..Index$LT$I$GT$$u20$for$u20$$u5b$T$u5d$$GT$5index17h881742a61c27bcedE"([0 x i8]* nonnull align 1 %_4.0, i64 8, i64 %index, %"core::panic::Location"* align 8 dereferenceable(24) %0), !dbg !639
  %2 = extractvalue { [0 x i8]*, i64 } %1, 0, !dbg !639
  %3 = extractvalue { [0 x i8]*, i64 } %1, 1, !dbg !639
  br label %bb1, !dbg !639

bb1:                                              ; preds = %start
  %4 = insertvalue { [0 x i8]*, i64 } undef, [0 x i8]* %2, 0, !dbg !640
  %5 = insertvalue { [0 x i8]*, i64 } %4, i64 %3, 1, !dbg !640
  ret { [0 x i8]*, i64 } %5, !dbg !640
}

; core::array::<impl core::ops::index::Index<I> for [T; N]>::index
; Function Attrs: inlinehint nounwind
define { [0 x i64]*, i64 } @"_ZN4core5array85_$LT$impl$u20$core..ops..index..Index$LT$I$GT$$u20$for$u20$$u5b$T$u3b$$u20$N$u5d$$GT$5index17hd89bae1e5b99dfd3E"([24 x i64]* align 8 dereferenceable(192) %self, i64 %index.0, i64 %index.1, %"core::panic::Location"* align 8 dereferenceable(24) %0) unnamed_addr #0 !dbg !641 {
start:
  %index.dbg.spill = alloca { i64, i64 }, align 8
  %self.dbg.spill = alloca [24 x i64]*, align 8
  store [24 x i64]* %self, [24 x i64]** %self.dbg.spill, align 8
  call void @llvm.dbg.declare(metadata [24 x i64]** %self.dbg.spill, metadata !649, metadata !DIExpression()), !dbg !653
  %1 = getelementptr inbounds { i64, i64 }, { i64, i64 }* %index.dbg.spill, i32 0, i32 0
  store i64 %index.0, i64* %1, align 8
  %2 = getelementptr inbounds { i64, i64 }, { i64, i64 }* %index.dbg.spill, i32 0, i32 1
  store i64 %index.1, i64* %2, align 8
  call void @llvm.dbg.declare(metadata { i64, i64 }* %index.dbg.spill, metadata !650, metadata !DIExpression()), !dbg !654
  %_4.0 = bitcast [24 x i64]* %self to [0 x i64]*, !dbg !655
; call core::slice::index::<impl core::ops::index::Index<I> for [T]>::index
  %3 = call { [0 x i64]*, i64 } @"_ZN4core5slice5index74_$LT$impl$u20$core..ops..index..Index$LT$I$GT$$u20$for$u20$$u5b$T$u5d$$GT$5index17h3ec55093c71b0506E"([0 x i64]* nonnull align 8 %_4.0, i64 24, i64 %index.0, i64 %index.1, %"core::panic::Location"* align 8 dereferenceable(24) %0), !dbg !656
  %4 = extractvalue { [0 x i64]*, i64 } %3, 0, !dbg !656
  %5 = extractvalue { [0 x i64]*, i64 } %3, 1, !dbg !656
  br label %bb1, !dbg !656

bb1:                                              ; preds = %start
  %6 = insertvalue { [0 x i64]*, i64 } undef, [0 x i64]* %4, 0, !dbg !657
  %7 = insertvalue { [0 x i64]*, i64 } %6, i64 %5, 1, !dbg !657
  ret { [0 x i64]*, i64 } %7, !dbg !657
}

; core::array::<impl core::convert::TryFrom<&[T]> for [T; N]>::try_from
; Function Attrs: nounwind
define i40 @"_ZN4core5array98_$LT$impl$u20$core..convert..TryFrom$LT$$RF$$u5b$T$u5d$$GT$$u20$for$u20$$u5b$T$u3b$$u20$N$u5d$$GT$8try_from17ha60fd5c2d8d8f465E"([0 x i8]* nonnull align 1 %slice.0, i64 %slice.1) unnamed_addr #1 !dbg !658 {
start:
  %0 = alloca i40, align 8
  %slice.dbg.spill = alloca { [0 x i8]*, i64 }, align 8
  %1 = alloca %"core::result::Result<[u8; 4], core::array::TryFromSliceError>", align 1
  %2 = getelementptr inbounds { [0 x i8]*, i64 }, { [0 x i8]*, i64 }* %slice.dbg.spill, i32 0, i32 0
  store [0 x i8]* %slice.0, [0 x i8]** %2, align 8
  %3 = getelementptr inbounds { [0 x i8]*, i64 }, { [0 x i8]*, i64 }* %slice.dbg.spill, i32 0, i32 1
  store i64 %slice.1, i64* %3, align 8
  call void @llvm.dbg.declare(metadata { [0 x i8]*, i64 }* %slice.dbg.spill, metadata !678, metadata !DIExpression()), !dbg !679
; call core::array::<impl core::convert::TryFrom<&[T]> for &[T; N]>::try_from
  %_2 = call align 1 dereferenceable_or_null(4) i8* @"_ZN4core5array102_$LT$impl$u20$core..convert..TryFrom$LT$$RF$$u5b$T$u5d$$GT$$u20$for$u20$$RF$$u5b$T$u3b$$u20$N$u5d$$GT$8try_from17h4614ce6495c2044dE"([0 x i8]* nonnull align 1 %slice.0, i64 %slice.1), !dbg !680
  br label %bb1, !dbg !680

bb1:                                              ; preds = %start
; call core::result::Result<T,E>::map
  %4 = call i40 @"_ZN4core6result19Result$LT$T$C$E$GT$3map17h08d8936a0ede7cacE"(i8* align 1 dereferenceable_or_null(4) %_2), !dbg !680
  store i40 %4, i40* %0, align 8, !dbg !680
  %5 = bitcast %"core::result::Result<[u8; 4], core::array::TryFromSliceError>"* %1 to i8*, !dbg !680
  %6 = bitcast i40* %0 to i8*, !dbg !680
  call void @llvm.memcpy.p0i8.p0i8.i64(i8* align 1 %5, i8* align 8 %6, i64 5, i1 false), !dbg !680
  br label %bb2, !dbg !680

bb2:                                              ; preds = %bb1
  %7 = bitcast %"core::result::Result<[u8; 4], core::array::TryFromSliceError>"* %1 to i40*, !dbg !681
  %8 = load i40, i40* %7, align 1, !dbg !681
  ret i40 %8, !dbg !681
}

; core::array::<impl core::convert::TryFrom<&[T]> for [T; N]>::try_from
; Function Attrs: nounwind
define i24 @"_ZN4core5array98_$LT$impl$u20$core..convert..TryFrom$LT$$RF$$u5b$T$u5d$$GT$$u20$for$u20$$u5b$T$u3b$$u20$N$u5d$$GT$8try_from17ha80f2df158bbdc24E"([0 x i8]* nonnull align 1 %slice.0, i64 %slice.1) unnamed_addr #1 !dbg !682 {
start:
  %0 = alloca i24, align 4
  %slice.dbg.spill = alloca { [0 x i8]*, i64 }, align 8
  %1 = alloca %"core::result::Result<[u8; 2], core::array::TryFromSliceError>", align 1
  %2 = getelementptr inbounds { [0 x i8]*, i64 }, { [0 x i8]*, i64 }* %slice.dbg.spill, i32 0, i32 0
  store [0 x i8]* %slice.0, [0 x i8]** %2, align 8
  %3 = getelementptr inbounds { [0 x i8]*, i64 }, { [0 x i8]*, i64 }* %slice.dbg.spill, i32 0, i32 1
  store i64 %slice.1, i64* %3, align 8
  call void @llvm.dbg.declare(metadata { [0 x i8]*, i64 }* %slice.dbg.spill, metadata !700, metadata !DIExpression()), !dbg !701
; call core::array::<impl core::convert::TryFrom<&[T]> for &[T; N]>::try_from
  %_2 = call align 1 dereferenceable_or_null(2) i8* @"_ZN4core5array102_$LT$impl$u20$core..convert..TryFrom$LT$$RF$$u5b$T$u5d$$GT$$u20$for$u20$$RF$$u5b$T$u3b$$u20$N$u5d$$GT$8try_from17h417c9a7102f68270E"([0 x i8]* nonnull align 1 %slice.0, i64 %slice.1), !dbg !702
  br label %bb1, !dbg !702

bb1:                                              ; preds = %start
; call core::result::Result<T,E>::map
  %4 = call i24 @"_ZN4core6result19Result$LT$T$C$E$GT$3map17h54c46905a29d1c39E"(i8* align 1 dereferenceable_or_null(2) %_2), !dbg !702
  store i24 %4, i24* %0, align 4, !dbg !702
  %5 = bitcast %"core::result::Result<[u8; 2], core::array::TryFromSliceError>"* %1 to i8*, !dbg !702
  %6 = bitcast i24* %0 to i8*, !dbg !702
  call void @llvm.memcpy.p0i8.p0i8.i64(i8* align 1 %5, i8* align 4 %6, i64 3, i1 false), !dbg !702
  br label %bb2, !dbg !702

bb2:                                              ; preds = %bb1
  %7 = bitcast %"core::result::Result<[u8; 2], core::array::TryFromSliceError>"* %1 to i24*, !dbg !703
  %8 = load i24, i24* %7, align 1, !dbg !703
  ret i24 %8, !dbg !703
}

; core::array::<impl core::convert::TryFrom<&[T]> for [T; N]>::try_from::{{closure}}
; Function Attrs: inlinehint nounwind
define i32 @"_ZN4core5array98_$LT$impl$u20$core..convert..TryFrom$LT$$RF$$u5b$T$u5d$$GT$$u20$for$u20$$u5b$T$u3b$$u20$N$u5d$$GT$8try_from28_$u7b$$u7b$closure$u7d$$u7d$17h79547e3872a086aaE"([4 x i8]* align 1 dereferenceable(4) %r) unnamed_addr #0 !dbg !704 {
start:
  %r.dbg.spill = alloca [4 x i8]*, align 8
  %_1.dbg.spill = alloca %"[closure@core::array::<impl core::convert::TryFrom<&[u8]> for [u8; 4]>::try_from::{closure#0}]", align 1
  %0 = alloca [4 x i8], align 1
  call void @llvm.dbg.declare(metadata %"[closure@core::array::<impl core::convert::TryFrom<&[u8]> for [u8; 4]>::try_from::{closure#0}]"* %_1.dbg.spill, metadata !711, metadata !DIExpression()), !dbg !712
  store [4 x i8]* %r, [4 x i8]** %r.dbg.spill, align 8
  call void @llvm.dbg.declare(metadata [4 x i8]** %r.dbg.spill, metadata !710, metadata !DIExpression()), !dbg !713
  %1 = bitcast [4 x i8]* %0 to i8*, !dbg !714
  %2 = bitcast [4 x i8]* %r to i8*, !dbg !714
  call void @llvm.memcpy.p0i8.p0i8.i64(i8* align 1 %1, i8* align 1 %2, i64 4, i1 false), !dbg !714
  %3 = bitcast [4 x i8]* %0 to i32*, !dbg !715
  %4 = load i32, i32* %3, align 1, !dbg !715
  ret i32 %4, !dbg !715
}

; core::array::<impl core::convert::TryFrom<&[T]> for [T; N]>::try_from::{{closure}}
; Function Attrs: inlinehint nounwind
define i16 @"_ZN4core5array98_$LT$impl$u20$core..convert..TryFrom$LT$$RF$$u5b$T$u5d$$GT$$u20$for$u20$$u5b$T$u3b$$u20$N$u5d$$GT$8try_from28_$u7b$$u7b$closure$u7d$$u7d$17hecd0014bcc26bf4bE"([2 x i8]* align 1 dereferenceable(2) %r) unnamed_addr #0 !dbg !716 {
start:
  %r.dbg.spill = alloca [2 x i8]*, align 8
  %_1.dbg.spill = alloca %"[closure@core::array::<impl core::convert::TryFrom<&[u8]> for [u8; 2]>::try_from::{closure#0}]", align 1
  %0 = alloca [2 x i8], align 1
  call void @llvm.dbg.declare(metadata %"[closure@core::array::<impl core::convert::TryFrom<&[u8]> for [u8; 2]>::try_from::{closure#0}]"* %_1.dbg.spill, metadata !722, metadata !DIExpression()), !dbg !723
  store [2 x i8]* %r, [2 x i8]** %r.dbg.spill, align 8
  call void @llvm.dbg.declare(metadata [2 x i8]** %r.dbg.spill, metadata !721, metadata !DIExpression()), !dbg !724
  %1 = bitcast [2 x i8]* %0 to i8*, !dbg !725
  %2 = bitcast [2 x i8]* %r to i8*, !dbg !725
  call void @llvm.memcpy.p0i8.p0i8.i64(i8* align 1 %1, i8* align 1 %2, i64 2, i1 false), !dbg !725
  %3 = bitcast [2 x i8]* %0 to i16*, !dbg !726
  %4 = load i16, i16* %3, align 1, !dbg !726
  ret i16 %4, !dbg !726
}

; core::slice::<impl [T]>::iter
; Function Attrs: inlinehint nounwind
define { i64*, i64* } @"_ZN4core5slice29_$LT$impl$u20$$u5b$T$u5d$$GT$4iter17h043a224262e05659E"([0 x i64]* nonnull align 8 %self.0, i64 %self.1) unnamed_addr #0 !dbg !727 {
start:
  %self.dbg.spill = alloca { [0 x i64]*, i64 }, align 8
  %0 = getelementptr inbounds { [0 x i64]*, i64 }, { [0 x i64]*, i64 }* %self.dbg.spill, i32 0, i32 0
  store [0 x i64]* %self.0, [0 x i64]** %0, align 8
  %1 = getelementptr inbounds { [0 x i64]*, i64 }, { [0 x i64]*, i64 }* %self.dbg.spill, i32 0, i32 1
  store i64 %self.1, i64* %1, align 8
  call void @llvm.dbg.declare(metadata { [0 x i64]*, i64 }* %self.dbg.spill, metadata !744, metadata !DIExpression()), !dbg !745
; call core::slice::iter::Iter<T>::new
  %2 = call { i64*, i64* } @"_ZN4core5slice4iter13Iter$LT$T$GT$3new17ha1c12fb6c067f813E"([0 x i64]* nonnull align 8 %self.0, i64 %self.1), !dbg !746
  %3 = extractvalue { i64*, i64* } %2, 0, !dbg !746
  %4 = extractvalue { i64*, i64* } %2, 1, !dbg !746
  br label %bb1, !dbg !746

bb1:                                              ; preds = %start
  %5 = insertvalue { i64*, i64* } undef, i64* %3, 0, !dbg !747
  %6 = insertvalue { i64*, i64* } %5, i64* %4, 1, !dbg !747
  ret { i64*, i64* } %6, !dbg !747
}

; core::slice::<impl [T]>::as_ptr
; Function Attrs: inlinehint nounwind
define i64* @"_ZN4core5slice29_$LT$impl$u20$$u5b$T$u5d$$GT$6as_ptr17ha9f0ca203b8780ecE"([0 x i64]* nonnull align 8 %self.0, i64 %self.1) unnamed_addr #0 !dbg !748 {
start:
  %self.dbg.spill = alloca { [0 x i64]*, i64 }, align 8
  %0 = getelementptr inbounds { [0 x i64]*, i64 }, { [0 x i64]*, i64 }* %self.dbg.spill, i32 0, i32 0
  store [0 x i64]* %self.0, [0 x i64]** %0, align 8
  %1 = getelementptr inbounds { [0 x i64]*, i64 }, { [0 x i64]*, i64 }* %self.dbg.spill, i32 0, i32 1
  store i64 %self.1, i64* %1, align 8
  call void @llvm.dbg.declare(metadata { [0 x i64]*, i64 }* %self.dbg.spill, metadata !752, metadata !DIExpression()), !dbg !753
  %2 = bitcast [0 x i64]* %self.0 to i64*, !dbg !754
  ret i64* %2, !dbg !755
}

; core::slice::<impl [T]>::as_ptr
; Function Attrs: inlinehint nounwind
define i8* @"_ZN4core5slice29_$LT$impl$u20$$u5b$T$u5d$$GT$6as_ptr17hc092bea656b17644E"([0 x i8]* nonnull align 1 %self.0, i64 %self.1) unnamed_addr #0 !dbg !756 {
start:
  %self.dbg.spill = alloca { [0 x i8]*, i64 }, align 8
  %0 = getelementptr inbounds { [0 x i8]*, i64 }, { [0 x i8]*, i64 }* %self.dbg.spill, i32 0, i32 0
  store [0 x i8]* %self.0, [0 x i8]** %0, align 8
  %1 = getelementptr inbounds { [0 x i8]*, i64 }, { [0 x i8]*, i64 }* %self.dbg.spill, i32 0, i32 1
  store i64 %self.1, i64* %1, align 8
  call void @llvm.dbg.declare(metadata { [0 x i8]*, i64 }* %self.dbg.spill, metadata !760, metadata !DIExpression()), !dbg !761
  %2 = bitcast [0 x i8]* %self.0 to i8*, !dbg !762
  ret i8* %2, !dbg !763
}

; core::slice::iter::Iter<T>::new
; Function Attrs: inlinehint nounwind
define { i64*, i64* } @"_ZN4core5slice4iter13Iter$LT$T$GT$3new17ha1c12fb6c067f813E"([0 x i64]* nonnull align 8 %slice.0, i64 %slice.1) unnamed_addr #0 !dbg !764 {
start:
  %0 = alloca i64*, align 8
  %count.dbg.spill.i.i1 = alloca i64, align 8
  %self.dbg.spill.i.i2 = alloca i64*, align 8
  %count.dbg.spill.i3 = alloca i64, align 8
  %self.dbg.spill.i4 = alloca i64*, align 8
  %1 = alloca i8*, align 8
  %count.dbg.spill.i.i = alloca i64, align 8
  %self.dbg.spill.i.i = alloca i8*, align 8
  %count.dbg.spill.i = alloca i64, align 8
  %self.dbg.spill.i = alloca i8*, align 8
  %ptr.dbg.spill = alloca i64*, align 8
  %slice.dbg.spill = alloca { [0 x i64]*, i64 }, align 8
  %end = alloca i64*, align 8
  %2 = alloca { i64*, i64* }, align 8
  %3 = getelementptr inbounds { [0 x i64]*, i64 }, { [0 x i64]*, i64 }* %slice.dbg.spill, i32 0, i32 0
  store [0 x i64]* %slice.0, [0 x i64]** %3, align 8
  %4 = getelementptr inbounds { [0 x i64]*, i64 }, { [0 x i64]*, i64 }* %slice.dbg.spill, i32 0, i32 1
  store i64 %slice.1, i64* %4, align 8
  call void @llvm.dbg.declare(metadata { [0 x i64]*, i64 }* %slice.dbg.spill, metadata !767, metadata !DIExpression()), !dbg !772
  call void @llvm.dbg.declare(metadata i64** %end, metadata !770, metadata !DIExpression()), !dbg !773
; call core::slice::<impl [T]>::as_ptr
  %ptr = call i64* @"_ZN4core5slice29_$LT$impl$u20$$u5b$T$u5d$$GT$6as_ptr17ha9f0ca203b8780ecE"([0 x i64]* nonnull align 8 %slice.0, i64 %slice.1), !dbg !774
  store i64* %ptr, i64** %ptr.dbg.spill, align 8, !dbg !774
  call void @llvm.dbg.declare(metadata i64** %ptr.dbg.spill, metadata !768, metadata !DIExpression()), !dbg !775
  br label %bb1, !dbg !774

bb1:                                              ; preds = %start
; call core::ptr::const_ptr::<impl *const T>::is_null
  %_6 = call zeroext i1 @"_ZN4core3ptr9const_ptr33_$LT$impl$u20$$BP$const$u20$T$GT$7is_null17h63411b0d7619e779E"(i64* %ptr), !dbg !776
  br label %bb2, !dbg !776

bb2:                                              ; preds = %bb1
  %_5 = xor i1 %_6, true, !dbg !777
  call void @llvm.assume(i1 %_5), !dbg !778
  br label %bb3, !dbg !778

bb3:                                              ; preds = %bb2
  br label %bb4, !dbg !779

bb4:                                              ; preds = %bb3
  %5 = icmp eq i64 8, 0, !dbg !779
  br i1 %5, label %bb5, label %bb7, !dbg !779

bb5:                                              ; preds = %bb4
  %_11 = bitcast i64* %ptr to i8*, !dbg !780
  store i8* %_11, i8** %self.dbg.spill.i, align 8
  call void @llvm.dbg.declare(metadata i8** %self.dbg.spill.i, metadata !781, metadata !DIExpression()), !dbg !785
  store i64 %slice.1, i64* %count.dbg.spill.i, align 8
  call void @llvm.dbg.declare(metadata i64* %count.dbg.spill.i, metadata !784, metadata !DIExpression()), !dbg !787
  store i8* %_11, i8** %self.dbg.spill.i.i, align 8
  call void @llvm.dbg.declare(metadata i8** %self.dbg.spill.i.i, metadata !788, metadata !DIExpression()), !dbg !792
  store i64 %slice.1, i64* %count.dbg.spill.i.i, align 8
  call void @llvm.dbg.declare(metadata i64* %count.dbg.spill.i.i, metadata !791, metadata !DIExpression()), !dbg !794
  %6 = getelementptr i8, i8* %_11, i64 %slice.1, !dbg !795
  store i8* %6, i8** %1, align 8, !dbg !795
  %7 = load i8*, i8** %1, align 8, !dbg !795
  br label %bb6, !dbg !780

bb7:                                              ; preds = %bb4
  store i64* %ptr, i64** %self.dbg.spill.i4, align 8
  call void @llvm.dbg.declare(metadata i64** %self.dbg.spill.i4, metadata !90, metadata !DIExpression()), !dbg !796
  store i64 %slice.1, i64* %count.dbg.spill.i3, align 8
  call void @llvm.dbg.declare(metadata i64* %count.dbg.spill.i3, metadata !95, metadata !DIExpression()), !dbg !798
  store i64* %ptr, i64** %self.dbg.spill.i.i2, align 8
  call void @llvm.dbg.declare(metadata i64** %self.dbg.spill.i.i2, metadata !99, metadata !DIExpression()), !dbg !799
  store i64 %slice.1, i64* %count.dbg.spill.i.i1, align 8
  call void @llvm.dbg.declare(metadata i64* %count.dbg.spill.i.i1, metadata !104, metadata !DIExpression()), !dbg !801
  %8 = getelementptr inbounds i64, i64* %ptr, i64 %slice.1, !dbg !802
  store i64* %8, i64** %0, align 8, !dbg !802
  %9 = load i64*, i64** %0, align 8, !dbg !802
  store i64* %9, i64** %end, align 8, !dbg !803
  br label %bb8, !dbg !803

bb8:                                              ; preds = %bb7
  br label %bb9, !dbg !804

bb9:                                              ; preds = %bb6, %bb8
; call core::ptr::non_null::NonNull<T>::new_unchecked
  %_18 = call nonnull i64* @"_ZN4core3ptr8non_null16NonNull$LT$T$GT$13new_unchecked17ha204180a7b418cb8E"(i64* %ptr), !dbg !805
  br label %bb10, !dbg !805

bb6:                                              ; preds = %bb5
  %10 = bitcast i8* %7 to i64*, !dbg !780
  store i64* %10, i64** %end, align 8, !dbg !780
  br label %bb9, !dbg !804

bb10:                                             ; preds = %bb9
  %_21 = load i64*, i64** %end, align 8, !dbg !806
  %11 = bitcast { i64*, i64* }* %2 to i64**, !dbg !807
  store i64* %_18, i64** %11, align 8, !dbg !807
  %12 = getelementptr inbounds { i64*, i64* }, { i64*, i64* }* %2, i32 0, i32 1, !dbg !807
  store i64* %_21, i64** %12, align 8, !dbg !807
  %13 = getelementptr inbounds { i64*, i64* }, { i64*, i64* }* %2, i32 0, i32 0, !dbg !808
  %14 = load i64*, i64** %13, align 8, !dbg !808, !nonnull !4
  %15 = getelementptr inbounds { i64*, i64* }, { i64*, i64* }* %2, i32 0, i32 1, !dbg !808
  %16 = load i64*, i64** %15, align 8, !dbg !808
  %17 = insertvalue { i64*, i64* } undef, i64* %14, 0, !dbg !808
  %18 = insertvalue { i64*, i64* } %17, i64* %16, 1, !dbg !808
  ret { i64*, i64* } %18, !dbg !808
}

; core::slice::iter::<impl core::iter::traits::collect::IntoIterator for &[T]>::into_iter
; Function Attrs: nounwind
define { i64*, i64* } @"_ZN4core5slice4iter87_$LT$impl$u20$core..iter..traits..collect..IntoIterator$u20$for$u20$$RF$$u5b$T$u5d$$GT$9into_iter17h075a022857b14582E"([0 x i64]* nonnull align 8 %self.0, i64 %self.1) unnamed_addr #1 !dbg !809 {
start:
  %self.dbg.spill = alloca { [0 x i64]*, i64 }, align 8
  %0 = getelementptr inbounds { [0 x i64]*, i64 }, { [0 x i64]*, i64 }* %self.dbg.spill, i32 0, i32 0
  store [0 x i64]* %self.0, [0 x i64]** %0, align 8
  %1 = getelementptr inbounds { [0 x i64]*, i64 }, { [0 x i64]*, i64 }* %self.dbg.spill, i32 0, i32 1
  store i64 %self.1, i64* %1, align 8
  call void @llvm.dbg.declare(metadata { [0 x i64]*, i64 }* %self.dbg.spill, metadata !812, metadata !DIExpression()), !dbg !813
; call core::slice::<impl [T]>::iter
  %2 = call { i64*, i64* } @"_ZN4core5slice29_$LT$impl$u20$$u5b$T$u5d$$GT$4iter17h043a224262e05659E"([0 x i64]* nonnull align 8 %self.0, i64 %self.1), !dbg !814
  %3 = extractvalue { i64*, i64* } %2, 0, !dbg !814
  %4 = extractvalue { i64*, i64* } %2, 1, !dbg !814
  br label %bb1, !dbg !814

bb1:                                              ; preds = %start
  %5 = insertvalue { i64*, i64* } undef, i64* %3, 0, !dbg !815
  %6 = insertvalue { i64*, i64* } %5, i64* %4, 1, !dbg !815
  ret { i64*, i64* } %6, !dbg !815
}

; core::slice::index::<impl core::ops::index::Index<I> for [T]>::index
; Function Attrs: inlinehint nounwind
define { [0 x i64]*, i64 } @"_ZN4core5slice5index74_$LT$impl$u20$core..ops..index..Index$LT$I$GT$$u20$for$u20$$u5b$T$u5d$$GT$5index17h3ec55093c71b0506E"([0 x i64]* nonnull align 8 %self.0, i64 %self.1, i64 %index.0, i64 %index.1, %"core::panic::Location"* align 8 dereferenceable(24) %0) unnamed_addr #0 !dbg !816 {
start:
  %index.dbg.spill = alloca { i64, i64 }, align 8
  %self.dbg.spill = alloca { [0 x i64]*, i64 }, align 8
  %1 = getelementptr inbounds { [0 x i64]*, i64 }, { [0 x i64]*, i64 }* %self.dbg.spill, i32 0, i32 0
  store [0 x i64]* %self.0, [0 x i64]** %1, align 8
  %2 = getelementptr inbounds { [0 x i64]*, i64 }, { [0 x i64]*, i64 }* %self.dbg.spill, i32 0, i32 1
  store i64 %self.1, i64* %2, align 8
  call void @llvm.dbg.declare(metadata { [0 x i64]*, i64 }* %self.dbg.spill, metadata !821, metadata !DIExpression()), !dbg !823
  %3 = getelementptr inbounds { i64, i64 }, { i64, i64 }* %index.dbg.spill, i32 0, i32 0
  store i64 %index.0, i64* %3, align 8
  %4 = getelementptr inbounds { i64, i64 }, { i64, i64 }* %index.dbg.spill, i32 0, i32 1
  store i64 %index.1, i64* %4, align 8
  call void @llvm.dbg.declare(metadata { i64, i64 }* %index.dbg.spill, metadata !822, metadata !DIExpression()), !dbg !824
; call <core::ops::range::Range<usize> as core::slice::index::SliceIndex<[T]>>::index
  %5 = call { [0 x i64]*, i64 } @"_ZN106_$LT$core..ops..range..Range$LT$usize$GT$$u20$as$u20$core..slice..index..SliceIndex$LT$$u5b$T$u5d$$GT$$GT$5index17h455a979ba90827d9E"(i64 %index.0, i64 %index.1, [0 x i64]* nonnull align 8 %self.0, i64 %self.1, %"core::panic::Location"* align 8 dereferenceable(24) %0), !dbg !825
  %6 = extractvalue { [0 x i64]*, i64 } %5, 0, !dbg !825
  %7 = extractvalue { [0 x i64]*, i64 } %5, 1, !dbg !825
  br label %bb1, !dbg !825

bb1:                                              ; preds = %start
  %8 = insertvalue { [0 x i64]*, i64 } undef, [0 x i64]* %6, 0, !dbg !826
  %9 = insertvalue { [0 x i64]*, i64 } %8, i64 %7, 1, !dbg !826
  ret { [0 x i64]*, i64 } %9, !dbg !826
}

; core::slice::index::<impl core::ops::index::Index<I> for [T]>::index
; Function Attrs: inlinehint nounwind
define { [0 x i8]*, i64 } @"_ZN4core5slice5index74_$LT$impl$u20$core..ops..index..Index$LT$I$GT$$u20$for$u20$$u5b$T$u5d$$GT$5index17h881742a61c27bcedE"([0 x i8]* nonnull align 1 %self.0, i64 %self.1, i64 %index, %"core::panic::Location"* align 8 dereferenceable(24) %0) unnamed_addr #0 !dbg !827 {
start:
  %index.dbg.spill = alloca i64, align 8
  %self.dbg.spill = alloca { [0 x i8]*, i64 }, align 8
  %1 = getelementptr inbounds { [0 x i8]*, i64 }, { [0 x i8]*, i64 }* %self.dbg.spill, i32 0, i32 0
  store [0 x i8]* %self.0, [0 x i8]** %1, align 8
  %2 = getelementptr inbounds { [0 x i8]*, i64 }, { [0 x i8]*, i64 }* %self.dbg.spill, i32 0, i32 1
  store i64 %self.1, i64* %2, align 8
  call void @llvm.dbg.declare(metadata { [0 x i8]*, i64 }* %self.dbg.spill, metadata !831, metadata !DIExpression()), !dbg !833
  store i64 %index, i64* %index.dbg.spill, align 8
  call void @llvm.dbg.declare(metadata i64* %index.dbg.spill, metadata !832, metadata !DIExpression()), !dbg !834
; call <core::ops::range::RangeTo<usize> as core::slice::index::SliceIndex<[T]>>::index
  %3 = call { [0 x i8]*, i64 } @"_ZN108_$LT$core..ops..range..RangeTo$LT$usize$GT$$u20$as$u20$core..slice..index..SliceIndex$LT$$u5b$T$u5d$$GT$$GT$5index17h96e372e8f02c54dbE"(i64 %index, [0 x i8]* nonnull align 1 %self.0, i64 %self.1, %"core::panic::Location"* align 8 dereferenceable(24) %0), !dbg !835
  %4 = extractvalue { [0 x i8]*, i64 } %3, 0, !dbg !835
  %5 = extractvalue { [0 x i8]*, i64 } %3, 1, !dbg !835
  br label %bb1, !dbg !835

bb1:                                              ; preds = %start
  %6 = insertvalue { [0 x i8]*, i64 } undef, [0 x i8]* %4, 0, !dbg !836
  %7 = insertvalue { [0 x i8]*, i64 } %6, i64 %5, 1, !dbg !836
  ret { [0 x i8]*, i64 } %7, !dbg !836
}

; core::result::Result<T,E>::map
; Function Attrs: inlinehint nounwind
define i40 @"_ZN4core6result19Result$LT$T$C$E$GT$3map17h08d8936a0ede7cacE"(i8* align 1 dereferenceable_or_null(4) %0) unnamed_addr #0 !dbg !837 {
start:
  %1 = alloca i32, align 4
  %t.dbg.spill = alloca [4 x i8]*, align 8
  %e.dbg.spill = alloca %"core::array::TryFromSliceError", align 1
  %op.dbg.spill = alloca %"[closure@core::array::<impl core::convert::TryFrom<&[u8]> for [u8; 4]>::try_from::{closure#0}]", align 1
  %_11 = alloca i8, align 1
  %_7 = alloca i8*, align 8
  %_5 = alloca [4 x i8], align 1
  %2 = alloca %"core::result::Result<[u8; 4], core::array::TryFromSliceError>", align 1
  %self = alloca i8*, align 8
  store i8* %0, i8** %self, align 8
  call void @llvm.dbg.declare(metadata i8** %self, metadata !842, metadata !DIExpression()), !dbg !851
  call void @llvm.dbg.declare(metadata %"[closure@core::array::<impl core::convert::TryFrom<&[u8]> for [u8; 4]>::try_from::{closure#0}]"* %op.dbg.spill, metadata !843, metadata !DIExpression()), !dbg !852
  call void @llvm.dbg.declare(metadata %"core::array::TryFromSliceError"* %e.dbg.spill, metadata !846, metadata !DIExpression()), !dbg !853
  store i8 0, i8* %_11, align 1, !dbg !854
  store i8 1, i8* %_11, align 1, !dbg !854
  %3 = bitcast i8** %self to {}**, !dbg !854
  %4 = load {}*, {}** %3, align 8, !dbg !854
  %5 = icmp eq {}* %4, null, !dbg !854
  %_3 = select i1 %5, i64 1, i64 0, !dbg !854
  switch i64 %_3, label %bb2 [
    i64 0, label %bb3
    i64 1, label %bb1
  ], !dbg !855

bb2:                                              ; preds = %start
  unreachable, !dbg !854

bb3:                                              ; preds = %start
  %6 = bitcast i8** %self to [4 x i8]**, !dbg !856
  %t = load [4 x i8]*, [4 x i8]** %6, align 8, !dbg !856, !nonnull !4
  store [4 x i8]* %t, [4 x i8]** %t.dbg.spill, align 8, !dbg !856
  call void @llvm.dbg.declare(metadata [4 x i8]** %t.dbg.spill, metadata !844, metadata !DIExpression()), !dbg !857
  store i8 0, i8* %_11, align 1, !dbg !858
  %7 = bitcast i8** %_7 to [4 x i8]**, !dbg !858
  store [4 x i8]* %t, [4 x i8]** %7, align 8, !dbg !858
  %8 = load i8*, i8** %_7, align 8, !dbg !858, !nonnull !4
  %9 = bitcast i8* %8 to [4 x i8]*, !dbg !858
; call core::array::<impl core::convert::TryFrom<&[T]> for [T; N]>::try_from::{{closure}}
  %10 = call i32 @"_ZN4core5array98_$LT$impl$u20$core..convert..TryFrom$LT$$RF$$u5b$T$u5d$$GT$$u20$for$u20$$u5b$T$u3b$$u20$N$u5d$$GT$8try_from28_$u7b$$u7b$closure$u7d$$u7d$17h79547e3872a086aaE"([4 x i8]* align 1 dereferenceable(4) %9), !dbg !858
  store i32 %10, i32* %1, align 4, !dbg !858
  %11 = bitcast [4 x i8]* %_5 to i8*, !dbg !858
  %12 = bitcast i32* %1 to i8*, !dbg !858
  call void @llvm.memcpy.p0i8.p0i8.i64(i8* align 1 %11, i8* align 4 %12, i64 4, i1 false), !dbg !858
  br label %bb4, !dbg !858

bb1:                                              ; preds = %start
  %13 = bitcast %"core::result::Result<[u8; 4], core::array::TryFromSliceError>"* %2 to %"core::result::Result<[u8; 4], core::array::TryFromSliceError>::Err"*, !dbg !859
  %14 = getelementptr inbounds %"core::result::Result<[u8; 4], core::array::TryFromSliceError>::Err", %"core::result::Result<[u8; 4], core::array::TryFromSliceError>::Err"* %13, i32 0, i32 1, !dbg !859
  %15 = bitcast %"core::result::Result<[u8; 4], core::array::TryFromSliceError>"* %2 to i8*, !dbg !859
  store i8 1, i8* %15, align 1, !dbg !859
  br label %bb5, !dbg !860

bb5:                                              ; preds = %bb4, %bb1
  %16 = load i8, i8* %_11, align 1, !dbg !861, !range !439
  %17 = trunc i8 %16 to i1, !dbg !861
  br i1 %17, label %bb7, label %bb6, !dbg !861

bb4:                                              ; preds = %bb3
  %18 = bitcast %"core::result::Result<[u8; 4], core::array::TryFromSliceError>"* %2 to %"core::result::Result<[u8; 4], core::array::TryFromSliceError>::Ok"*, !dbg !862
  %19 = getelementptr inbounds %"core::result::Result<[u8; 4], core::array::TryFromSliceError>::Ok", %"core::result::Result<[u8; 4], core::array::TryFromSliceError>::Ok"* %18, i32 0, i32 1, !dbg !862
  %20 = bitcast [4 x i8]* %19 to i8*, !dbg !862
  %21 = bitcast [4 x i8]* %_5 to i8*, !dbg !862
  call void @llvm.memcpy.p0i8.p0i8.i64(i8* align 1 %20, i8* align 1 %21, i64 4, i1 false), !dbg !862
  %22 = bitcast %"core::result::Result<[u8; 4], core::array::TryFromSliceError>"* %2 to i8*, !dbg !862
  store i8 0, i8* %22, align 1, !dbg !862
  br label %bb5, !dbg !863

bb6:                                              ; preds = %bb7, %bb5
  %23 = bitcast %"core::result::Result<[u8; 4], core::array::TryFromSliceError>"* %2 to i40*, !dbg !864
  %24 = load i40, i40* %23, align 1, !dbg !864
  ret i40 %24, !dbg !864

bb7:                                              ; preds = %bb5
  br label %bb6, !dbg !861
}

; core::result::Result<T,E>::map
; Function Attrs: inlinehint nounwind
define i24 @"_ZN4core6result19Result$LT$T$C$E$GT$3map17h54c46905a29d1c39E"(i8* align 1 dereferenceable_or_null(2) %0) unnamed_addr #0 !dbg !865 {
start:
  %1 = alloca i16, align 2
  %t.dbg.spill = alloca [2 x i8]*, align 8
  %e.dbg.spill = alloca %"core::array::TryFromSliceError", align 1
  %op.dbg.spill = alloca %"[closure@core::array::<impl core::convert::TryFrom<&[u8]> for [u8; 2]>::try_from::{closure#0}]", align 1
  %_11 = alloca i8, align 1
  %_7 = alloca i8*, align 8
  %_5 = alloca [2 x i8], align 1
  %2 = alloca %"core::result::Result<[u8; 2], core::array::TryFromSliceError>", align 1
  %self = alloca i8*, align 8
  store i8* %0, i8** %self, align 8
  call void @llvm.dbg.declare(metadata i8** %self, metadata !869, metadata !DIExpression()), !dbg !878
  call void @llvm.dbg.declare(metadata %"[closure@core::array::<impl core::convert::TryFrom<&[u8]> for [u8; 2]>::try_from::{closure#0}]"* %op.dbg.spill, metadata !870, metadata !DIExpression()), !dbg !879
  call void @llvm.dbg.declare(metadata %"core::array::TryFromSliceError"* %e.dbg.spill, metadata !873, metadata !DIExpression()), !dbg !880
  store i8 0, i8* %_11, align 1, !dbg !881
  store i8 1, i8* %_11, align 1, !dbg !881
  %3 = bitcast i8** %self to {}**, !dbg !881
  %4 = load {}*, {}** %3, align 8, !dbg !881
  %5 = icmp eq {}* %4, null, !dbg !881
  %_3 = select i1 %5, i64 1, i64 0, !dbg !881
  switch i64 %_3, label %bb2 [
    i64 0, label %bb3
    i64 1, label %bb1
  ], !dbg !882

bb2:                                              ; preds = %start
  unreachable, !dbg !881

bb3:                                              ; preds = %start
  %6 = bitcast i8** %self to [2 x i8]**, !dbg !883
  %t = load [2 x i8]*, [2 x i8]** %6, align 8, !dbg !883, !nonnull !4
  store [2 x i8]* %t, [2 x i8]** %t.dbg.spill, align 8, !dbg !883
  call void @llvm.dbg.declare(metadata [2 x i8]** %t.dbg.spill, metadata !871, metadata !DIExpression()), !dbg !884
  store i8 0, i8* %_11, align 1, !dbg !885
  %7 = bitcast i8** %_7 to [2 x i8]**, !dbg !885
  store [2 x i8]* %t, [2 x i8]** %7, align 8, !dbg !885
  %8 = load i8*, i8** %_7, align 8, !dbg !885, !nonnull !4
  %9 = bitcast i8* %8 to [2 x i8]*, !dbg !885
; call core::array::<impl core::convert::TryFrom<&[T]> for [T; N]>::try_from::{{closure}}
  %10 = call i16 @"_ZN4core5array98_$LT$impl$u20$core..convert..TryFrom$LT$$RF$$u5b$T$u5d$$GT$$u20$for$u20$$u5b$T$u3b$$u20$N$u5d$$GT$8try_from28_$u7b$$u7b$closure$u7d$$u7d$17hecd0014bcc26bf4bE"([2 x i8]* align 1 dereferenceable(2) %9), !dbg !885
  store i16 %10, i16* %1, align 2, !dbg !885
  %11 = bitcast [2 x i8]* %_5 to i8*, !dbg !885
  %12 = bitcast i16* %1 to i8*, !dbg !885
  call void @llvm.memcpy.p0i8.p0i8.i64(i8* align 1 %11, i8* align 2 %12, i64 2, i1 false), !dbg !885
  br label %bb4, !dbg !885

bb1:                                              ; preds = %start
  %13 = bitcast %"core::result::Result<[u8; 2], core::array::TryFromSliceError>"* %2 to %"core::result::Result<[u8; 2], core::array::TryFromSliceError>::Err"*, !dbg !886
  %14 = getelementptr inbounds %"core::result::Result<[u8; 2], core::array::TryFromSliceError>::Err", %"core::result::Result<[u8; 2], core::array::TryFromSliceError>::Err"* %13, i32 0, i32 1, !dbg !886
  %15 = bitcast %"core::result::Result<[u8; 2], core::array::TryFromSliceError>"* %2 to i8*, !dbg !886
  store i8 1, i8* %15, align 1, !dbg !886
  br label %bb5, !dbg !887

bb5:                                              ; preds = %bb4, %bb1
  %16 = load i8, i8* %_11, align 1, !dbg !888, !range !439
  %17 = trunc i8 %16 to i1, !dbg !888
  br i1 %17, label %bb7, label %bb6, !dbg !888

bb4:                                              ; preds = %bb3
  %18 = bitcast %"core::result::Result<[u8; 2], core::array::TryFromSliceError>"* %2 to %"core::result::Result<[u8; 2], core::array::TryFromSliceError>::Ok"*, !dbg !889
  %19 = getelementptr inbounds %"core::result::Result<[u8; 2], core::array::TryFromSliceError>::Ok", %"core::result::Result<[u8; 2], core::array::TryFromSliceError>::Ok"* %18, i32 0, i32 1, !dbg !889
  %20 = bitcast [2 x i8]* %19 to i8*, !dbg !889
  %21 = bitcast [2 x i8]* %_5 to i8*, !dbg !889
  call void @llvm.memcpy.p0i8.p0i8.i64(i8* align 1 %20, i8* align 1 %21, i64 2, i1 false), !dbg !889
  %22 = bitcast %"core::result::Result<[u8; 2], core::array::TryFromSliceError>"* %2 to i8*, !dbg !889
  store i8 0, i8* %22, align 1, !dbg !889
  br label %bb5, !dbg !890

bb6:                                              ; preds = %bb7, %bb5
  %23 = bitcast %"core::result::Result<[u8; 2], core::array::TryFromSliceError>"* %2 to i24*, !dbg !891
  %24 = load i24, i24* %23, align 1, !dbg !891
  ret i24 %24, !dbg !891

bb7:                                              ; preds = %bb5
  br label %bb6, !dbg !888
}

; core::result::Result<T,E>::unwrap
; Function Attrs: inlinehint nounwind
define i32 @"_ZN4core6result19Result$LT$T$C$E$GT$6unwrap17h3fae0bd53c91d030E"(i40 %0, %"core::panic::Location"* align 8 dereferenceable(24) %1) unnamed_addr #0 !dbg !892 {
start:
  %e = alloca %"core::array::TryFromSliceError", align 1
  %t = alloca [4 x i8], align 1
  %2 = alloca i40, align 8
  %self = alloca %"core::result::Result<[u8; 4], core::array::TryFromSliceError>", align 1
  store i40 %0, i40* %2, align 8
  %3 = bitcast %"core::result::Result<[u8; 4], core::array::TryFromSliceError>"* %self to i8*
  %4 = bitcast i40* %2 to i8*
  call void @llvm.memcpy.p0i8.p0i8.i64(i8* align 1 %3, i8* align 8 %4, i64 5, i1 false)
  call void @llvm.dbg.declare(metadata [4 x i8]* %t, metadata !897, metadata !DIExpression()), !dbg !901
  call void @llvm.dbg.declare(metadata %"core::result::Result<[u8; 4], core::array::TryFromSliceError>"* %self, metadata !896, metadata !DIExpression()), !dbg !902
  call void @llvm.dbg.declare(metadata %"core::array::TryFromSliceError"* %e, metadata !899, metadata !DIExpression()), !dbg !903
  %5 = bitcast %"core::result::Result<[u8; 4], core::array::TryFromSliceError>"* %self to i8*, !dbg !904
  %6 = load i8, i8* %5, align 1, !dbg !904, !range !439
  %7 = trunc i8 %6 to i1, !dbg !904
  %_2 = zext i1 %7 to i64, !dbg !904
  switch i64 %_2, label %bb2 [
    i64 0, label %bb3
    i64 1, label %bb1
  ], !dbg !905

bb2:                                              ; preds = %start
  unreachable, !dbg !904

bb3:                                              ; preds = %start
  %8 = bitcast %"core::result::Result<[u8; 4], core::array::TryFromSliceError>"* %self to %"core::result::Result<[u8; 4], core::array::TryFromSliceError>::Ok"*, !dbg !906
  %9 = getelementptr inbounds %"core::result::Result<[u8; 4], core::array::TryFromSliceError>::Ok", %"core::result::Result<[u8; 4], core::array::TryFromSliceError>::Ok"* %8, i32 0, i32 1, !dbg !906
  %10 = bitcast [4 x i8]* %t to i8*, !dbg !906
  %11 = bitcast [4 x i8]* %9 to i8*, !dbg !906
  call void @llvm.memcpy.p0i8.p0i8.i64(i8* align 1 %10, i8* align 1 %11, i64 4, i1 false), !dbg !906
  %12 = bitcast [4 x i8]* %t to i32*, !dbg !907
  %13 = load i32, i32* %12, align 1, !dbg !907
  ret i32 %13, !dbg !907

bb1:                                              ; preds = %start
  %_6.0 = bitcast %"core::array::TryFromSliceError"* %e to {}*, !dbg !908
; call core::result::unwrap_failed
  call void @_ZN4core6result13unwrap_failed17h84047e2415998400E([0 x i8]* nonnull align 1 bitcast (<{ [43 x i8] }>* @alloc774 to [0 x i8]*), i64 43, {}* nonnull align 1 %_6.0, [3 x i64]* align 8 dereferenceable(24) bitcast (<{ i8*, [16 x i8], i8*, [0 x i8] }>* @vtable.0 to [3 x i64]*), %"core::panic::Location"* align 8 dereferenceable(24) %1), !dbg !909
  unreachable, !dbg !909
}

; core::result::Result<T,E>::unwrap
; Function Attrs: inlinehint nounwind
define i16 @"_ZN4core6result19Result$LT$T$C$E$GT$6unwrap17h88e98e20fef5dfa1E"(i24 %0, %"core::panic::Location"* align 8 dereferenceable(24) %1) unnamed_addr #0 !dbg !910 {
start:
  %e = alloca %"core::array::TryFromSliceError", align 1
  %t = alloca [2 x i8], align 1
  %2 = alloca i24, align 4
  %self = alloca %"core::result::Result<[u8; 2], core::array::TryFromSliceError>", align 1
  store i24 %0, i24* %2, align 4
  %3 = bitcast %"core::result::Result<[u8; 2], core::array::TryFromSliceError>"* %self to i8*
  %4 = bitcast i24* %2 to i8*
  call void @llvm.memcpy.p0i8.p0i8.i64(i8* align 1 %3, i8* align 4 %4, i64 3, i1 false)
  call void @llvm.dbg.declare(metadata [2 x i8]* %t, metadata !915, metadata !DIExpression()), !dbg !919
  call void @llvm.dbg.declare(metadata %"core::result::Result<[u8; 2], core::array::TryFromSliceError>"* %self, metadata !914, metadata !DIExpression()), !dbg !920
  call void @llvm.dbg.declare(metadata %"core::array::TryFromSliceError"* %e, metadata !917, metadata !DIExpression()), !dbg !921
  %5 = bitcast %"core::result::Result<[u8; 2], core::array::TryFromSliceError>"* %self to i8*, !dbg !922
  %6 = load i8, i8* %5, align 1, !dbg !922, !range !439
  %7 = trunc i8 %6 to i1, !dbg !922
  %_2 = zext i1 %7 to i64, !dbg !922
  switch i64 %_2, label %bb2 [
    i64 0, label %bb3
    i64 1, label %bb1
  ], !dbg !923

bb2:                                              ; preds = %start
  unreachable, !dbg !922

bb3:                                              ; preds = %start
  %8 = bitcast %"core::result::Result<[u8; 2], core::array::TryFromSliceError>"* %self to %"core::result::Result<[u8; 2], core::array::TryFromSliceError>::Ok"*, !dbg !924
  %9 = getelementptr inbounds %"core::result::Result<[u8; 2], core::array::TryFromSliceError>::Ok", %"core::result::Result<[u8; 2], core::array::TryFromSliceError>::Ok"* %8, i32 0, i32 1, !dbg !924
  %10 = bitcast [2 x i8]* %t to i8*, !dbg !924
  %11 = bitcast [2 x i8]* %9 to i8*, !dbg !924
  call void @llvm.memcpy.p0i8.p0i8.i64(i8* align 1 %10, i8* align 1 %11, i64 2, i1 false), !dbg !924
  %12 = bitcast [2 x i8]* %t to i16*, !dbg !925
  %13 = load i16, i16* %12, align 1, !dbg !925
  ret i16 %13, !dbg !925

bb1:                                              ; preds = %start
  %_6.0 = bitcast %"core::array::TryFromSliceError"* %e to {}*, !dbg !926
; call core::result::unwrap_failed
  call void @_ZN4core6result13unwrap_failed17h84047e2415998400E([0 x i8]* nonnull align 1 bitcast (<{ [43 x i8] }>* @alloc774 to [0 x i8]*), i64 43, {}* nonnull align 1 %_6.0, [3 x i64]* align 8 dereferenceable(24) bitcast (<{ i8*, [16 x i8], i8*, [0 x i8] }>* @vtable.0 to [3 x i64]*), %"core::panic::Location"* align 8 dereferenceable(24) %1), !dbg !927
  unreachable, !dbg !927
}

; <u8 as core::ops::bit::BitXorAssign>::bitxor_assign
; Function Attrs: inlinehint nounwind
define internal void @"_ZN51_$LT$u8$u20$as$u20$core..ops..bit..BitXorAssign$GT$13bitxor_assign17he8a335848d46562cE"(i8* align 1 dereferenceable(1) %self, i8 %other) unnamed_addr #0 !dbg !928 {
start:
  %other.dbg.spill = alloca i8, align 1
  %self.dbg.spill = alloca i8*, align 8
  store i8* %self, i8** %self.dbg.spill, align 8
  call void @llvm.dbg.declare(metadata i8** %self.dbg.spill, metadata !934, metadata !DIExpression()), !dbg !936
  store i8 %other, i8* %other.dbg.spill, align 1
  call void @llvm.dbg.declare(metadata i8* %other.dbg.spill, metadata !935, metadata !DIExpression()), !dbg !937
  %0 = load i8, i8* %self, align 1, !dbg !938
  %1 = xor i8 %0, %other, !dbg !938
  store i8 %1, i8* %self, align 1, !dbg !938
  ret void, !dbg !939
}

; <u16 as core::ops::bit::BitXorAssign>::bitxor_assign
; Function Attrs: inlinehint nounwind
define internal void @"_ZN52_$LT$u16$u20$as$u20$core..ops..bit..BitXorAssign$GT$13bitxor_assign17h31e5266abf633167E"(i16* align 2 dereferenceable(2) %self, i16 %other) unnamed_addr #0 !dbg !940 {
start:
  %other.dbg.spill = alloca i16, align 2
  %self.dbg.spill = alloca i16*, align 8
  store i16* %self, i16** %self.dbg.spill, align 8
  call void @llvm.dbg.declare(metadata i16** %self.dbg.spill, metadata !946, metadata !DIExpression()), !dbg !948
  store i16 %other, i16* %other.dbg.spill, align 2
  call void @llvm.dbg.declare(metadata i16* %other.dbg.spill, metadata !947, metadata !DIExpression()), !dbg !949
  %0 = load i16, i16* %self, align 2, !dbg !950
  %1 = xor i16 %0, %other, !dbg !950
  store i16 %1, i16* %self, align 2, !dbg !950
  ret void, !dbg !951
}

; <u32 as core::ops::bit::BitXorAssign>::bitxor_assign
; Function Attrs: inlinehint nounwind
define internal void @"_ZN52_$LT$u32$u20$as$u20$core..ops..bit..BitXorAssign$GT$13bitxor_assign17hccba5339ea8aa874E"(i32* align 4 dereferenceable(4) %self, i32 %other) unnamed_addr #0 !dbg !952 {
start:
  %other.dbg.spill = alloca i32, align 4
  %self.dbg.spill = alloca i32*, align 8
  store i32* %self, i32** %self.dbg.spill, align 8
  call void @llvm.dbg.declare(metadata i32** %self.dbg.spill, metadata !958, metadata !DIExpression()), !dbg !960
  store i32 %other, i32* %other.dbg.spill, align 4
  call void @llvm.dbg.declare(metadata i32* %other.dbg.spill, metadata !959, metadata !DIExpression()), !dbg !961
  %0 = load i32, i32* %self, align 4, !dbg !962
  %1 = xor i32 %0, %other, !dbg !962
  store i32 %1, i32* %self, align 4, !dbg !962
  ret void, !dbg !963
}

; <u64 as core::ops::bit::BitXorAssign>::bitxor_assign
; Function Attrs: inlinehint nounwind
define internal void @"_ZN52_$LT$u64$u20$as$u20$core..ops..bit..BitXorAssign$GT$13bitxor_assign17h04adaa63ce404956E"(i64* align 8 dereferenceable(8) %self, i64 %other) unnamed_addr #0 !dbg !964 {
start:
  %other.dbg.spill = alloca i64, align 8
  %self.dbg.spill = alloca i64*, align 8
  store i64* %self, i64** %self.dbg.spill, align 8
  call void @llvm.dbg.declare(metadata i64** %self.dbg.spill, metadata !970, metadata !DIExpression()), !dbg !972
  store i64 %other, i64* %other.dbg.spill, align 8
  call void @llvm.dbg.declare(metadata i64* %other.dbg.spill, metadata !971, metadata !DIExpression()), !dbg !973
  %0 = load i64, i64* %self, align 8, !dbg !974
  %1 = xor i64 %0, %other, !dbg !974
  store i64 %1, i64* %self, align 8, !dbg !974
  ret void, !dbg !975
}

; <T as core::convert::TryInto<U>>::try_into
; Function Attrs: nounwind
define i40 @"_ZN53_$LT$T$u20$as$u20$core..convert..TryInto$LT$U$GT$$GT$8try_into17h37193647f1a37b40E"([0 x i8]* nonnull align 1 %self.0, i64 %self.1) unnamed_addr #1 !dbg !976 {
start:
  %0 = alloca i40, align 8
  %self.dbg.spill = alloca { [0 x i8]*, i64 }, align 8
  %1 = alloca %"core::result::Result<[u8; 4], core::array::TryFromSliceError>", align 1
  %2 = getelementptr inbounds { [0 x i8]*, i64 }, { [0 x i8]*, i64 }* %self.dbg.spill, i32 0, i32 0
  store [0 x i8]* %self.0, [0 x i8]** %2, align 8
  %3 = getelementptr inbounds { [0 x i8]*, i64 }, { [0 x i8]*, i64 }* %self.dbg.spill, i32 0, i32 1
  store i64 %self.1, i64* %3, align 8
  call void @llvm.dbg.declare(metadata { [0 x i8]*, i64 }* %self.dbg.spill, metadata !981, metadata !DIExpression()), !dbg !984
; call core::array::<impl core::convert::TryFrom<&[T]> for [T; N]>::try_from
  %4 = call i40 @"_ZN4core5array98_$LT$impl$u20$core..convert..TryFrom$LT$$RF$$u5b$T$u5d$$GT$$u20$for$u20$$u5b$T$u3b$$u20$N$u5d$$GT$8try_from17ha60fd5c2d8d8f465E"([0 x i8]* nonnull align 1 %self.0, i64 %self.1), !dbg !985
  store i40 %4, i40* %0, align 8, !dbg !985
  %5 = bitcast %"core::result::Result<[u8; 4], core::array::TryFromSliceError>"* %1 to i8*, !dbg !985
  %6 = bitcast i40* %0 to i8*, !dbg !985
  call void @llvm.memcpy.p0i8.p0i8.i64(i8* align 1 %5, i8* align 8 %6, i64 5, i1 false), !dbg !985
  br label %bb1, !dbg !985

bb1:                                              ; preds = %start
  %7 = bitcast %"core::result::Result<[u8; 4], core::array::TryFromSliceError>"* %1 to i40*, !dbg !986
  %8 = load i40, i40* %7, align 1, !dbg !986
  ret i40 %8, !dbg !986
}

; <T as core::convert::TryInto<U>>::try_into
; Function Attrs: nounwind
define i24 @"_ZN53_$LT$T$u20$as$u20$core..convert..TryInto$LT$U$GT$$GT$8try_into17hd471f84b8a47409cE"([0 x i8]* nonnull align 1 %self.0, i64 %self.1) unnamed_addr #1 !dbg !987 {
start:
  %0 = alloca i24, align 4
  %self.dbg.spill = alloca { [0 x i8]*, i64 }, align 8
  %1 = alloca %"core::result::Result<[u8; 2], core::array::TryFromSliceError>", align 1
  %2 = getelementptr inbounds { [0 x i8]*, i64 }, { [0 x i8]*, i64 }* %self.dbg.spill, i32 0, i32 0
  store [0 x i8]* %self.0, [0 x i8]** %2, align 8
  %3 = getelementptr inbounds { [0 x i8]*, i64 }, { [0 x i8]*, i64 }* %self.dbg.spill, i32 0, i32 1
  store i64 %self.1, i64* %3, align 8
  call void @llvm.dbg.declare(metadata { [0 x i8]*, i64 }* %self.dbg.spill, metadata !989, metadata !DIExpression()), !dbg !991
; call core::array::<impl core::convert::TryFrom<&[T]> for [T; N]>::try_from
  %4 = call i24 @"_ZN4core5array98_$LT$impl$u20$core..convert..TryFrom$LT$$RF$$u5b$T$u5d$$GT$$u20$for$u20$$u5b$T$u3b$$u20$N$u5d$$GT$8try_from17ha80f2df158bbdc24E"([0 x i8]* nonnull align 1 %self.0, i64 %self.1), !dbg !992
  store i24 %4, i24* %0, align 4, !dbg !992
  %5 = bitcast %"core::result::Result<[u8; 2], core::array::TryFromSliceError>"* %1 to i8*, !dbg !992
  %6 = bitcast i24* %0 to i8*, !dbg !992
  call void @llvm.memcpy.p0i8.p0i8.i64(i8* align 1 %5, i8* align 4 %6, i64 3, i1 false), !dbg !992
  br label %bb1, !dbg !992

bb1:                                              ; preds = %start
  %7 = bitcast %"core::result::Result<[u8; 2], core::array::TryFromSliceError>"* %1 to i24*, !dbg !993
  %8 = load i24, i24* %7, align 1, !dbg !993
  ret i24 %8, !dbg !993
}

; <core::slice::iter::Iter<T> as core::iter::traits::iterator::Iterator>::next
; Function Attrs: inlinehint nounwind
define align 8 dereferenceable_or_null(8) i64* @"_ZN91_$LT$core..slice..iter..Iter$LT$T$GT$$u20$as$u20$core..iter..traits..iterator..Iterator$GT$4next17hbafd9cbdb64df59eE"({ i64*, i64* }* align 8 dereferenceable(16) %self) unnamed_addr #0 !dbg !994 {
start:
  %0 = alloca i64*, align 8
  %count.dbg.spill.i1.i = alloca i64, align 8
  %self.dbg.spill.i2.i = alloca i64*, align 8
  %old.dbg.spill.i = alloca i64*, align 8
  %offset.dbg.spill.i = alloca i64, align 8
  %self.dbg.spill.i = alloca { i64*, i64* }*, align 8
  %1 = alloca i64*, align 8
  %self.dbg.spill = alloca { i64*, i64* }*, align 8
  %2 = alloca i64*, align 8
  store { i64*, i64* }* %self, { i64*, i64* }** %self.dbg.spill, align 8
  call void @llvm.dbg.declare(metadata { i64*, i64* }** %self.dbg.spill, metadata !1013, metadata !DIExpression()), !dbg !1014
  %3 = bitcast { i64*, i64* }* %self to i64**, !dbg !1015
  %_6 = load i64*, i64** %3, align 8, !dbg !1015, !nonnull !4
; call core::ptr::non_null::NonNull<T>::as_ptr
  %_5 = call i64* @"_ZN4core3ptr8non_null16NonNull$LT$T$GT$6as_ptr17h0e931d49e82229bdE"(i64* nonnull %_6), !dbg !1015
  br label %bb1, !dbg !1015

bb1:                                              ; preds = %start
; call core::ptr::mut_ptr::<impl *mut T>::is_null
  %_4 = call zeroext i1 @"_ZN4core3ptr7mut_ptr31_$LT$impl$u20$$BP$mut$u20$T$GT$7is_null17ha42a77f1ed40fe01E"(i64* %_5), !dbg !1015
  br label %bb2, !dbg !1015

bb2:                                              ; preds = %bb1
  %_3 = xor i1 %_4, true, !dbg !1016
  call void @llvm.assume(i1 %_3), !dbg !1017
  br label %bb3, !dbg !1017

bb3:                                              ; preds = %bb2
  br label %bb4, !dbg !1018

bb4:                                              ; preds = %bb3
  %4 = icmp eq i64 8, 0, !dbg !1018
  br i1 %4, label %bb8, label %bb5, !dbg !1018

bb8:                                              ; preds = %bb4
  br label %bb9, !dbg !1019

bb5:                                              ; preds = %bb4
  %5 = getelementptr inbounds { i64*, i64* }, { i64*, i64* }* %self, i32 0, i32 1, !dbg !1020
  %_11 = load i64*, i64** %5, align 8, !dbg !1020
; call core::ptr::const_ptr::<impl *const T>::is_null
  %_10 = call zeroext i1 @"_ZN4core3ptr9const_ptr33_$LT$impl$u20$$BP$const$u20$T$GT$7is_null17h63411b0d7619e779E"(i64* %_11), !dbg !1020
  br label %bb6, !dbg !1020

bb6:                                              ; preds = %bb5
  %_9 = xor i1 %_10, true, !dbg !1021
  call void @llvm.assume(i1 %_9), !dbg !1022
  br label %bb7, !dbg !1022

bb7:                                              ; preds = %bb6
  br label %bb9, !dbg !1019

bb9:                                              ; preds = %bb8, %bb7
  %6 = bitcast { i64*, i64* }* %self to i64**, !dbg !1023
  %_15 = load i64*, i64** %6, align 8, !dbg !1023, !nonnull !4
; call core::ptr::non_null::NonNull<T>::as_ptr
  %_14 = call i64* @"_ZN4core3ptr8non_null16NonNull$LT$T$GT$6as_ptr17h0e931d49e82229bdE"(i64* nonnull %_15), !dbg !1023
  br label %bb10, !dbg !1023

bb10:                                             ; preds = %bb9
  %7 = getelementptr inbounds { i64*, i64* }, { i64*, i64* }* %self, i32 0, i32 1, !dbg !1023
  %_16 = load i64*, i64** %7, align 8, !dbg !1023
  %_12 = icmp eq i64* %_14, %_16, !dbg !1023
  br i1 %_12, label %bb11, label %bb12, !dbg !1023

bb12:                                             ; preds = %bb10
  store { i64*, i64* }* %self, { i64*, i64* }** %self.dbg.spill.i, align 8
  call void @llvm.dbg.declare(metadata { i64*, i64* }** %self.dbg.spill.i, metadata !1024, metadata !DIExpression()) #8, !dbg !1032
  store i64 1, i64* %offset.dbg.spill.i, align 8
  call void @llvm.dbg.declare(metadata i64* %offset.dbg.spill.i, metadata !1029, metadata !DIExpression()) #8, !dbg !1034
  %8 = bitcast { i64*, i64* }* %self to i64**, !dbg !1035
  %_12.i = load i64*, i64** %8, align 8, !dbg !1035, !nonnull !4
; call core::ptr::non_null::NonNull<T>::as_ptr
  %old.i = call i64* @"_ZN4core3ptr8non_null16NonNull$LT$T$GT$6as_ptr17h0e931d49e82229bdE"(i64* nonnull %_12.i) #8, !dbg !1035
  store i64* %old.i, i64** %old.dbg.spill.i, align 8, !dbg !1035
  call void @llvm.dbg.declare(metadata i64** %old.dbg.spill.i, metadata !1030, metadata !DIExpression()) #8, !dbg !1036
  %9 = bitcast { i64*, i64* }* %self to i64**, !dbg !1037
  %_16.i = load i64*, i64** %9, align 8, !dbg !1037, !nonnull !4
; call core::ptr::non_null::NonNull<T>::as_ptr
  %_15.i = call i64* @"_ZN4core3ptr8non_null16NonNull$LT$T$GT$6as_ptr17h0e931d49e82229bdE"(i64* nonnull %_16.i) #8, !dbg !1037
  store i64* %_15.i, i64** %self.dbg.spill.i2.i, align 8
  call void @llvm.dbg.declare(metadata i64** %self.dbg.spill.i2.i, metadata !1038, metadata !DIExpression()) #8, !dbg !1044
  store i64 1, i64* %count.dbg.spill.i1.i, align 8
  call void @llvm.dbg.declare(metadata i64* %count.dbg.spill.i1.i, metadata !1043, metadata !DIExpression()) #8, !dbg !1046
  %10 = getelementptr inbounds i64, i64* %_15.i, i64 1, !dbg !1047
  store i64* %10, i64** %0, align 8, !dbg !1047
  %_3.i.i = load i64*, i64** %0, align 8, !dbg !1047
; call core::ptr::non_null::NonNull<T>::new_unchecked
  %_13.i = call nonnull i64* @"_ZN4core3ptr8non_null16NonNull$LT$T$GT$13new_unchecked17ha204180a7b418cb8E"(i64* %_3.i.i) #8, !dbg !1048
  %11 = bitcast { i64*, i64* }* %self to i64**, !dbg !1049
  store i64* %_13.i, i64** %11, align 8, !dbg !1049
  store i64* %old.i, i64** %1, align 8, !dbg !1050
  %12 = load i64*, i64** %1, align 8, !dbg !1051
  br label %bb13, !dbg !1052

bb11:                                             ; preds = %bb10
  %13 = bitcast i64** %2 to {}**, !dbg !1053
  store {}* null, {}** %13, align 8, !dbg !1053
  br label %bb14, !dbg !1054

bb14:                                             ; preds = %bb13, %bb11
  %14 = load i64*, i64** %2, align 8, !dbg !1055
  ret i64* %14, !dbg !1055

bb13:                                             ; preds = %bb12
  store i64* %12, i64** %2, align 8, !dbg !1056
  br label %bb14, !dbg !1054
}

; keccak::keccak_p
; Function Attrs: nounwind
define void @_ZN6keccak8keccak_p17h2932c5c0fac695a1E([25 x i64]* align 8 dereferenceable(200) %state, i64 %round_count) unnamed_addr #1 !dbg !1057 {
start:
  %t2.dbg.spill288 = alloca i64, align 8
  %t1.dbg.spill286 = alloca i64, align 8
  %t2.dbg.spill282 = alloca i64, align 8
  %t1.dbg.spill280 = alloca i64, align 8
  %t2.dbg.spill276 = alloca i64, align 8
  %t1.dbg.spill274 = alloca i64, align 8
  %t2.dbg.spill270 = alloca i64, align 8
  %t1.dbg.spill268 = alloca i64, align 8
  %t2.dbg.spill264 = alloca i64, align 8
  %t1.dbg.spill262 = alloca i64, align 8
  %y.dbg.spill252 = alloca i64, align 8
  %t2.dbg.spill249 = alloca i64, align 8
  %t1.dbg.spill247 = alloca i64, align 8
  %t2.dbg.spill243 = alloca i64, align 8
  %t1.dbg.spill241 = alloca i64, align 8
  %t2.dbg.spill237 = alloca i64, align 8
  %t1.dbg.spill235 = alloca i64, align 8
  %t2.dbg.spill231 = alloca i64, align 8
  %t1.dbg.spill229 = alloca i64, align 8
  %t2.dbg.spill225 = alloca i64, align 8
  %t1.dbg.spill223 = alloca i64, align 8
  %y.dbg.spill213 = alloca i64, align 8
  %t2.dbg.spill210 = alloca i64, align 8
  %t1.dbg.spill208 = alloca i64, align 8
  %t2.dbg.spill204 = alloca i64, align 8
  %t1.dbg.spill202 = alloca i64, align 8
  %t2.dbg.spill198 = alloca i64, align 8
  %t1.dbg.spill196 = alloca i64, align 8
  %t2.dbg.spill192 = alloca i64, align 8
  %t1.dbg.spill190 = alloca i64, align 8
  %t2.dbg.spill186 = alloca i64, align 8
  %t1.dbg.spill184 = alloca i64, align 8
  %y.dbg.spill174 = alloca i64, align 8
  %t2.dbg.spill171 = alloca i64, align 8
  %t1.dbg.spill169 = alloca i64, align 8
  %t2.dbg.spill165 = alloca i64, align 8
  %t1.dbg.spill163 = alloca i64, align 8
  %t2.dbg.spill159 = alloca i64, align 8
  %t1.dbg.spill157 = alloca i64, align 8
  %t2.dbg.spill153 = alloca i64, align 8
  %t1.dbg.spill151 = alloca i64, align 8
  %t2.dbg.spill147 = alloca i64, align 8
  %t1.dbg.spill145 = alloca i64, align 8
  %y.dbg.spill135 = alloca i64, align 8
  %t2.dbg.spill132 = alloca i64, align 8
  %t1.dbg.spill130 = alloca i64, align 8
  %t2.dbg.spill126 = alloca i64, align 8
  %t1.dbg.spill124 = alloca i64, align 8
  %t2.dbg.spill120 = alloca i64, align 8
  %t1.dbg.spill118 = alloca i64, align 8
  %t2.dbg.spill114 = alloca i64, align 8
  %t1.dbg.spill112 = alloca i64, align 8
  %t2.dbg.spill108 = alloca i64, align 8
  %t1.dbg.spill106 = alloca i64, align 8
  %y.dbg.spill = alloca i64, align 8
  %t2.dbg.spill96 = alloca i64, align 8
  %t1.dbg.spill94 = alloca i64, align 8
  %t2.dbg.spill92 = alloca i64, align 8
  %t1.dbg.spill90 = alloca i64, align 8
  %t2.dbg.spill88 = alloca i64, align 8
  %t1.dbg.spill86 = alloca i64, align 8
  %t2.dbg.spill84 = alloca i64, align 8
  %t1.dbg.spill82 = alloca i64, align 8
  %t2.dbg.spill80 = alloca i64, align 8
  %t1.dbg.spill78 = alloca i64, align 8
  %t2.dbg.spill76 = alloca i64, align 8
  %t1.dbg.spill74 = alloca i64, align 8
  %t2.dbg.spill72 = alloca i64, align 8
  %t1.dbg.spill70 = alloca i64, align 8
  %t2.dbg.spill68 = alloca i64, align 8
  %t1.dbg.spill66 = alloca i64, align 8
  %t2.dbg.spill64 = alloca i64, align 8
  %t1.dbg.spill62 = alloca i64, align 8
  %t2.dbg.spill60 = alloca i64, align 8
  %t1.dbg.spill58 = alloca i64, align 8
  %t2.dbg.spill56 = alloca i64, align 8
  %t1.dbg.spill54 = alloca i64, align 8
  %t2.dbg.spill52 = alloca i64, align 8
  %t1.dbg.spill50 = alloca i64, align 8
  %t2.dbg.spill48 = alloca i64, align 8
  %t1.dbg.spill46 = alloca i64, align 8
  %t2.dbg.spill44 = alloca i64, align 8
  %t1.dbg.spill42 = alloca i64, align 8
  %t2.dbg.spill40 = alloca i64, align 8
  %t1.dbg.spill38 = alloca i64, align 8
  %t2.dbg.spill36 = alloca i64, align 8
  %t1.dbg.spill34 = alloca i64, align 8
  %t2.dbg.spill32 = alloca i64, align 8
  %t1.dbg.spill30 = alloca i64, align 8
  %t2.dbg.spill28 = alloca i64, align 8
  %t1.dbg.spill26 = alloca i64, align 8
  %t2.dbg.spill24 = alloca i64, align 8
  %t1.dbg.spill22 = alloca i64, align 8
  %t2.dbg.spill20 = alloca i64, align 8
  %t1.dbg.spill18 = alloca i64, align 8
  %t2.dbg.spill16 = alloca i64, align 8
  %t1.dbg.spill14 = alloca i64, align 8
  %t2.dbg.spill12 = alloca i64, align 8
  %t1.dbg.spill10 = alloca i64, align 8
  %t2.dbg.spill8 = alloca i64, align 8
  %t1.dbg.spill6 = alloca i64, align 8
  %t2.dbg.spill4 = alloca i64, align 8
  %t1.dbg.spill2 = alloca i64, align 8
  %t2.dbg.spill = alloca i64, align 8
  %t1.dbg.spill = alloca i64, align 8
  %rc.dbg.spill = alloca i64, align 8
  %__next.dbg.spill = alloca i64*, align 8
  %val.dbg.spill = alloca i64*, align 8
  %round_consts.dbg.spill = alloca { [0 x i64]*, i64 }, align 8
  %round_count.dbg.spill = alloca i64, align 8
  %state.dbg.spill = alloca [25 x i64]*, align 8
  %last = alloca i64, align 8
  %array = alloca [5 x i64], align 8
  %_16 = alloca i64*, align 8
  %iter = alloca { i64*, i64* }, align 8
  %_8 = alloca { i64, i64 }, align 8
  store [25 x i64]* %state, [25 x i64]** %state.dbg.spill, align 8
  call void @llvm.dbg.declare(metadata [25 x i64]** %state.dbg.spill, metadata !1067, metadata !DIExpression()), !dbg !1298
  store i64 %round_count, i64* %round_count.dbg.spill, align 8
  call void @llvm.dbg.declare(metadata i64* %round_count.dbg.spill, metadata !1068, metadata !DIExpression()), !dbg !1299
  call void @llvm.dbg.declare(metadata { i64*, i64* }* %iter, metadata !1071, metadata !DIExpression()), !dbg !1300
  call void @llvm.dbg.declare(metadata [5 x i64]* %array, metadata !1079, metadata !DIExpression()), !dbg !1301
  call void @llvm.dbg.declare(metadata i64* %last, metadata !1184, metadata !DIExpression()), !dbg !1302
  %_3 = icmp ugt i64 %round_count, 24, !dbg !1303
  br i1 %_3, label %bb1, label %bb2, !dbg !1303

bb2:                                              ; preds = %start
  %0 = call { i64, i1 } @llvm.usub.with.overflow.i64(i64 24, i64 %round_count), !dbg !1304
  %_11.0 = extractvalue { i64, i1 } %0, 0, !dbg !1304
  %_11.1 = extractvalue { i64, i1 } %0, 1, !dbg !1304
  %1 = call i1 @llvm.expect.i1(i1 %_11.1, i1 false), !dbg !1304
  br i1 %1, label %panic, label %bb3, !dbg !1304

bb1:                                              ; preds = %start
; call core::panicking::panic
  call void @_ZN4core9panicking5panic17h560e3e4b7752857aE([0 x i8]* nonnull align 1 bitcast (<{ [65 x i8] }>* @alloc792 to [0 x i8]*), i64 65, %"core::panic::Location"* align 8 dereferenceable(24) bitcast (<{ i8*, [16 x i8] }>* @alloc777 to %"core::panic::Location"*)), !dbg !1305
  unreachable, !dbg !1305

bb3:                                              ; preds = %bb2
  %2 = bitcast { i64, i64 }* %_8 to i64*, !dbg !1304
  store i64 %_11.0, i64* %2, align 8, !dbg !1304
  %3 = getelementptr inbounds { i64, i64 }, { i64, i64 }* %_8, i32 0, i32 1, !dbg !1304
  store i64 24, i64* %3, align 8, !dbg !1304
  %4 = getelementptr inbounds { i64, i64 }, { i64, i64 }* %_8, i32 0, i32 0, !dbg !1306
  %5 = load i64, i64* %4, align 8, !dbg !1306
  %6 = getelementptr inbounds { i64, i64 }, { i64, i64 }* %_8, i32 0, i32 1, !dbg !1306
  %7 = load i64, i64* %6, align 8, !dbg !1306
; call core::array::<impl core::ops::index::Index<I> for [T; N]>::index
  %8 = call { [0 x i64]*, i64 } @"_ZN4core5array85_$LT$impl$u20$core..ops..index..Index$LT$I$GT$$u20$for$u20$$u5b$T$u3b$$u20$N$u5d$$GT$5index17hd89bae1e5b99dfd3E"([24 x i64]* align 8 dereferenceable(192) bitcast (<{ [192 x i8] }>* @alloc758 to [24 x i64]*), i64 %5, i64 %7, %"core::panic::Location"* align 8 dereferenceable(24) bitcast (<{ i8*, [16 x i8] }>* @alloc781 to %"core::panic::Location"*)), !dbg !1306
  %_6.0 = extractvalue { [0 x i64]*, i64 } %8, 0, !dbg !1306
  %_6.1 = extractvalue { [0 x i64]*, i64 } %8, 1, !dbg !1306
  br label %bb4, !dbg !1306

panic:                                            ; preds = %bb2
; call core::panicking::panic
  call void @_ZN4core9panicking5panic17h560e3e4b7752857aE([0 x i8]* nonnull align 1 bitcast ([33 x i8]* @str.1 to [0 x i8]*), i64 33, %"core::panic::Location"* align 8 dereferenceable(24) bitcast (<{ i8*, [16 x i8] }>* @alloc779 to %"core::panic::Location"*)), !dbg !1304
  unreachable, !dbg !1304

bb4:                                              ; preds = %bb3
  %9 = getelementptr inbounds { [0 x i64]*, i64 }, { [0 x i64]*, i64 }* %round_consts.dbg.spill, i32 0, i32 0, !dbg !1307
  store [0 x i64]* %_6.0, [0 x i64]** %9, align 8, !dbg !1307
  %10 = getelementptr inbounds { [0 x i64]*, i64 }, { [0 x i64]*, i64 }* %round_consts.dbg.spill, i32 0, i32 1, !dbg !1307
  store i64 %_6.1, i64* %10, align 8, !dbg !1307
  call void @llvm.dbg.declare(metadata { [0 x i64]*, i64 }* %round_consts.dbg.spill, metadata !1069, metadata !DIExpression()), !dbg !1308
; call core::slice::iter::<impl core::iter::traits::collect::IntoIterator for &[T]>::into_iter
  %11 = call { i64*, i64* } @"_ZN4core5slice4iter87_$LT$impl$u20$core..iter..traits..collect..IntoIterator$u20$for$u20$$RF$$u5b$T$u5d$$GT$9into_iter17h075a022857b14582E"([0 x i64]* nonnull align 8 %_6.0, i64 %_6.1), !dbg !1309
  %_12.0 = extractvalue { i64*, i64* } %11, 0, !dbg !1309
  %_12.1 = extractvalue { i64*, i64* } %11, 1, !dbg !1309
  br label %bb5, !dbg !1309

bb5:                                              ; preds = %bb4
  %12 = getelementptr inbounds { i64*, i64* }, { i64*, i64* }* %iter, i32 0, i32 0, !dbg !1309
  store i64* %_12.0, i64** %12, align 8, !dbg !1309
  %13 = getelementptr inbounds { i64*, i64* }, { i64*, i64* }* %iter, i32 0, i32 1, !dbg !1309
  store i64* %_12.1, i64** %13, align 8, !dbg !1309
  br label %bb6, !dbg !1310

bb6:                                              ; preds = %bb301, %bb5
; call <core::slice::iter::Iter<T> as core::iter::traits::iterator::Iterator>::next
  %14 = call align 8 dereferenceable_or_null(8) i64* @"_ZN91_$LT$core..slice..iter..Iter$LT$T$GT$$u20$as$u20$core..iter..traits..iterator..Iterator$GT$4next17hbafd9cbdb64df59eE"({ i64*, i64* }* align 8 dereferenceable(16) %iter), !dbg !1311
  store i64* %14, i64** %_16, align 8, !dbg !1311
  br label %bb7, !dbg !1311

bb7:                                              ; preds = %bb6
  %15 = bitcast i64** %_16 to {}**, !dbg !1311
  %16 = load {}*, {}** %15, align 8, !dbg !1311
  %17 = icmp eq {}* %16, null, !dbg !1311
  %_19 = select i1 %17, i64 0, i64 1, !dbg !1311
  switch i64 %_19, label %bb9 [
    i64 0, label %bb8
    i64 1, label %bb10
  ], !dbg !1311

bb9:                                              ; preds = %bb7
  unreachable, !dbg !1311

bb8:                                              ; preds = %bb7
  ret void, !dbg !1312

bb10:                                             ; preds = %bb7
  %val = load i64*, i64** %_16, align 8, !dbg !1313, !nonnull !4
  store i64* %val, i64** %val.dbg.spill, align 8, !dbg !1313
  call void @llvm.dbg.declare(metadata i64** %val.dbg.spill, metadata !1075, metadata !DIExpression()), !dbg !1314
  store i64* %val, i64** %__next.dbg.spill, align 8, !dbg !1314
  call void @llvm.dbg.declare(metadata i64** %__next.dbg.spill, metadata !1073, metadata !DIExpression()), !dbg !1311
  %rc = load i64, i64* %val, align 8, !dbg !1315
  store i64 %rc, i64* %rc.dbg.spill, align 8, !dbg !1315
  call void @llvm.dbg.declare(metadata i64* %rc.dbg.spill, metadata !1077, metadata !DIExpression()), !dbg !1316
; call <u64 as core::default::Default>::default
  %_24 = call i64 @"_ZN46_$LT$u64$u20$as$u20$core..default..Default$GT$7default17h4c66a39cc5de07f1E"(), !dbg !1317
  br label %bb11, !dbg !1317

bb11:                                             ; preds = %bb10
  %18 = getelementptr inbounds [5 x i64], [5 x i64]* %array, i64 0, i64 0, !dbg !1318
  %19 = getelementptr inbounds [5 x i64], [5 x i64]* %array, i64 0, i64 0, !dbg !1318
  %20 = getelementptr inbounds [5 x i64], [5 x i64]* %array, i64 0, i64 5, !dbg !1318
  br label %repeat_loop_header, !dbg !1318

repeat_loop_header:                               ; preds = %repeat_loop_body, %bb11
  %21 = phi i64* [ %19, %bb11 ], [ %23, %repeat_loop_body ]
  %22 = icmp ne i64* %21, %20
  br i1 %22, label %repeat_loop_body, label %repeat_loop_next

repeat_loop_body:                                 ; preds = %repeat_loop_header
  store i64 %_24, i64* %21, align 8
  %23 = getelementptr inbounds i64, i64* %21, i64 1
  br label %repeat_loop_header

repeat_loop_next:                                 ; preds = %repeat_loop_header
  %_26 = getelementptr inbounds [5 x i64], [5 x i64]* %array, i64 0, i64 0, !dbg !1319
  %24 = getelementptr inbounds [25 x i64], [25 x i64]* %state, i64 0, i64 0, !dbg !1320
  %_28 = load i64, i64* %24, align 8, !dbg !1320
; call <u64 as core::ops::bit::BitXorAssign>::bitxor_assign
  call void @"_ZN52_$LT$u64$u20$as$u20$core..ops..bit..BitXorAssign$GT$13bitxor_assign17h04adaa63ce404956E"(i64* align 8 dereferenceable(8) %_26, i64 %_28), !dbg !1319
  br label %bb12, !dbg !1319

bb12:                                             ; preds = %repeat_loop_next
  %_31 = getelementptr inbounds [5 x i64], [5 x i64]* %array, i64 0, i64 0, !dbg !1319
  %25 = getelementptr inbounds [25 x i64], [25 x i64]* %state, i64 0, i64 5, !dbg !1320
  %_33 = load i64, i64* %25, align 8, !dbg !1320
; call <u64 as core::ops::bit::BitXorAssign>::bitxor_assign
  call void @"_ZN52_$LT$u64$u20$as$u20$core..ops..bit..BitXorAssign$GT$13bitxor_assign17h04adaa63ce404956E"(i64* align 8 dereferenceable(8) %_31, i64 %_33), !dbg !1319
  br label %bb13, !dbg !1319

bb13:                                             ; preds = %bb12
  %_36 = getelementptr inbounds [5 x i64], [5 x i64]* %array, i64 0, i64 0, !dbg !1319
  %26 = getelementptr inbounds [25 x i64], [25 x i64]* %state, i64 0, i64 10, !dbg !1320
  %_38 = load i64, i64* %26, align 8, !dbg !1320
; call <u64 as core::ops::bit::BitXorAssign>::bitxor_assign
  call void @"_ZN52_$LT$u64$u20$as$u20$core..ops..bit..BitXorAssign$GT$13bitxor_assign17h04adaa63ce404956E"(i64* align 8 dereferenceable(8) %_36, i64 %_38), !dbg !1319
  br label %bb14, !dbg !1319

bb14:                                             ; preds = %bb13
  %_41 = getelementptr inbounds [5 x i64], [5 x i64]* %array, i64 0, i64 0, !dbg !1319
  %27 = getelementptr inbounds [25 x i64], [25 x i64]* %state, i64 0, i64 15, !dbg !1320
  %_43 = load i64, i64* %27, align 8, !dbg !1320
; call <u64 as core::ops::bit::BitXorAssign>::bitxor_assign
  call void @"_ZN52_$LT$u64$u20$as$u20$core..ops..bit..BitXorAssign$GT$13bitxor_assign17h04adaa63ce404956E"(i64* align 8 dereferenceable(8) %_41, i64 %_43), !dbg !1319
  br label %bb15, !dbg !1319

bb15:                                             ; preds = %bb14
  %_46 = getelementptr inbounds [5 x i64], [5 x i64]* %array, i64 0, i64 0, !dbg !1319
  %28 = getelementptr inbounds [25 x i64], [25 x i64]* %state, i64 0, i64 20, !dbg !1320
  %_48 = load i64, i64* %28, align 8, !dbg !1320
; call <u64 as core::ops::bit::BitXorAssign>::bitxor_assign
  call void @"_ZN52_$LT$u64$u20$as$u20$core..ops..bit..BitXorAssign$GT$13bitxor_assign17h04adaa63ce404956E"(i64* align 8 dereferenceable(8) %_46, i64 %_48), !dbg !1319
  br label %bb16, !dbg !1319

bb16:                                             ; preds = %bb15
  %_51 = getelementptr inbounds [5 x i64], [5 x i64]* %array, i64 0, i64 1, !dbg !1319
  %29 = getelementptr inbounds [25 x i64], [25 x i64]* %state, i64 0, i64 1, !dbg !1320
  %_53 = load i64, i64* %29, align 8, !dbg !1320
; call <u64 as core::ops::bit::BitXorAssign>::bitxor_assign
  call void @"_ZN52_$LT$u64$u20$as$u20$core..ops..bit..BitXorAssign$GT$13bitxor_assign17h04adaa63ce404956E"(i64* align 8 dereferenceable(8) %_51, i64 %_53), !dbg !1319
  br label %bb17, !dbg !1319

bb17:                                             ; preds = %bb16
  %_56 = getelementptr inbounds [5 x i64], [5 x i64]* %array, i64 0, i64 1, !dbg !1319
  %30 = getelementptr inbounds [25 x i64], [25 x i64]* %state, i64 0, i64 6, !dbg !1320
  %_58 = load i64, i64* %30, align 8, !dbg !1320
; call <u64 as core::ops::bit::BitXorAssign>::bitxor_assign
  call void @"_ZN52_$LT$u64$u20$as$u20$core..ops..bit..BitXorAssign$GT$13bitxor_assign17h04adaa63ce404956E"(i64* align 8 dereferenceable(8) %_56, i64 %_58), !dbg !1319
  br label %bb18, !dbg !1319

bb18:                                             ; preds = %bb17
  %_61 = getelementptr inbounds [5 x i64], [5 x i64]* %array, i64 0, i64 1, !dbg !1319
  %31 = getelementptr inbounds [25 x i64], [25 x i64]* %state, i64 0, i64 11, !dbg !1320
  %_63 = load i64, i64* %31, align 8, !dbg !1320
; call <u64 as core::ops::bit::BitXorAssign>::bitxor_assign
  call void @"_ZN52_$LT$u64$u20$as$u20$core..ops..bit..BitXorAssign$GT$13bitxor_assign17h04adaa63ce404956E"(i64* align 8 dereferenceable(8) %_61, i64 %_63), !dbg !1319
  br label %bb19, !dbg !1319

bb19:                                             ; preds = %bb18
  %_66 = getelementptr inbounds [5 x i64], [5 x i64]* %array, i64 0, i64 1, !dbg !1319
  %32 = getelementptr inbounds [25 x i64], [25 x i64]* %state, i64 0, i64 16, !dbg !1320
  %_68 = load i64, i64* %32, align 8, !dbg !1320
; call <u64 as core::ops::bit::BitXorAssign>::bitxor_assign
  call void @"_ZN52_$LT$u64$u20$as$u20$core..ops..bit..BitXorAssign$GT$13bitxor_assign17h04adaa63ce404956E"(i64* align 8 dereferenceable(8) %_66, i64 %_68), !dbg !1319
  br label %bb20, !dbg !1319

bb20:                                             ; preds = %bb19
  %_71 = getelementptr inbounds [5 x i64], [5 x i64]* %array, i64 0, i64 1, !dbg !1319
  %33 = getelementptr inbounds [25 x i64], [25 x i64]* %state, i64 0, i64 21, !dbg !1320
  %_73 = load i64, i64* %33, align 8, !dbg !1320
; call <u64 as core::ops::bit::BitXorAssign>::bitxor_assign
  call void @"_ZN52_$LT$u64$u20$as$u20$core..ops..bit..BitXorAssign$GT$13bitxor_assign17h04adaa63ce404956E"(i64* align 8 dereferenceable(8) %_71, i64 %_73), !dbg !1319
  br label %bb21, !dbg !1319

bb21:                                             ; preds = %bb20
  %_76 = getelementptr inbounds [5 x i64], [5 x i64]* %array, i64 0, i64 2, !dbg !1319
  %34 = getelementptr inbounds [25 x i64], [25 x i64]* %state, i64 0, i64 2, !dbg !1320
  %_78 = load i64, i64* %34, align 8, !dbg !1320
; call <u64 as core::ops::bit::BitXorAssign>::bitxor_assign
  call void @"_ZN52_$LT$u64$u20$as$u20$core..ops..bit..BitXorAssign$GT$13bitxor_assign17h04adaa63ce404956E"(i64* align 8 dereferenceable(8) %_76, i64 %_78), !dbg !1319
  br label %bb22, !dbg !1319

bb22:                                             ; preds = %bb21
  %_81 = getelementptr inbounds [5 x i64], [5 x i64]* %array, i64 0, i64 2, !dbg !1319
  %35 = getelementptr inbounds [25 x i64], [25 x i64]* %state, i64 0, i64 7, !dbg !1320
  %_83 = load i64, i64* %35, align 8, !dbg !1320
; call <u64 as core::ops::bit::BitXorAssign>::bitxor_assign
  call void @"_ZN52_$LT$u64$u20$as$u20$core..ops..bit..BitXorAssign$GT$13bitxor_assign17h04adaa63ce404956E"(i64* align 8 dereferenceable(8) %_81, i64 %_83), !dbg !1319
  br label %bb23, !dbg !1319

bb23:                                             ; preds = %bb22
  %_86 = getelementptr inbounds [5 x i64], [5 x i64]* %array, i64 0, i64 2, !dbg !1319
  %36 = getelementptr inbounds [25 x i64], [25 x i64]* %state, i64 0, i64 12, !dbg !1320
  %_88 = load i64, i64* %36, align 8, !dbg !1320
; call <u64 as core::ops::bit::BitXorAssign>::bitxor_assign
  call void @"_ZN52_$LT$u64$u20$as$u20$core..ops..bit..BitXorAssign$GT$13bitxor_assign17h04adaa63ce404956E"(i64* align 8 dereferenceable(8) %_86, i64 %_88), !dbg !1319
  br label %bb24, !dbg !1319

bb24:                                             ; preds = %bb23
  %_91 = getelementptr inbounds [5 x i64], [5 x i64]* %array, i64 0, i64 2, !dbg !1319
  %37 = getelementptr inbounds [25 x i64], [25 x i64]* %state, i64 0, i64 17, !dbg !1320
  %_93 = load i64, i64* %37, align 8, !dbg !1320
; call <u64 as core::ops::bit::BitXorAssign>::bitxor_assign
  call void @"_ZN52_$LT$u64$u20$as$u20$core..ops..bit..BitXorAssign$GT$13bitxor_assign17h04adaa63ce404956E"(i64* align 8 dereferenceable(8) %_91, i64 %_93), !dbg !1319
  br label %bb25, !dbg !1319

bb25:                                             ; preds = %bb24
  %_96 = getelementptr inbounds [5 x i64], [5 x i64]* %array, i64 0, i64 2, !dbg !1319
  %38 = getelementptr inbounds [25 x i64], [25 x i64]* %state, i64 0, i64 22, !dbg !1320
  %_98 = load i64, i64* %38, align 8, !dbg !1320
; call <u64 as core::ops::bit::BitXorAssign>::bitxor_assign
  call void @"_ZN52_$LT$u64$u20$as$u20$core..ops..bit..BitXorAssign$GT$13bitxor_assign17h04adaa63ce404956E"(i64* align 8 dereferenceable(8) %_96, i64 %_98), !dbg !1319
  br label %bb26, !dbg !1319

bb26:                                             ; preds = %bb25
  %_101 = getelementptr inbounds [5 x i64], [5 x i64]* %array, i64 0, i64 3, !dbg !1319
  %39 = getelementptr inbounds [25 x i64], [25 x i64]* %state, i64 0, i64 3, !dbg !1320
  %_103 = load i64, i64* %39, align 8, !dbg !1320
; call <u64 as core::ops::bit::BitXorAssign>::bitxor_assign
  call void @"_ZN52_$LT$u64$u20$as$u20$core..ops..bit..BitXorAssign$GT$13bitxor_assign17h04adaa63ce404956E"(i64* align 8 dereferenceable(8) %_101, i64 %_103), !dbg !1319
  br label %bb27, !dbg !1319

bb27:                                             ; preds = %bb26
  %_106 = getelementptr inbounds [5 x i64], [5 x i64]* %array, i64 0, i64 3, !dbg !1319
  %40 = getelementptr inbounds [25 x i64], [25 x i64]* %state, i64 0, i64 8, !dbg !1320
  %_108 = load i64, i64* %40, align 8, !dbg !1320
; call <u64 as core::ops::bit::BitXorAssign>::bitxor_assign
  call void @"_ZN52_$LT$u64$u20$as$u20$core..ops..bit..BitXorAssign$GT$13bitxor_assign17h04adaa63ce404956E"(i64* align 8 dereferenceable(8) %_106, i64 %_108), !dbg !1319
  br label %bb28, !dbg !1319

bb28:                                             ; preds = %bb27
  %_111 = getelementptr inbounds [5 x i64], [5 x i64]* %array, i64 0, i64 3, !dbg !1319
  %41 = getelementptr inbounds [25 x i64], [25 x i64]* %state, i64 0, i64 13, !dbg !1320
  %_113 = load i64, i64* %41, align 8, !dbg !1320
; call <u64 as core::ops::bit::BitXorAssign>::bitxor_assign
  call void @"_ZN52_$LT$u64$u20$as$u20$core..ops..bit..BitXorAssign$GT$13bitxor_assign17h04adaa63ce404956E"(i64* align 8 dereferenceable(8) %_111, i64 %_113), !dbg !1319
  br label %bb29, !dbg !1319

bb29:                                             ; preds = %bb28
  %_116 = getelementptr inbounds [5 x i64], [5 x i64]* %array, i64 0, i64 3, !dbg !1319
  %42 = getelementptr inbounds [25 x i64], [25 x i64]* %state, i64 0, i64 18, !dbg !1320
  %_118 = load i64, i64* %42, align 8, !dbg !1320
; call <u64 as core::ops::bit::BitXorAssign>::bitxor_assign
  call void @"_ZN52_$LT$u64$u20$as$u20$core..ops..bit..BitXorAssign$GT$13bitxor_assign17h04adaa63ce404956E"(i64* align 8 dereferenceable(8) %_116, i64 %_118), !dbg !1319
  br label %bb30, !dbg !1319

bb30:                                             ; preds = %bb29
  %_121 = getelementptr inbounds [5 x i64], [5 x i64]* %array, i64 0, i64 3, !dbg !1319
  %43 = getelementptr inbounds [25 x i64], [25 x i64]* %state, i64 0, i64 23, !dbg !1320
  %_123 = load i64, i64* %43, align 8, !dbg !1320
; call <u64 as core::ops::bit::BitXorAssign>::bitxor_assign
  call void @"_ZN52_$LT$u64$u20$as$u20$core..ops..bit..BitXorAssign$GT$13bitxor_assign17h04adaa63ce404956E"(i64* align 8 dereferenceable(8) %_121, i64 %_123), !dbg !1319
  br label %bb31, !dbg !1319

bb31:                                             ; preds = %bb30
  %_126 = getelementptr inbounds [5 x i64], [5 x i64]* %array, i64 0, i64 4, !dbg !1319
  %44 = getelementptr inbounds [25 x i64], [25 x i64]* %state, i64 0, i64 4, !dbg !1320
  %_128 = load i64, i64* %44, align 8, !dbg !1320
; call <u64 as core::ops::bit::BitXorAssign>::bitxor_assign
  call void @"_ZN52_$LT$u64$u20$as$u20$core..ops..bit..BitXorAssign$GT$13bitxor_assign17h04adaa63ce404956E"(i64* align 8 dereferenceable(8) %_126, i64 %_128), !dbg !1319
  br label %bb32, !dbg !1319

bb32:                                             ; preds = %bb31
  %_131 = getelementptr inbounds [5 x i64], [5 x i64]* %array, i64 0, i64 4, !dbg !1319
  %45 = getelementptr inbounds [25 x i64], [25 x i64]* %state, i64 0, i64 9, !dbg !1320
  %_133 = load i64, i64* %45, align 8, !dbg !1320
; call <u64 as core::ops::bit::BitXorAssign>::bitxor_assign
  call void @"_ZN52_$LT$u64$u20$as$u20$core..ops..bit..BitXorAssign$GT$13bitxor_assign17h04adaa63ce404956E"(i64* align 8 dereferenceable(8) %_131, i64 %_133), !dbg !1319
  br label %bb33, !dbg !1319

bb33:                                             ; preds = %bb32
  %_136 = getelementptr inbounds [5 x i64], [5 x i64]* %array, i64 0, i64 4, !dbg !1319
  %46 = getelementptr inbounds [25 x i64], [25 x i64]* %state, i64 0, i64 14, !dbg !1320
  %_138 = load i64, i64* %46, align 8, !dbg !1320
; call <u64 as core::ops::bit::BitXorAssign>::bitxor_assign
  call void @"_ZN52_$LT$u64$u20$as$u20$core..ops..bit..BitXorAssign$GT$13bitxor_assign17h04adaa63ce404956E"(i64* align 8 dereferenceable(8) %_136, i64 %_138), !dbg !1319
  br label %bb34, !dbg !1319

bb34:                                             ; preds = %bb33
  %_141 = getelementptr inbounds [5 x i64], [5 x i64]* %array, i64 0, i64 4, !dbg !1319
  %47 = getelementptr inbounds [25 x i64], [25 x i64]* %state, i64 0, i64 19, !dbg !1320
  %_143 = load i64, i64* %47, align 8, !dbg !1320
; call <u64 as core::ops::bit::BitXorAssign>::bitxor_assign
  call void @"_ZN52_$LT$u64$u20$as$u20$core..ops..bit..BitXorAssign$GT$13bitxor_assign17h04adaa63ce404956E"(i64* align 8 dereferenceable(8) %_141, i64 %_143), !dbg !1319
  br label %bb35, !dbg !1319

bb35:                                             ; preds = %bb34
  %_146 = getelementptr inbounds [5 x i64], [5 x i64]* %array, i64 0, i64 4, !dbg !1319
  %48 = getelementptr inbounds [25 x i64], [25 x i64]* %state, i64 0, i64 24, !dbg !1320
  %_148 = load i64, i64* %48, align 8, !dbg !1320
; call <u64 as core::ops::bit::BitXorAssign>::bitxor_assign
  call void @"_ZN52_$LT$u64$u20$as$u20$core..ops..bit..BitXorAssign$GT$13bitxor_assign17h04adaa63ce404956E"(i64* align 8 dereferenceable(8) %_146, i64 %_148), !dbg !1319
  br label %bb36, !dbg !1319

bb36:                                             ; preds = %bb35
  %49 = getelementptr inbounds [5 x i64], [5 x i64]* %array, i64 0, i64 4, !dbg !1321
  %t1 = load i64, i64* %49, align 8, !dbg !1321
  store i64 %t1, i64* %t1.dbg.spill, align 8, !dbg !1321
  call void @llvm.dbg.declare(metadata i64* %t1.dbg.spill, metadata !1084, metadata !DIExpression()), !dbg !1322
  %50 = getelementptr inbounds [5 x i64], [5 x i64]* %array, i64 0, i64 1, !dbg !1323
  %_153 = load i64, i64* %50, align 8, !dbg !1323
; call <u64 as keccak::LaneSize>::rotate_left
  %t2 = call i64 @"_ZN40_$LT$u64$u20$as$u20$keccak..LaneSize$GT$11rotate_left17h4b233ff5d4bf1273E"(i64 %_153, i32 1), !dbg !1323
  store i64 %t2, i64* %t2.dbg.spill, align 8, !dbg !1323
  call void @llvm.dbg.declare(metadata i64* %t2.dbg.spill, metadata !1086, metadata !DIExpression()), !dbg !1324
  br label %bb37, !dbg !1323

bb37:                                             ; preds = %bb36
  %_156 = getelementptr inbounds [25 x i64], [25 x i64]* %state, i64 0, i64 0, !dbg !1325
; call <u64 as core::ops::bit::BitXor>::bitxor
  %_158 = call i64 @"_ZN46_$LT$u64$u20$as$u20$core..ops..bit..BitXor$GT$6bitxor17h7e70a648784d0ba5E"(i64 %t1, i64 %t2), !dbg !1326
  br label %bb38, !dbg !1326

bb38:                                             ; preds = %bb37
; call <u64 as core::ops::bit::BitXorAssign>::bitxor_assign
  call void @"_ZN52_$LT$u64$u20$as$u20$core..ops..bit..BitXorAssign$GT$13bitxor_assign17h04adaa63ce404956E"(i64* align 8 dereferenceable(8) %_156, i64 %_158), !dbg !1325
  br label %bb39, !dbg !1325

bb39:                                             ; preds = %bb38
  %51 = getelementptr inbounds [5 x i64], [5 x i64]* %array, i64 0, i64 4, !dbg !1321
  %t11 = load i64, i64* %51, align 8, !dbg !1321
  store i64 %t11, i64* %t1.dbg.spill2, align 8, !dbg !1321
  call void @llvm.dbg.declare(metadata i64* %t1.dbg.spill2, metadata !1088, metadata !DIExpression()), !dbg !1327
  %52 = getelementptr inbounds [5 x i64], [5 x i64]* %array, i64 0, i64 1, !dbg !1328
  %_164 = load i64, i64* %52, align 8, !dbg !1328
; call <u64 as keccak::LaneSize>::rotate_left
  %t23 = call i64 @"_ZN40_$LT$u64$u20$as$u20$keccak..LaneSize$GT$11rotate_left17h4b233ff5d4bf1273E"(i64 %_164, i32 1), !dbg !1328
  store i64 %t23, i64* %t2.dbg.spill4, align 8, !dbg !1328
  call void @llvm.dbg.declare(metadata i64* %t2.dbg.spill4, metadata !1090, metadata !DIExpression()), !dbg !1329
  br label %bb40, !dbg !1328

bb40:                                             ; preds = %bb39
  %_167 = getelementptr inbounds [25 x i64], [25 x i64]* %state, i64 0, i64 5, !dbg !1330
; call <u64 as core::ops::bit::BitXor>::bitxor
  %_169 = call i64 @"_ZN46_$LT$u64$u20$as$u20$core..ops..bit..BitXor$GT$6bitxor17h7e70a648784d0ba5E"(i64 %t11, i64 %t23), !dbg !1331
  br label %bb41, !dbg !1331

bb41:                                             ; preds = %bb40
; call <u64 as core::ops::bit::BitXorAssign>::bitxor_assign
  call void @"_ZN52_$LT$u64$u20$as$u20$core..ops..bit..BitXorAssign$GT$13bitxor_assign17h04adaa63ce404956E"(i64* align 8 dereferenceable(8) %_167, i64 %_169), !dbg !1330
  br label %bb42, !dbg !1330

bb42:                                             ; preds = %bb41
  %53 = getelementptr inbounds [5 x i64], [5 x i64]* %array, i64 0, i64 4, !dbg !1321
  %t15 = load i64, i64* %53, align 8, !dbg !1321
  store i64 %t15, i64* %t1.dbg.spill6, align 8, !dbg !1321
  call void @llvm.dbg.declare(metadata i64* %t1.dbg.spill6, metadata !1092, metadata !DIExpression()), !dbg !1332
  %54 = getelementptr inbounds [5 x i64], [5 x i64]* %array, i64 0, i64 1, !dbg !1333
  %_175 = load i64, i64* %54, align 8, !dbg !1333
; call <u64 as keccak::LaneSize>::rotate_left
  %t27 = call i64 @"_ZN40_$LT$u64$u20$as$u20$keccak..LaneSize$GT$11rotate_left17h4b233ff5d4bf1273E"(i64 %_175, i32 1), !dbg !1333
  store i64 %t27, i64* %t2.dbg.spill8, align 8, !dbg !1333
  call void @llvm.dbg.declare(metadata i64* %t2.dbg.spill8, metadata !1094, metadata !DIExpression()), !dbg !1334
  br label %bb43, !dbg !1333

bb43:                                             ; preds = %bb42
  %_178 = getelementptr inbounds [25 x i64], [25 x i64]* %state, i64 0, i64 10, !dbg !1335
; call <u64 as core::ops::bit::BitXor>::bitxor
  %_180 = call i64 @"_ZN46_$LT$u64$u20$as$u20$core..ops..bit..BitXor$GT$6bitxor17h7e70a648784d0ba5E"(i64 %t15, i64 %t27), !dbg !1336
  br label %bb44, !dbg !1336

bb44:                                             ; preds = %bb43
; call <u64 as core::ops::bit::BitXorAssign>::bitxor_assign
  call void @"_ZN52_$LT$u64$u20$as$u20$core..ops..bit..BitXorAssign$GT$13bitxor_assign17h04adaa63ce404956E"(i64* align 8 dereferenceable(8) %_178, i64 %_180), !dbg !1335
  br label %bb45, !dbg !1335

bb45:                                             ; preds = %bb44
  %55 = getelementptr inbounds [5 x i64], [5 x i64]* %array, i64 0, i64 4, !dbg !1321
  %t19 = load i64, i64* %55, align 8, !dbg !1321
  store i64 %t19, i64* %t1.dbg.spill10, align 8, !dbg !1321
  call void @llvm.dbg.declare(metadata i64* %t1.dbg.spill10, metadata !1096, metadata !DIExpression()), !dbg !1337
  %56 = getelementptr inbounds [5 x i64], [5 x i64]* %array, i64 0, i64 1, !dbg !1338
  %_186 = load i64, i64* %56, align 8, !dbg !1338
; call <u64 as keccak::LaneSize>::rotate_left
  %t211 = call i64 @"_ZN40_$LT$u64$u20$as$u20$keccak..LaneSize$GT$11rotate_left17h4b233ff5d4bf1273E"(i64 %_186, i32 1), !dbg !1338
  store i64 %t211, i64* %t2.dbg.spill12, align 8, !dbg !1338
  call void @llvm.dbg.declare(metadata i64* %t2.dbg.spill12, metadata !1098, metadata !DIExpression()), !dbg !1339
  br label %bb46, !dbg !1338

bb46:                                             ; preds = %bb45
  %_189 = getelementptr inbounds [25 x i64], [25 x i64]* %state, i64 0, i64 15, !dbg !1340
; call <u64 as core::ops::bit::BitXor>::bitxor
  %_191 = call i64 @"_ZN46_$LT$u64$u20$as$u20$core..ops..bit..BitXor$GT$6bitxor17h7e70a648784d0ba5E"(i64 %t19, i64 %t211), !dbg !1341
  br label %bb47, !dbg !1341

bb47:                                             ; preds = %bb46
; call <u64 as core::ops::bit::BitXorAssign>::bitxor_assign
  call void @"_ZN52_$LT$u64$u20$as$u20$core..ops..bit..BitXorAssign$GT$13bitxor_assign17h04adaa63ce404956E"(i64* align 8 dereferenceable(8) %_189, i64 %_191), !dbg !1340
  br label %bb48, !dbg !1340

bb48:                                             ; preds = %bb47
  %57 = getelementptr inbounds [5 x i64], [5 x i64]* %array, i64 0, i64 4, !dbg !1321
  %t113 = load i64, i64* %57, align 8, !dbg !1321
  store i64 %t113, i64* %t1.dbg.spill14, align 8, !dbg !1321
  call void @llvm.dbg.declare(metadata i64* %t1.dbg.spill14, metadata !1100, metadata !DIExpression()), !dbg !1342
  %58 = getelementptr inbounds [5 x i64], [5 x i64]* %array, i64 0, i64 1, !dbg !1343
  %_197 = load i64, i64* %58, align 8, !dbg !1343
; call <u64 as keccak::LaneSize>::rotate_left
  %t215 = call i64 @"_ZN40_$LT$u64$u20$as$u20$keccak..LaneSize$GT$11rotate_left17h4b233ff5d4bf1273E"(i64 %_197, i32 1), !dbg !1343
  store i64 %t215, i64* %t2.dbg.spill16, align 8, !dbg !1343
  call void @llvm.dbg.declare(metadata i64* %t2.dbg.spill16, metadata !1102, metadata !DIExpression()), !dbg !1344
  br label %bb49, !dbg !1343

bb49:                                             ; preds = %bb48
  %_200 = getelementptr inbounds [25 x i64], [25 x i64]* %state, i64 0, i64 20, !dbg !1345
; call <u64 as core::ops::bit::BitXor>::bitxor
  %_202 = call i64 @"_ZN46_$LT$u64$u20$as$u20$core..ops..bit..BitXor$GT$6bitxor17h7e70a648784d0ba5E"(i64 %t113, i64 %t215), !dbg !1346
  br label %bb50, !dbg !1346

bb50:                                             ; preds = %bb49
; call <u64 as core::ops::bit::BitXorAssign>::bitxor_assign
  call void @"_ZN52_$LT$u64$u20$as$u20$core..ops..bit..BitXorAssign$GT$13bitxor_assign17h04adaa63ce404956E"(i64* align 8 dereferenceable(8) %_200, i64 %_202), !dbg !1345
  br label %bb51, !dbg !1345

bb51:                                             ; preds = %bb50
  %59 = getelementptr inbounds [5 x i64], [5 x i64]* %array, i64 0, i64 0, !dbg !1321
  %t117 = load i64, i64* %59, align 8, !dbg !1321
  store i64 %t117, i64* %t1.dbg.spill18, align 8, !dbg !1321
  call void @llvm.dbg.declare(metadata i64* %t1.dbg.spill18, metadata !1104, metadata !DIExpression()), !dbg !1347
  %60 = getelementptr inbounds [5 x i64], [5 x i64]* %array, i64 0, i64 2, !dbg !1348
  %_208 = load i64, i64* %60, align 8, !dbg !1348
; call <u64 as keccak::LaneSize>::rotate_left
  %t219 = call i64 @"_ZN40_$LT$u64$u20$as$u20$keccak..LaneSize$GT$11rotate_left17h4b233ff5d4bf1273E"(i64 %_208, i32 1), !dbg !1348
  store i64 %t219, i64* %t2.dbg.spill20, align 8, !dbg !1348
  call void @llvm.dbg.declare(metadata i64* %t2.dbg.spill20, metadata !1106, metadata !DIExpression()), !dbg !1349
  br label %bb52, !dbg !1348

bb52:                                             ; preds = %bb51
  %_211 = getelementptr inbounds [25 x i64], [25 x i64]* %state, i64 0, i64 1, !dbg !1350
; call <u64 as core::ops::bit::BitXor>::bitxor
  %_213 = call i64 @"_ZN46_$LT$u64$u20$as$u20$core..ops..bit..BitXor$GT$6bitxor17h7e70a648784d0ba5E"(i64 %t117, i64 %t219), !dbg !1351
  br label %bb53, !dbg !1351

bb53:                                             ; preds = %bb52
; call <u64 as core::ops::bit::BitXorAssign>::bitxor_assign
  call void @"_ZN52_$LT$u64$u20$as$u20$core..ops..bit..BitXorAssign$GT$13bitxor_assign17h04adaa63ce404956E"(i64* align 8 dereferenceable(8) %_211, i64 %_213), !dbg !1350
  br label %bb54, !dbg !1350

bb54:                                             ; preds = %bb53
  %61 = getelementptr inbounds [5 x i64], [5 x i64]* %array, i64 0, i64 0, !dbg !1321
  %t121 = load i64, i64* %61, align 8, !dbg !1321
  store i64 %t121, i64* %t1.dbg.spill22, align 8, !dbg !1321
  call void @llvm.dbg.declare(metadata i64* %t1.dbg.spill22, metadata !1108, metadata !DIExpression()), !dbg !1352
  %62 = getelementptr inbounds [5 x i64], [5 x i64]* %array, i64 0, i64 2, !dbg !1353
  %_219 = load i64, i64* %62, align 8, !dbg !1353
; call <u64 as keccak::LaneSize>::rotate_left
  %t223 = call i64 @"_ZN40_$LT$u64$u20$as$u20$keccak..LaneSize$GT$11rotate_left17h4b233ff5d4bf1273E"(i64 %_219, i32 1), !dbg !1353
  store i64 %t223, i64* %t2.dbg.spill24, align 8, !dbg !1353
  call void @llvm.dbg.declare(metadata i64* %t2.dbg.spill24, metadata !1110, metadata !DIExpression()), !dbg !1354
  br label %bb55, !dbg !1353

bb55:                                             ; preds = %bb54
  %_222 = getelementptr inbounds [25 x i64], [25 x i64]* %state, i64 0, i64 6, !dbg !1355
; call <u64 as core::ops::bit::BitXor>::bitxor
  %_224 = call i64 @"_ZN46_$LT$u64$u20$as$u20$core..ops..bit..BitXor$GT$6bitxor17h7e70a648784d0ba5E"(i64 %t121, i64 %t223), !dbg !1356
  br label %bb56, !dbg !1356

bb56:                                             ; preds = %bb55
; call <u64 as core::ops::bit::BitXorAssign>::bitxor_assign
  call void @"_ZN52_$LT$u64$u20$as$u20$core..ops..bit..BitXorAssign$GT$13bitxor_assign17h04adaa63ce404956E"(i64* align 8 dereferenceable(8) %_222, i64 %_224), !dbg !1355
  br label %bb57, !dbg !1355

bb57:                                             ; preds = %bb56
  %63 = getelementptr inbounds [5 x i64], [5 x i64]* %array, i64 0, i64 0, !dbg !1321
  %t125 = load i64, i64* %63, align 8, !dbg !1321
  store i64 %t125, i64* %t1.dbg.spill26, align 8, !dbg !1321
  call void @llvm.dbg.declare(metadata i64* %t1.dbg.spill26, metadata !1112, metadata !DIExpression()), !dbg !1357
  %64 = getelementptr inbounds [5 x i64], [5 x i64]* %array, i64 0, i64 2, !dbg !1358
  %_230 = load i64, i64* %64, align 8, !dbg !1358
; call <u64 as keccak::LaneSize>::rotate_left
  %t227 = call i64 @"_ZN40_$LT$u64$u20$as$u20$keccak..LaneSize$GT$11rotate_left17h4b233ff5d4bf1273E"(i64 %_230, i32 1), !dbg !1358
  store i64 %t227, i64* %t2.dbg.spill28, align 8, !dbg !1358
  call void @llvm.dbg.declare(metadata i64* %t2.dbg.spill28, metadata !1114, metadata !DIExpression()), !dbg !1359
  br label %bb58, !dbg !1358

bb58:                                             ; preds = %bb57
  %_233 = getelementptr inbounds [25 x i64], [25 x i64]* %state, i64 0, i64 11, !dbg !1360
; call <u64 as core::ops::bit::BitXor>::bitxor
  %_235 = call i64 @"_ZN46_$LT$u64$u20$as$u20$core..ops..bit..BitXor$GT$6bitxor17h7e70a648784d0ba5E"(i64 %t125, i64 %t227), !dbg !1361
  br label %bb59, !dbg !1361

bb59:                                             ; preds = %bb58
; call <u64 as core::ops::bit::BitXorAssign>::bitxor_assign
  call void @"_ZN52_$LT$u64$u20$as$u20$core..ops..bit..BitXorAssign$GT$13bitxor_assign17h04adaa63ce404956E"(i64* align 8 dereferenceable(8) %_233, i64 %_235), !dbg !1360
  br label %bb60, !dbg !1360

bb60:                                             ; preds = %bb59
  %65 = getelementptr inbounds [5 x i64], [5 x i64]* %array, i64 0, i64 0, !dbg !1321
  %t129 = load i64, i64* %65, align 8, !dbg !1321
  store i64 %t129, i64* %t1.dbg.spill30, align 8, !dbg !1321
  call void @llvm.dbg.declare(metadata i64* %t1.dbg.spill30, metadata !1116, metadata !DIExpression()), !dbg !1362
  %66 = getelementptr inbounds [5 x i64], [5 x i64]* %array, i64 0, i64 2, !dbg !1363
  %_241 = load i64, i64* %66, align 8, !dbg !1363
; call <u64 as keccak::LaneSize>::rotate_left
  %t231 = call i64 @"_ZN40_$LT$u64$u20$as$u20$keccak..LaneSize$GT$11rotate_left17h4b233ff5d4bf1273E"(i64 %_241, i32 1), !dbg !1363
  store i64 %t231, i64* %t2.dbg.spill32, align 8, !dbg !1363
  call void @llvm.dbg.declare(metadata i64* %t2.dbg.spill32, metadata !1118, metadata !DIExpression()), !dbg !1364
  br label %bb61, !dbg !1363

bb61:                                             ; preds = %bb60
  %_244 = getelementptr inbounds [25 x i64], [25 x i64]* %state, i64 0, i64 16, !dbg !1365
; call <u64 as core::ops::bit::BitXor>::bitxor
  %_246 = call i64 @"_ZN46_$LT$u64$u20$as$u20$core..ops..bit..BitXor$GT$6bitxor17h7e70a648784d0ba5E"(i64 %t129, i64 %t231), !dbg !1366
  br label %bb62, !dbg !1366

bb62:                                             ; preds = %bb61
; call <u64 as core::ops::bit::BitXorAssign>::bitxor_assign
  call void @"_ZN52_$LT$u64$u20$as$u20$core..ops..bit..BitXorAssign$GT$13bitxor_assign17h04adaa63ce404956E"(i64* align 8 dereferenceable(8) %_244, i64 %_246), !dbg !1365
  br label %bb63, !dbg !1365

bb63:                                             ; preds = %bb62
  %67 = getelementptr inbounds [5 x i64], [5 x i64]* %array, i64 0, i64 0, !dbg !1321
  %t133 = load i64, i64* %67, align 8, !dbg !1321
  store i64 %t133, i64* %t1.dbg.spill34, align 8, !dbg !1321
  call void @llvm.dbg.declare(metadata i64* %t1.dbg.spill34, metadata !1120, metadata !DIExpression()), !dbg !1367
  %68 = getelementptr inbounds [5 x i64], [5 x i64]* %array, i64 0, i64 2, !dbg !1368
  %_252 = load i64, i64* %68, align 8, !dbg !1368
; call <u64 as keccak::LaneSize>::rotate_left
  %t235 = call i64 @"_ZN40_$LT$u64$u20$as$u20$keccak..LaneSize$GT$11rotate_left17h4b233ff5d4bf1273E"(i64 %_252, i32 1), !dbg !1368
  store i64 %t235, i64* %t2.dbg.spill36, align 8, !dbg !1368
  call void @llvm.dbg.declare(metadata i64* %t2.dbg.spill36, metadata !1122, metadata !DIExpression()), !dbg !1369
  br label %bb64, !dbg !1368

bb64:                                             ; preds = %bb63
  %_255 = getelementptr inbounds [25 x i64], [25 x i64]* %state, i64 0, i64 21, !dbg !1370
; call <u64 as core::ops::bit::BitXor>::bitxor
  %_257 = call i64 @"_ZN46_$LT$u64$u20$as$u20$core..ops..bit..BitXor$GT$6bitxor17h7e70a648784d0ba5E"(i64 %t133, i64 %t235), !dbg !1371
  br label %bb65, !dbg !1371

bb65:                                             ; preds = %bb64
; call <u64 as core::ops::bit::BitXorAssign>::bitxor_assign
  call void @"_ZN52_$LT$u64$u20$as$u20$core..ops..bit..BitXorAssign$GT$13bitxor_assign17h04adaa63ce404956E"(i64* align 8 dereferenceable(8) %_255, i64 %_257), !dbg !1370
  br label %bb66, !dbg !1370

bb66:                                             ; preds = %bb65
  %69 = getelementptr inbounds [5 x i64], [5 x i64]* %array, i64 0, i64 1, !dbg !1321
  %t137 = load i64, i64* %69, align 8, !dbg !1321
  store i64 %t137, i64* %t1.dbg.spill38, align 8, !dbg !1321
  call void @llvm.dbg.declare(metadata i64* %t1.dbg.spill38, metadata !1124, metadata !DIExpression()), !dbg !1372
  %70 = getelementptr inbounds [5 x i64], [5 x i64]* %array, i64 0, i64 3, !dbg !1373
  %_263 = load i64, i64* %70, align 8, !dbg !1373
; call <u64 as keccak::LaneSize>::rotate_left
  %t239 = call i64 @"_ZN40_$LT$u64$u20$as$u20$keccak..LaneSize$GT$11rotate_left17h4b233ff5d4bf1273E"(i64 %_263, i32 1), !dbg !1373
  store i64 %t239, i64* %t2.dbg.spill40, align 8, !dbg !1373
  call void @llvm.dbg.declare(metadata i64* %t2.dbg.spill40, metadata !1126, metadata !DIExpression()), !dbg !1374
  br label %bb67, !dbg !1373

bb67:                                             ; preds = %bb66
  %_266 = getelementptr inbounds [25 x i64], [25 x i64]* %state, i64 0, i64 2, !dbg !1375
; call <u64 as core::ops::bit::BitXor>::bitxor
  %_268 = call i64 @"_ZN46_$LT$u64$u20$as$u20$core..ops..bit..BitXor$GT$6bitxor17h7e70a648784d0ba5E"(i64 %t137, i64 %t239), !dbg !1376
  br label %bb68, !dbg !1376

bb68:                                             ; preds = %bb67
; call <u64 as core::ops::bit::BitXorAssign>::bitxor_assign
  call void @"_ZN52_$LT$u64$u20$as$u20$core..ops..bit..BitXorAssign$GT$13bitxor_assign17h04adaa63ce404956E"(i64* align 8 dereferenceable(8) %_266, i64 %_268), !dbg !1375
  br label %bb69, !dbg !1375

bb69:                                             ; preds = %bb68
  %71 = getelementptr inbounds [5 x i64], [5 x i64]* %array, i64 0, i64 1, !dbg !1321
  %t141 = load i64, i64* %71, align 8, !dbg !1321
  store i64 %t141, i64* %t1.dbg.spill42, align 8, !dbg !1321
  call void @llvm.dbg.declare(metadata i64* %t1.dbg.spill42, metadata !1128, metadata !DIExpression()), !dbg !1377
  %72 = getelementptr inbounds [5 x i64], [5 x i64]* %array, i64 0, i64 3, !dbg !1378
  %_274 = load i64, i64* %72, align 8, !dbg !1378
; call <u64 as keccak::LaneSize>::rotate_left
  %t243 = call i64 @"_ZN40_$LT$u64$u20$as$u20$keccak..LaneSize$GT$11rotate_left17h4b233ff5d4bf1273E"(i64 %_274, i32 1), !dbg !1378
  store i64 %t243, i64* %t2.dbg.spill44, align 8, !dbg !1378
  call void @llvm.dbg.declare(metadata i64* %t2.dbg.spill44, metadata !1130, metadata !DIExpression()), !dbg !1379
  br label %bb70, !dbg !1378

bb70:                                             ; preds = %bb69
  %_277 = getelementptr inbounds [25 x i64], [25 x i64]* %state, i64 0, i64 7, !dbg !1380
; call <u64 as core::ops::bit::BitXor>::bitxor
  %_279 = call i64 @"_ZN46_$LT$u64$u20$as$u20$core..ops..bit..BitXor$GT$6bitxor17h7e70a648784d0ba5E"(i64 %t141, i64 %t243), !dbg !1381
  br label %bb71, !dbg !1381

bb71:                                             ; preds = %bb70
; call <u64 as core::ops::bit::BitXorAssign>::bitxor_assign
  call void @"_ZN52_$LT$u64$u20$as$u20$core..ops..bit..BitXorAssign$GT$13bitxor_assign17h04adaa63ce404956E"(i64* align 8 dereferenceable(8) %_277, i64 %_279), !dbg !1380
  br label %bb72, !dbg !1380

bb72:                                             ; preds = %bb71
  %73 = getelementptr inbounds [5 x i64], [5 x i64]* %array, i64 0, i64 1, !dbg !1321
  %t145 = load i64, i64* %73, align 8, !dbg !1321
  store i64 %t145, i64* %t1.dbg.spill46, align 8, !dbg !1321
  call void @llvm.dbg.declare(metadata i64* %t1.dbg.spill46, metadata !1132, metadata !DIExpression()), !dbg !1382
  %74 = getelementptr inbounds [5 x i64], [5 x i64]* %array, i64 0, i64 3, !dbg !1383
  %_285 = load i64, i64* %74, align 8, !dbg !1383
; call <u64 as keccak::LaneSize>::rotate_left
  %t247 = call i64 @"_ZN40_$LT$u64$u20$as$u20$keccak..LaneSize$GT$11rotate_left17h4b233ff5d4bf1273E"(i64 %_285, i32 1), !dbg !1383
  store i64 %t247, i64* %t2.dbg.spill48, align 8, !dbg !1383
  call void @llvm.dbg.declare(metadata i64* %t2.dbg.spill48, metadata !1134, metadata !DIExpression()), !dbg !1384
  br label %bb73, !dbg !1383

bb73:                                             ; preds = %bb72
  %_288 = getelementptr inbounds [25 x i64], [25 x i64]* %state, i64 0, i64 12, !dbg !1385
; call <u64 as core::ops::bit::BitXor>::bitxor
  %_290 = call i64 @"_ZN46_$LT$u64$u20$as$u20$core..ops..bit..BitXor$GT$6bitxor17h7e70a648784d0ba5E"(i64 %t145, i64 %t247), !dbg !1386
  br label %bb74, !dbg !1386

bb74:                                             ; preds = %bb73
; call <u64 as core::ops::bit::BitXorAssign>::bitxor_assign
  call void @"_ZN52_$LT$u64$u20$as$u20$core..ops..bit..BitXorAssign$GT$13bitxor_assign17h04adaa63ce404956E"(i64* align 8 dereferenceable(8) %_288, i64 %_290), !dbg !1385
  br label %bb75, !dbg !1385

bb75:                                             ; preds = %bb74
  %75 = getelementptr inbounds [5 x i64], [5 x i64]* %array, i64 0, i64 1, !dbg !1321
  %t149 = load i64, i64* %75, align 8, !dbg !1321
  store i64 %t149, i64* %t1.dbg.spill50, align 8, !dbg !1321
  call void @llvm.dbg.declare(metadata i64* %t1.dbg.spill50, metadata !1136, metadata !DIExpression()), !dbg !1387
  %76 = getelementptr inbounds [5 x i64], [5 x i64]* %array, i64 0, i64 3, !dbg !1388
  %_296 = load i64, i64* %76, align 8, !dbg !1388
; call <u64 as keccak::LaneSize>::rotate_left
  %t251 = call i64 @"_ZN40_$LT$u64$u20$as$u20$keccak..LaneSize$GT$11rotate_left17h4b233ff5d4bf1273E"(i64 %_296, i32 1), !dbg !1388
  store i64 %t251, i64* %t2.dbg.spill52, align 8, !dbg !1388
  call void @llvm.dbg.declare(metadata i64* %t2.dbg.spill52, metadata !1138, metadata !DIExpression()), !dbg !1389
  br label %bb76, !dbg !1388

bb76:                                             ; preds = %bb75
  %_299 = getelementptr inbounds [25 x i64], [25 x i64]* %state, i64 0, i64 17, !dbg !1390
; call <u64 as core::ops::bit::BitXor>::bitxor
  %_301 = call i64 @"_ZN46_$LT$u64$u20$as$u20$core..ops..bit..BitXor$GT$6bitxor17h7e70a648784d0ba5E"(i64 %t149, i64 %t251), !dbg !1391
  br label %bb77, !dbg !1391

bb77:                                             ; preds = %bb76
; call <u64 as core::ops::bit::BitXorAssign>::bitxor_assign
  call void @"_ZN52_$LT$u64$u20$as$u20$core..ops..bit..BitXorAssign$GT$13bitxor_assign17h04adaa63ce404956E"(i64* align 8 dereferenceable(8) %_299, i64 %_301), !dbg !1390
  br label %bb78, !dbg !1390

bb78:                                             ; preds = %bb77
  %77 = getelementptr inbounds [5 x i64], [5 x i64]* %array, i64 0, i64 1, !dbg !1321
  %t153 = load i64, i64* %77, align 8, !dbg !1321
  store i64 %t153, i64* %t1.dbg.spill54, align 8, !dbg !1321
  call void @llvm.dbg.declare(metadata i64* %t1.dbg.spill54, metadata !1140, metadata !DIExpression()), !dbg !1392
  %78 = getelementptr inbounds [5 x i64], [5 x i64]* %array, i64 0, i64 3, !dbg !1393
  %_307 = load i64, i64* %78, align 8, !dbg !1393
; call <u64 as keccak::LaneSize>::rotate_left
  %t255 = call i64 @"_ZN40_$LT$u64$u20$as$u20$keccak..LaneSize$GT$11rotate_left17h4b233ff5d4bf1273E"(i64 %_307, i32 1), !dbg !1393
  store i64 %t255, i64* %t2.dbg.spill56, align 8, !dbg !1393
  call void @llvm.dbg.declare(metadata i64* %t2.dbg.spill56, metadata !1142, metadata !DIExpression()), !dbg !1394
  br label %bb79, !dbg !1393

bb79:                                             ; preds = %bb78
  %_310 = getelementptr inbounds [25 x i64], [25 x i64]* %state, i64 0, i64 22, !dbg !1395
; call <u64 as core::ops::bit::BitXor>::bitxor
  %_312 = call i64 @"_ZN46_$LT$u64$u20$as$u20$core..ops..bit..BitXor$GT$6bitxor17h7e70a648784d0ba5E"(i64 %t153, i64 %t255), !dbg !1396
  br label %bb80, !dbg !1396

bb80:                                             ; preds = %bb79
; call <u64 as core::ops::bit::BitXorAssign>::bitxor_assign
  call void @"_ZN52_$LT$u64$u20$as$u20$core..ops..bit..BitXorAssign$GT$13bitxor_assign17h04adaa63ce404956E"(i64* align 8 dereferenceable(8) %_310, i64 %_312), !dbg !1395
  br label %bb81, !dbg !1395

bb81:                                             ; preds = %bb80
  %79 = getelementptr inbounds [5 x i64], [5 x i64]* %array, i64 0, i64 2, !dbg !1321
  %t157 = load i64, i64* %79, align 8, !dbg !1321
  store i64 %t157, i64* %t1.dbg.spill58, align 8, !dbg !1321
  call void @llvm.dbg.declare(metadata i64* %t1.dbg.spill58, metadata !1144, metadata !DIExpression()), !dbg !1397
  %80 = getelementptr inbounds [5 x i64], [5 x i64]* %array, i64 0, i64 4, !dbg !1398
  %_318 = load i64, i64* %80, align 8, !dbg !1398
; call <u64 as keccak::LaneSize>::rotate_left
  %t259 = call i64 @"_ZN40_$LT$u64$u20$as$u20$keccak..LaneSize$GT$11rotate_left17h4b233ff5d4bf1273E"(i64 %_318, i32 1), !dbg !1398
  store i64 %t259, i64* %t2.dbg.spill60, align 8, !dbg !1398
  call void @llvm.dbg.declare(metadata i64* %t2.dbg.spill60, metadata !1146, metadata !DIExpression()), !dbg !1399
  br label %bb82, !dbg !1398

bb82:                                             ; preds = %bb81
  %_321 = getelementptr inbounds [25 x i64], [25 x i64]* %state, i64 0, i64 3, !dbg !1400
; call <u64 as core::ops::bit::BitXor>::bitxor
  %_323 = call i64 @"_ZN46_$LT$u64$u20$as$u20$core..ops..bit..BitXor$GT$6bitxor17h7e70a648784d0ba5E"(i64 %t157, i64 %t259), !dbg !1401
  br label %bb83, !dbg !1401

bb83:                                             ; preds = %bb82
; call <u64 as core::ops::bit::BitXorAssign>::bitxor_assign
  call void @"_ZN52_$LT$u64$u20$as$u20$core..ops..bit..BitXorAssign$GT$13bitxor_assign17h04adaa63ce404956E"(i64* align 8 dereferenceable(8) %_321, i64 %_323), !dbg !1400
  br label %bb84, !dbg !1400

bb84:                                             ; preds = %bb83
  %81 = getelementptr inbounds [5 x i64], [5 x i64]* %array, i64 0, i64 2, !dbg !1321
  %t161 = load i64, i64* %81, align 8, !dbg !1321
  store i64 %t161, i64* %t1.dbg.spill62, align 8, !dbg !1321
  call void @llvm.dbg.declare(metadata i64* %t1.dbg.spill62, metadata !1148, metadata !DIExpression()), !dbg !1402
  %82 = getelementptr inbounds [5 x i64], [5 x i64]* %array, i64 0, i64 4, !dbg !1403
  %_329 = load i64, i64* %82, align 8, !dbg !1403
; call <u64 as keccak::LaneSize>::rotate_left
  %t263 = call i64 @"_ZN40_$LT$u64$u20$as$u20$keccak..LaneSize$GT$11rotate_left17h4b233ff5d4bf1273E"(i64 %_329, i32 1), !dbg !1403
  store i64 %t263, i64* %t2.dbg.spill64, align 8, !dbg !1403
  call void @llvm.dbg.declare(metadata i64* %t2.dbg.spill64, metadata !1150, metadata !DIExpression()), !dbg !1404
  br label %bb85, !dbg !1403

bb85:                                             ; preds = %bb84
  %_332 = getelementptr inbounds [25 x i64], [25 x i64]* %state, i64 0, i64 8, !dbg !1405
; call <u64 as core::ops::bit::BitXor>::bitxor
  %_334 = call i64 @"_ZN46_$LT$u64$u20$as$u20$core..ops..bit..BitXor$GT$6bitxor17h7e70a648784d0ba5E"(i64 %t161, i64 %t263), !dbg !1406
  br label %bb86, !dbg !1406

bb86:                                             ; preds = %bb85
; call <u64 as core::ops::bit::BitXorAssign>::bitxor_assign
  call void @"_ZN52_$LT$u64$u20$as$u20$core..ops..bit..BitXorAssign$GT$13bitxor_assign17h04adaa63ce404956E"(i64* align 8 dereferenceable(8) %_332, i64 %_334), !dbg !1405
  br label %bb87, !dbg !1405

bb87:                                             ; preds = %bb86
  %83 = getelementptr inbounds [5 x i64], [5 x i64]* %array, i64 0, i64 2, !dbg !1321
  %t165 = load i64, i64* %83, align 8, !dbg !1321
  store i64 %t165, i64* %t1.dbg.spill66, align 8, !dbg !1321
  call void @llvm.dbg.declare(metadata i64* %t1.dbg.spill66, metadata !1152, metadata !DIExpression()), !dbg !1407
  %84 = getelementptr inbounds [5 x i64], [5 x i64]* %array, i64 0, i64 4, !dbg !1408
  %_340 = load i64, i64* %84, align 8, !dbg !1408
; call <u64 as keccak::LaneSize>::rotate_left
  %t267 = call i64 @"_ZN40_$LT$u64$u20$as$u20$keccak..LaneSize$GT$11rotate_left17h4b233ff5d4bf1273E"(i64 %_340, i32 1), !dbg !1408
  store i64 %t267, i64* %t2.dbg.spill68, align 8, !dbg !1408
  call void @llvm.dbg.declare(metadata i64* %t2.dbg.spill68, metadata !1154, metadata !DIExpression()), !dbg !1409
  br label %bb88, !dbg !1408

bb88:                                             ; preds = %bb87
  %_343 = getelementptr inbounds [25 x i64], [25 x i64]* %state, i64 0, i64 13, !dbg !1410
; call <u64 as core::ops::bit::BitXor>::bitxor
  %_345 = call i64 @"_ZN46_$LT$u64$u20$as$u20$core..ops..bit..BitXor$GT$6bitxor17h7e70a648784d0ba5E"(i64 %t165, i64 %t267), !dbg !1411
  br label %bb89, !dbg !1411

bb89:                                             ; preds = %bb88
; call <u64 as core::ops::bit::BitXorAssign>::bitxor_assign
  call void @"_ZN52_$LT$u64$u20$as$u20$core..ops..bit..BitXorAssign$GT$13bitxor_assign17h04adaa63ce404956E"(i64* align 8 dereferenceable(8) %_343, i64 %_345), !dbg !1410
  br label %bb90, !dbg !1410

bb90:                                             ; preds = %bb89
  %85 = getelementptr inbounds [5 x i64], [5 x i64]* %array, i64 0, i64 2, !dbg !1321
  %t169 = load i64, i64* %85, align 8, !dbg !1321
  store i64 %t169, i64* %t1.dbg.spill70, align 8, !dbg !1321
  call void @llvm.dbg.declare(metadata i64* %t1.dbg.spill70, metadata !1156, metadata !DIExpression()), !dbg !1412
  %86 = getelementptr inbounds [5 x i64], [5 x i64]* %array, i64 0, i64 4, !dbg !1413
  %_351 = load i64, i64* %86, align 8, !dbg !1413
; call <u64 as keccak::LaneSize>::rotate_left
  %t271 = call i64 @"_ZN40_$LT$u64$u20$as$u20$keccak..LaneSize$GT$11rotate_left17h4b233ff5d4bf1273E"(i64 %_351, i32 1), !dbg !1413
  store i64 %t271, i64* %t2.dbg.spill72, align 8, !dbg !1413
  call void @llvm.dbg.declare(metadata i64* %t2.dbg.spill72, metadata !1158, metadata !DIExpression()), !dbg !1414
  br label %bb91, !dbg !1413

bb91:                                             ; preds = %bb90
  %_354 = getelementptr inbounds [25 x i64], [25 x i64]* %state, i64 0, i64 18, !dbg !1415
; call <u64 as core::ops::bit::BitXor>::bitxor
  %_356 = call i64 @"_ZN46_$LT$u64$u20$as$u20$core..ops..bit..BitXor$GT$6bitxor17h7e70a648784d0ba5E"(i64 %t169, i64 %t271), !dbg !1416
  br label %bb92, !dbg !1416

bb92:                                             ; preds = %bb91
; call <u64 as core::ops::bit::BitXorAssign>::bitxor_assign
  call void @"_ZN52_$LT$u64$u20$as$u20$core..ops..bit..BitXorAssign$GT$13bitxor_assign17h04adaa63ce404956E"(i64* align 8 dereferenceable(8) %_354, i64 %_356), !dbg !1415
  br label %bb93, !dbg !1415

bb93:                                             ; preds = %bb92
  %87 = getelementptr inbounds [5 x i64], [5 x i64]* %array, i64 0, i64 2, !dbg !1321
  %t173 = load i64, i64* %87, align 8, !dbg !1321
  store i64 %t173, i64* %t1.dbg.spill74, align 8, !dbg !1321
  call void @llvm.dbg.declare(metadata i64* %t1.dbg.spill74, metadata !1160, metadata !DIExpression()), !dbg !1417
  %88 = getelementptr inbounds [5 x i64], [5 x i64]* %array, i64 0, i64 4, !dbg !1418
  %_362 = load i64, i64* %88, align 8, !dbg !1418
; call <u64 as keccak::LaneSize>::rotate_left
  %t275 = call i64 @"_ZN40_$LT$u64$u20$as$u20$keccak..LaneSize$GT$11rotate_left17h4b233ff5d4bf1273E"(i64 %_362, i32 1), !dbg !1418
  store i64 %t275, i64* %t2.dbg.spill76, align 8, !dbg !1418
  call void @llvm.dbg.declare(metadata i64* %t2.dbg.spill76, metadata !1162, metadata !DIExpression()), !dbg !1419
  br label %bb94, !dbg !1418

bb94:                                             ; preds = %bb93
  %_365 = getelementptr inbounds [25 x i64], [25 x i64]* %state, i64 0, i64 23, !dbg !1420
; call <u64 as core::ops::bit::BitXor>::bitxor
  %_367 = call i64 @"_ZN46_$LT$u64$u20$as$u20$core..ops..bit..BitXor$GT$6bitxor17h7e70a648784d0ba5E"(i64 %t173, i64 %t275), !dbg !1421
  br label %bb95, !dbg !1421

bb95:                                             ; preds = %bb94
; call <u64 as core::ops::bit::BitXorAssign>::bitxor_assign
  call void @"_ZN52_$LT$u64$u20$as$u20$core..ops..bit..BitXorAssign$GT$13bitxor_assign17h04adaa63ce404956E"(i64* align 8 dereferenceable(8) %_365, i64 %_367), !dbg !1420
  br label %bb96, !dbg !1420

bb96:                                             ; preds = %bb95
  %89 = getelementptr inbounds [5 x i64], [5 x i64]* %array, i64 0, i64 3, !dbg !1321
  %t177 = load i64, i64* %89, align 8, !dbg !1321
  store i64 %t177, i64* %t1.dbg.spill78, align 8, !dbg !1321
  call void @llvm.dbg.declare(metadata i64* %t1.dbg.spill78, metadata !1164, metadata !DIExpression()), !dbg !1422
  %90 = getelementptr inbounds [5 x i64], [5 x i64]* %array, i64 0, i64 0, !dbg !1423
  %_373 = load i64, i64* %90, align 8, !dbg !1423
; call <u64 as keccak::LaneSize>::rotate_left
  %t279 = call i64 @"_ZN40_$LT$u64$u20$as$u20$keccak..LaneSize$GT$11rotate_left17h4b233ff5d4bf1273E"(i64 %_373, i32 1), !dbg !1423
  store i64 %t279, i64* %t2.dbg.spill80, align 8, !dbg !1423
  call void @llvm.dbg.declare(metadata i64* %t2.dbg.spill80, metadata !1166, metadata !DIExpression()), !dbg !1424
  br label %bb97, !dbg !1423

bb97:                                             ; preds = %bb96
  %_376 = getelementptr inbounds [25 x i64], [25 x i64]* %state, i64 0, i64 4, !dbg !1425
; call <u64 as core::ops::bit::BitXor>::bitxor
  %_378 = call i64 @"_ZN46_$LT$u64$u20$as$u20$core..ops..bit..BitXor$GT$6bitxor17h7e70a648784d0ba5E"(i64 %t177, i64 %t279), !dbg !1426
  br label %bb98, !dbg !1426

bb98:                                             ; preds = %bb97
; call <u64 as core::ops::bit::BitXorAssign>::bitxor_assign
  call void @"_ZN52_$LT$u64$u20$as$u20$core..ops..bit..BitXorAssign$GT$13bitxor_assign17h04adaa63ce404956E"(i64* align 8 dereferenceable(8) %_376, i64 %_378), !dbg !1425
  br label %bb99, !dbg !1425

bb99:                                             ; preds = %bb98
  %91 = getelementptr inbounds [5 x i64], [5 x i64]* %array, i64 0, i64 3, !dbg !1321
  %t181 = load i64, i64* %91, align 8, !dbg !1321
  store i64 %t181, i64* %t1.dbg.spill82, align 8, !dbg !1321
  call void @llvm.dbg.declare(metadata i64* %t1.dbg.spill82, metadata !1168, metadata !DIExpression()), !dbg !1427
  %92 = getelementptr inbounds [5 x i64], [5 x i64]* %array, i64 0, i64 0, !dbg !1428
  %_384 = load i64, i64* %92, align 8, !dbg !1428
; call <u64 as keccak::LaneSize>::rotate_left
  %t283 = call i64 @"_ZN40_$LT$u64$u20$as$u20$keccak..LaneSize$GT$11rotate_left17h4b233ff5d4bf1273E"(i64 %_384, i32 1), !dbg !1428
  store i64 %t283, i64* %t2.dbg.spill84, align 8, !dbg !1428
  call void @llvm.dbg.declare(metadata i64* %t2.dbg.spill84, metadata !1170, metadata !DIExpression()), !dbg !1429
  br label %bb100, !dbg !1428

bb100:                                            ; preds = %bb99
  %_387 = getelementptr inbounds [25 x i64], [25 x i64]* %state, i64 0, i64 9, !dbg !1430
; call <u64 as core::ops::bit::BitXor>::bitxor
  %_389 = call i64 @"_ZN46_$LT$u64$u20$as$u20$core..ops..bit..BitXor$GT$6bitxor17h7e70a648784d0ba5E"(i64 %t181, i64 %t283), !dbg !1431
  br label %bb101, !dbg !1431

bb101:                                            ; preds = %bb100
; call <u64 as core::ops::bit::BitXorAssign>::bitxor_assign
  call void @"_ZN52_$LT$u64$u20$as$u20$core..ops..bit..BitXorAssign$GT$13bitxor_assign17h04adaa63ce404956E"(i64* align 8 dereferenceable(8) %_387, i64 %_389), !dbg !1430
  br label %bb102, !dbg !1430

bb102:                                            ; preds = %bb101
  %93 = getelementptr inbounds [5 x i64], [5 x i64]* %array, i64 0, i64 3, !dbg !1321
  %t185 = load i64, i64* %93, align 8, !dbg !1321
  store i64 %t185, i64* %t1.dbg.spill86, align 8, !dbg !1321
  call void @llvm.dbg.declare(metadata i64* %t1.dbg.spill86, metadata !1172, metadata !DIExpression()), !dbg !1432
  %94 = getelementptr inbounds [5 x i64], [5 x i64]* %array, i64 0, i64 0, !dbg !1433
  %_395 = load i64, i64* %94, align 8, !dbg !1433
; call <u64 as keccak::LaneSize>::rotate_left
  %t287 = call i64 @"_ZN40_$LT$u64$u20$as$u20$keccak..LaneSize$GT$11rotate_left17h4b233ff5d4bf1273E"(i64 %_395, i32 1), !dbg !1433
  store i64 %t287, i64* %t2.dbg.spill88, align 8, !dbg !1433
  call void @llvm.dbg.declare(metadata i64* %t2.dbg.spill88, metadata !1174, metadata !DIExpression()), !dbg !1434
  br label %bb103, !dbg !1433

bb103:                                            ; preds = %bb102
  %_398 = getelementptr inbounds [25 x i64], [25 x i64]* %state, i64 0, i64 14, !dbg !1435
; call <u64 as core::ops::bit::BitXor>::bitxor
  %_400 = call i64 @"_ZN46_$LT$u64$u20$as$u20$core..ops..bit..BitXor$GT$6bitxor17h7e70a648784d0ba5E"(i64 %t185, i64 %t287), !dbg !1436
  br label %bb104, !dbg !1436

bb104:                                            ; preds = %bb103
; call <u64 as core::ops::bit::BitXorAssign>::bitxor_assign
  call void @"_ZN52_$LT$u64$u20$as$u20$core..ops..bit..BitXorAssign$GT$13bitxor_assign17h04adaa63ce404956E"(i64* align 8 dereferenceable(8) %_398, i64 %_400), !dbg !1435
  br label %bb105, !dbg !1435

bb105:                                            ; preds = %bb104
  %95 = getelementptr inbounds [5 x i64], [5 x i64]* %array, i64 0, i64 3, !dbg !1321
  %t189 = load i64, i64* %95, align 8, !dbg !1321
  store i64 %t189, i64* %t1.dbg.spill90, align 8, !dbg !1321
  call void @llvm.dbg.declare(metadata i64* %t1.dbg.spill90, metadata !1176, metadata !DIExpression()), !dbg !1437
  %96 = getelementptr inbounds [5 x i64], [5 x i64]* %array, i64 0, i64 0, !dbg !1438
  %_406 = load i64, i64* %96, align 8, !dbg !1438
; call <u64 as keccak::LaneSize>::rotate_left
  %t291 = call i64 @"_ZN40_$LT$u64$u20$as$u20$keccak..LaneSize$GT$11rotate_left17h4b233ff5d4bf1273E"(i64 %_406, i32 1), !dbg !1438
  store i64 %t291, i64* %t2.dbg.spill92, align 8, !dbg !1438
  call void @llvm.dbg.declare(metadata i64* %t2.dbg.spill92, metadata !1178, metadata !DIExpression()), !dbg !1439
  br label %bb106, !dbg !1438

bb106:                                            ; preds = %bb105
  %_409 = getelementptr inbounds [25 x i64], [25 x i64]* %state, i64 0, i64 19, !dbg !1440
; call <u64 as core::ops::bit::BitXor>::bitxor
  %_411 = call i64 @"_ZN46_$LT$u64$u20$as$u20$core..ops..bit..BitXor$GT$6bitxor17h7e70a648784d0ba5E"(i64 %t189, i64 %t291), !dbg !1441
  br label %bb107, !dbg !1441

bb107:                                            ; preds = %bb106
; call <u64 as core::ops::bit::BitXorAssign>::bitxor_assign
  call void @"_ZN52_$LT$u64$u20$as$u20$core..ops..bit..BitXorAssign$GT$13bitxor_assign17h04adaa63ce404956E"(i64* align 8 dereferenceable(8) %_409, i64 %_411), !dbg !1440
  br label %bb108, !dbg !1440

bb108:                                            ; preds = %bb107
  %97 = getelementptr inbounds [5 x i64], [5 x i64]* %array, i64 0, i64 3, !dbg !1321
  %t193 = load i64, i64* %97, align 8, !dbg !1321
  store i64 %t193, i64* %t1.dbg.spill94, align 8, !dbg !1321
  call void @llvm.dbg.declare(metadata i64* %t1.dbg.spill94, metadata !1180, metadata !DIExpression()), !dbg !1442
  %98 = getelementptr inbounds [5 x i64], [5 x i64]* %array, i64 0, i64 0, !dbg !1443
  %_417 = load i64, i64* %98, align 8, !dbg !1443
; call <u64 as keccak::LaneSize>::rotate_left
  %t295 = call i64 @"_ZN40_$LT$u64$u20$as$u20$keccak..LaneSize$GT$11rotate_left17h4b233ff5d4bf1273E"(i64 %_417, i32 1), !dbg !1443
  store i64 %t295, i64* %t2.dbg.spill96, align 8, !dbg !1443
  call void @llvm.dbg.declare(metadata i64* %t2.dbg.spill96, metadata !1182, metadata !DIExpression()), !dbg !1444
  br label %bb109, !dbg !1443

bb109:                                            ; preds = %bb108
  %_420 = getelementptr inbounds [25 x i64], [25 x i64]* %state, i64 0, i64 24, !dbg !1445
; call <u64 as core::ops::bit::BitXor>::bitxor
  %_422 = call i64 @"_ZN46_$LT$u64$u20$as$u20$core..ops..bit..BitXor$GT$6bitxor17h7e70a648784d0ba5E"(i64 %t193, i64 %t295), !dbg !1446
  br label %bb110, !dbg !1446

bb110:                                            ; preds = %bb109
; call <u64 as core::ops::bit::BitXorAssign>::bitxor_assign
  call void @"_ZN52_$LT$u64$u20$as$u20$core..ops..bit..BitXorAssign$GT$13bitxor_assign17h04adaa63ce404956E"(i64* align 8 dereferenceable(8) %_420, i64 %_422), !dbg !1445
  br label %bb111, !dbg !1445

bb111:                                            ; preds = %bb110
  %99 = getelementptr inbounds [25 x i64], [25 x i64]* %state, i64 0, i64 1, !dbg !1447
  %100 = load i64, i64* %99, align 8, !dbg !1447
  store i64 %100, i64* %last, align 8, !dbg !1447
  %101 = getelementptr inbounds [25 x i64], [25 x i64]* %state, i64 0, i64 10, !dbg !1448
  %_427 = load i64, i64* %101, align 8, !dbg !1448
  %102 = getelementptr inbounds [5 x i64], [5 x i64]* %array, i64 0, i64 0, !dbg !1449
  store i64 %_427, i64* %102, align 8, !dbg !1449
  %_431 = load i64, i64* %last, align 8, !dbg !1450
; call <u64 as keccak::LaneSize>::rotate_left
  %_430 = call i64 @"_ZN40_$LT$u64$u20$as$u20$keccak..LaneSize$GT$11rotate_left17h4b233ff5d4bf1273E"(i64 %_431, i32 1), !dbg !1450
  br label %bb112, !dbg !1450

bb112:                                            ; preds = %bb111
  %103 = getelementptr inbounds [25 x i64], [25 x i64]* %state, i64 0, i64 10, !dbg !1451
  store i64 %_430, i64* %103, align 8, !dbg !1451
  %104 = getelementptr inbounds [5 x i64], [5 x i64]* %array, i64 0, i64 0, !dbg !1452
  %_434 = load i64, i64* %104, align 8, !dbg !1452
  store i64 %_434, i64* %last, align 8, !dbg !1453
  %105 = getelementptr inbounds [25 x i64], [25 x i64]* %state, i64 0, i64 7, !dbg !1448
  %_436 = load i64, i64* %105, align 8, !dbg !1448
  %106 = getelementptr inbounds [5 x i64], [5 x i64]* %array, i64 0, i64 0, !dbg !1449
  store i64 %_436, i64* %106, align 8, !dbg !1449
  %_440 = load i64, i64* %last, align 8, !dbg !1450
; call <u64 as keccak::LaneSize>::rotate_left
  %_439 = call i64 @"_ZN40_$LT$u64$u20$as$u20$keccak..LaneSize$GT$11rotate_left17h4b233ff5d4bf1273E"(i64 %_440, i32 3), !dbg !1450
  br label %bb113, !dbg !1450

bb113:                                            ; preds = %bb112
  %107 = getelementptr inbounds [25 x i64], [25 x i64]* %state, i64 0, i64 7, !dbg !1451
  store i64 %_439, i64* %107, align 8, !dbg !1451
  %108 = getelementptr inbounds [5 x i64], [5 x i64]* %array, i64 0, i64 0, !dbg !1452
  %_443 = load i64, i64* %108, align 8, !dbg !1452
  store i64 %_443, i64* %last, align 8, !dbg !1453
  %109 = getelementptr inbounds [25 x i64], [25 x i64]* %state, i64 0, i64 11, !dbg !1448
  %_445 = load i64, i64* %109, align 8, !dbg !1448
  %110 = getelementptr inbounds [5 x i64], [5 x i64]* %array, i64 0, i64 0, !dbg !1449
  store i64 %_445, i64* %110, align 8, !dbg !1449
  %_449 = load i64, i64* %last, align 8, !dbg !1450
; call <u64 as keccak::LaneSize>::rotate_left
  %_448 = call i64 @"_ZN40_$LT$u64$u20$as$u20$keccak..LaneSize$GT$11rotate_left17h4b233ff5d4bf1273E"(i64 %_449, i32 6), !dbg !1450
  br label %bb114, !dbg !1450

bb114:                                            ; preds = %bb113
  %111 = getelementptr inbounds [25 x i64], [25 x i64]* %state, i64 0, i64 11, !dbg !1451
  store i64 %_448, i64* %111, align 8, !dbg !1451
  %112 = getelementptr inbounds [5 x i64], [5 x i64]* %array, i64 0, i64 0, !dbg !1452
  %_452 = load i64, i64* %112, align 8, !dbg !1452
  store i64 %_452, i64* %last, align 8, !dbg !1453
  %113 = getelementptr inbounds [25 x i64], [25 x i64]* %state, i64 0, i64 17, !dbg !1448
  %_454 = load i64, i64* %113, align 8, !dbg !1448
  %114 = getelementptr inbounds [5 x i64], [5 x i64]* %array, i64 0, i64 0, !dbg !1449
  store i64 %_454, i64* %114, align 8, !dbg !1449
  %_458 = load i64, i64* %last, align 8, !dbg !1450
; call <u64 as keccak::LaneSize>::rotate_left
  %_457 = call i64 @"_ZN40_$LT$u64$u20$as$u20$keccak..LaneSize$GT$11rotate_left17h4b233ff5d4bf1273E"(i64 %_458, i32 10), !dbg !1450
  br label %bb115, !dbg !1450

bb115:                                            ; preds = %bb114
  %115 = getelementptr inbounds [25 x i64], [25 x i64]* %state, i64 0, i64 17, !dbg !1451
  store i64 %_457, i64* %115, align 8, !dbg !1451
  %116 = getelementptr inbounds [5 x i64], [5 x i64]* %array, i64 0, i64 0, !dbg !1452
  %_461 = load i64, i64* %116, align 8, !dbg !1452
  store i64 %_461, i64* %last, align 8, !dbg !1453
  %117 = getelementptr inbounds [25 x i64], [25 x i64]* %state, i64 0, i64 18, !dbg !1448
  %_463 = load i64, i64* %117, align 8, !dbg !1448
  %118 = getelementptr inbounds [5 x i64], [5 x i64]* %array, i64 0, i64 0, !dbg !1449
  store i64 %_463, i64* %118, align 8, !dbg !1449
  %_467 = load i64, i64* %last, align 8, !dbg !1450
; call <u64 as keccak::LaneSize>::rotate_left
  %_466 = call i64 @"_ZN40_$LT$u64$u20$as$u20$keccak..LaneSize$GT$11rotate_left17h4b233ff5d4bf1273E"(i64 %_467, i32 15), !dbg !1450
  br label %bb116, !dbg !1450

bb116:                                            ; preds = %bb115
  %119 = getelementptr inbounds [25 x i64], [25 x i64]* %state, i64 0, i64 18, !dbg !1451
  store i64 %_466, i64* %119, align 8, !dbg !1451
  %120 = getelementptr inbounds [5 x i64], [5 x i64]* %array, i64 0, i64 0, !dbg !1452
  %_470 = load i64, i64* %120, align 8, !dbg !1452
  store i64 %_470, i64* %last, align 8, !dbg !1453
  %121 = getelementptr inbounds [25 x i64], [25 x i64]* %state, i64 0, i64 3, !dbg !1448
  %_472 = load i64, i64* %121, align 8, !dbg !1448
  %122 = getelementptr inbounds [5 x i64], [5 x i64]* %array, i64 0, i64 0, !dbg !1449
  store i64 %_472, i64* %122, align 8, !dbg !1449
  %_476 = load i64, i64* %last, align 8, !dbg !1450
; call <u64 as keccak::LaneSize>::rotate_left
  %_475 = call i64 @"_ZN40_$LT$u64$u20$as$u20$keccak..LaneSize$GT$11rotate_left17h4b233ff5d4bf1273E"(i64 %_476, i32 21), !dbg !1450
  br label %bb117, !dbg !1450

bb117:                                            ; preds = %bb116
  %123 = getelementptr inbounds [25 x i64], [25 x i64]* %state, i64 0, i64 3, !dbg !1451
  store i64 %_475, i64* %123, align 8, !dbg !1451
  %124 = getelementptr inbounds [5 x i64], [5 x i64]* %array, i64 0, i64 0, !dbg !1452
  %_479 = load i64, i64* %124, align 8, !dbg !1452
  store i64 %_479, i64* %last, align 8, !dbg !1453
  %125 = getelementptr inbounds [25 x i64], [25 x i64]* %state, i64 0, i64 5, !dbg !1448
  %_481 = load i64, i64* %125, align 8, !dbg !1448
  %126 = getelementptr inbounds [5 x i64], [5 x i64]* %array, i64 0, i64 0, !dbg !1449
  store i64 %_481, i64* %126, align 8, !dbg !1449
  %_485 = load i64, i64* %last, align 8, !dbg !1450
; call <u64 as keccak::LaneSize>::rotate_left
  %_484 = call i64 @"_ZN40_$LT$u64$u20$as$u20$keccak..LaneSize$GT$11rotate_left17h4b233ff5d4bf1273E"(i64 %_485, i32 28), !dbg !1450
  br label %bb118, !dbg !1450

bb118:                                            ; preds = %bb117
  %127 = getelementptr inbounds [25 x i64], [25 x i64]* %state, i64 0, i64 5, !dbg !1451
  store i64 %_484, i64* %127, align 8, !dbg !1451
  %128 = getelementptr inbounds [5 x i64], [5 x i64]* %array, i64 0, i64 0, !dbg !1452
  %_488 = load i64, i64* %128, align 8, !dbg !1452
  store i64 %_488, i64* %last, align 8, !dbg !1453
  %129 = getelementptr inbounds [25 x i64], [25 x i64]* %state, i64 0, i64 16, !dbg !1448
  %_490 = load i64, i64* %129, align 8, !dbg !1448
  %130 = getelementptr inbounds [5 x i64], [5 x i64]* %array, i64 0, i64 0, !dbg !1449
  store i64 %_490, i64* %130, align 8, !dbg !1449
  %_494 = load i64, i64* %last, align 8, !dbg !1450
; call <u64 as keccak::LaneSize>::rotate_left
  %_493 = call i64 @"_ZN40_$LT$u64$u20$as$u20$keccak..LaneSize$GT$11rotate_left17h4b233ff5d4bf1273E"(i64 %_494, i32 36), !dbg !1450
  br label %bb119, !dbg !1450

bb119:                                            ; preds = %bb118
  %131 = getelementptr inbounds [25 x i64], [25 x i64]* %state, i64 0, i64 16, !dbg !1451
  store i64 %_493, i64* %131, align 8, !dbg !1451
  %132 = getelementptr inbounds [5 x i64], [5 x i64]* %array, i64 0, i64 0, !dbg !1452
  %_497 = load i64, i64* %132, align 8, !dbg !1452
  store i64 %_497, i64* %last, align 8, !dbg !1453
  %133 = getelementptr inbounds [25 x i64], [25 x i64]* %state, i64 0, i64 8, !dbg !1448
  %_499 = load i64, i64* %133, align 8, !dbg !1448
  %134 = getelementptr inbounds [5 x i64], [5 x i64]* %array, i64 0, i64 0, !dbg !1449
  store i64 %_499, i64* %134, align 8, !dbg !1449
  %_503 = load i64, i64* %last, align 8, !dbg !1450
; call <u64 as keccak::LaneSize>::rotate_left
  %_502 = call i64 @"_ZN40_$LT$u64$u20$as$u20$keccak..LaneSize$GT$11rotate_left17h4b233ff5d4bf1273E"(i64 %_503, i32 45), !dbg !1450
  br label %bb120, !dbg !1450

bb120:                                            ; preds = %bb119
  %135 = getelementptr inbounds [25 x i64], [25 x i64]* %state, i64 0, i64 8, !dbg !1451
  store i64 %_502, i64* %135, align 8, !dbg !1451
  %136 = getelementptr inbounds [5 x i64], [5 x i64]* %array, i64 0, i64 0, !dbg !1452
  %_506 = load i64, i64* %136, align 8, !dbg !1452
  store i64 %_506, i64* %last, align 8, !dbg !1453
  %137 = getelementptr inbounds [25 x i64], [25 x i64]* %state, i64 0, i64 21, !dbg !1448
  %_508 = load i64, i64* %137, align 8, !dbg !1448
  %138 = getelementptr inbounds [5 x i64], [5 x i64]* %array, i64 0, i64 0, !dbg !1449
  store i64 %_508, i64* %138, align 8, !dbg !1449
  %_512 = load i64, i64* %last, align 8, !dbg !1450
; call <u64 as keccak::LaneSize>::rotate_left
  %_511 = call i64 @"_ZN40_$LT$u64$u20$as$u20$keccak..LaneSize$GT$11rotate_left17h4b233ff5d4bf1273E"(i64 %_512, i32 55), !dbg !1450
  br label %bb121, !dbg !1450

bb121:                                            ; preds = %bb120
  %139 = getelementptr inbounds [25 x i64], [25 x i64]* %state, i64 0, i64 21, !dbg !1451
  store i64 %_511, i64* %139, align 8, !dbg !1451
  %140 = getelementptr inbounds [5 x i64], [5 x i64]* %array, i64 0, i64 0, !dbg !1452
  %_515 = load i64, i64* %140, align 8, !dbg !1452
  store i64 %_515, i64* %last, align 8, !dbg !1453
  %141 = getelementptr inbounds [25 x i64], [25 x i64]* %state, i64 0, i64 24, !dbg !1448
  %_517 = load i64, i64* %141, align 8, !dbg !1448
  %142 = getelementptr inbounds [5 x i64], [5 x i64]* %array, i64 0, i64 0, !dbg !1449
  store i64 %_517, i64* %142, align 8, !dbg !1449
  %_521 = load i64, i64* %last, align 8, !dbg !1450
; call <u64 as keccak::LaneSize>::rotate_left
  %_520 = call i64 @"_ZN40_$LT$u64$u20$as$u20$keccak..LaneSize$GT$11rotate_left17h4b233ff5d4bf1273E"(i64 %_521, i32 2), !dbg !1450
  br label %bb122, !dbg !1450

bb122:                                            ; preds = %bb121
  %143 = getelementptr inbounds [25 x i64], [25 x i64]* %state, i64 0, i64 24, !dbg !1451
  store i64 %_520, i64* %143, align 8, !dbg !1451
  %144 = getelementptr inbounds [5 x i64], [5 x i64]* %array, i64 0, i64 0, !dbg !1452
  %_524 = load i64, i64* %144, align 8, !dbg !1452
  store i64 %_524, i64* %last, align 8, !dbg !1453
  %145 = getelementptr inbounds [25 x i64], [25 x i64]* %state, i64 0, i64 4, !dbg !1448
  %_526 = load i64, i64* %145, align 8, !dbg !1448
  %146 = getelementptr inbounds [5 x i64], [5 x i64]* %array, i64 0, i64 0, !dbg !1449
  store i64 %_526, i64* %146, align 8, !dbg !1449
  %_530 = load i64, i64* %last, align 8, !dbg !1450
; call <u64 as keccak::LaneSize>::rotate_left
  %_529 = call i64 @"_ZN40_$LT$u64$u20$as$u20$keccak..LaneSize$GT$11rotate_left17h4b233ff5d4bf1273E"(i64 %_530, i32 14), !dbg !1450
  br label %bb123, !dbg !1450

bb123:                                            ; preds = %bb122
  %147 = getelementptr inbounds [25 x i64], [25 x i64]* %state, i64 0, i64 4, !dbg !1451
  store i64 %_529, i64* %147, align 8, !dbg !1451
  %148 = getelementptr inbounds [5 x i64], [5 x i64]* %array, i64 0, i64 0, !dbg !1452
  %_533 = load i64, i64* %148, align 8, !dbg !1452
  store i64 %_533, i64* %last, align 8, !dbg !1453
  %149 = getelementptr inbounds [25 x i64], [25 x i64]* %state, i64 0, i64 15, !dbg !1448
  %_535 = load i64, i64* %149, align 8, !dbg !1448
  %150 = getelementptr inbounds [5 x i64], [5 x i64]* %array, i64 0, i64 0, !dbg !1449
  store i64 %_535, i64* %150, align 8, !dbg !1449
  %_539 = load i64, i64* %last, align 8, !dbg !1450
; call <u64 as keccak::LaneSize>::rotate_left
  %_538 = call i64 @"_ZN40_$LT$u64$u20$as$u20$keccak..LaneSize$GT$11rotate_left17h4b233ff5d4bf1273E"(i64 %_539, i32 27), !dbg !1450
  br label %bb124, !dbg !1450

bb124:                                            ; preds = %bb123
  %151 = getelementptr inbounds [25 x i64], [25 x i64]* %state, i64 0, i64 15, !dbg !1451
  store i64 %_538, i64* %151, align 8, !dbg !1451
  %152 = getelementptr inbounds [5 x i64], [5 x i64]* %array, i64 0, i64 0, !dbg !1452
  %_542 = load i64, i64* %152, align 8, !dbg !1452
  store i64 %_542, i64* %last, align 8, !dbg !1453
  %153 = getelementptr inbounds [25 x i64], [25 x i64]* %state, i64 0, i64 23, !dbg !1448
  %_544 = load i64, i64* %153, align 8, !dbg !1448
  %154 = getelementptr inbounds [5 x i64], [5 x i64]* %array, i64 0, i64 0, !dbg !1449
  store i64 %_544, i64* %154, align 8, !dbg !1449
  %_548 = load i64, i64* %last, align 8, !dbg !1450
; call <u64 as keccak::LaneSize>::rotate_left
  %_547 = call i64 @"_ZN40_$LT$u64$u20$as$u20$keccak..LaneSize$GT$11rotate_left17h4b233ff5d4bf1273E"(i64 %_548, i32 41), !dbg !1450
  br label %bb125, !dbg !1450

bb125:                                            ; preds = %bb124
  %155 = getelementptr inbounds [25 x i64], [25 x i64]* %state, i64 0, i64 23, !dbg !1451
  store i64 %_547, i64* %155, align 8, !dbg !1451
  %156 = getelementptr inbounds [5 x i64], [5 x i64]* %array, i64 0, i64 0, !dbg !1452
  %_551 = load i64, i64* %156, align 8, !dbg !1452
  store i64 %_551, i64* %last, align 8, !dbg !1453
  %157 = getelementptr inbounds [25 x i64], [25 x i64]* %state, i64 0, i64 19, !dbg !1448
  %_553 = load i64, i64* %157, align 8, !dbg !1448
  %158 = getelementptr inbounds [5 x i64], [5 x i64]* %array, i64 0, i64 0, !dbg !1449
  store i64 %_553, i64* %158, align 8, !dbg !1449
  %_557 = load i64, i64* %last, align 8, !dbg !1450
; call <u64 as keccak::LaneSize>::rotate_left
  %_556 = call i64 @"_ZN40_$LT$u64$u20$as$u20$keccak..LaneSize$GT$11rotate_left17h4b233ff5d4bf1273E"(i64 %_557, i32 56), !dbg !1450
  br label %bb126, !dbg !1450

bb126:                                            ; preds = %bb125
  %159 = getelementptr inbounds [25 x i64], [25 x i64]* %state, i64 0, i64 19, !dbg !1451
  store i64 %_556, i64* %159, align 8, !dbg !1451
  %160 = getelementptr inbounds [5 x i64], [5 x i64]* %array, i64 0, i64 0, !dbg !1452
  %_560 = load i64, i64* %160, align 8, !dbg !1452
  store i64 %_560, i64* %last, align 8, !dbg !1453
  %161 = getelementptr inbounds [25 x i64], [25 x i64]* %state, i64 0, i64 13, !dbg !1448
  %_562 = load i64, i64* %161, align 8, !dbg !1448
  %162 = getelementptr inbounds [5 x i64], [5 x i64]* %array, i64 0, i64 0, !dbg !1449
  store i64 %_562, i64* %162, align 8, !dbg !1449
  %_566 = load i64, i64* %last, align 8, !dbg !1450
; call <u64 as keccak::LaneSize>::rotate_left
  %_565 = call i64 @"_ZN40_$LT$u64$u20$as$u20$keccak..LaneSize$GT$11rotate_left17h4b233ff5d4bf1273E"(i64 %_566, i32 8), !dbg !1450
  br label %bb127, !dbg !1450

bb127:                                            ; preds = %bb126
  %163 = getelementptr inbounds [25 x i64], [25 x i64]* %state, i64 0, i64 13, !dbg !1451
  store i64 %_565, i64* %163, align 8, !dbg !1451
  %164 = getelementptr inbounds [5 x i64], [5 x i64]* %array, i64 0, i64 0, !dbg !1452
  %_569 = load i64, i64* %164, align 8, !dbg !1452
  store i64 %_569, i64* %last, align 8, !dbg !1453
  %165 = getelementptr inbounds [25 x i64], [25 x i64]* %state, i64 0, i64 12, !dbg !1448
  %_571 = load i64, i64* %165, align 8, !dbg !1448
  %166 = getelementptr inbounds [5 x i64], [5 x i64]* %array, i64 0, i64 0, !dbg !1449
  store i64 %_571, i64* %166, align 8, !dbg !1449
  %_575 = load i64, i64* %last, align 8, !dbg !1450
; call <u64 as keccak::LaneSize>::rotate_left
  %_574 = call i64 @"_ZN40_$LT$u64$u20$as$u20$keccak..LaneSize$GT$11rotate_left17h4b233ff5d4bf1273E"(i64 %_575, i32 25), !dbg !1450
  br label %bb128, !dbg !1450

bb128:                                            ; preds = %bb127
  %167 = getelementptr inbounds [25 x i64], [25 x i64]* %state, i64 0, i64 12, !dbg !1451
  store i64 %_574, i64* %167, align 8, !dbg !1451
  %168 = getelementptr inbounds [5 x i64], [5 x i64]* %array, i64 0, i64 0, !dbg !1452
  %_578 = load i64, i64* %168, align 8, !dbg !1452
  store i64 %_578, i64* %last, align 8, !dbg !1453
  %169 = getelementptr inbounds [25 x i64], [25 x i64]* %state, i64 0, i64 2, !dbg !1448
  %_580 = load i64, i64* %169, align 8, !dbg !1448
  %170 = getelementptr inbounds [5 x i64], [5 x i64]* %array, i64 0, i64 0, !dbg !1449
  store i64 %_580, i64* %170, align 8, !dbg !1449
  %_584 = load i64, i64* %last, align 8, !dbg !1450
; call <u64 as keccak::LaneSize>::rotate_left
  %_583 = call i64 @"_ZN40_$LT$u64$u20$as$u20$keccak..LaneSize$GT$11rotate_left17h4b233ff5d4bf1273E"(i64 %_584, i32 43), !dbg !1450
  br label %bb129, !dbg !1450

bb129:                                            ; preds = %bb128
  %171 = getelementptr inbounds [25 x i64], [25 x i64]* %state, i64 0, i64 2, !dbg !1451
  store i64 %_583, i64* %171, align 8, !dbg !1451
  %172 = getelementptr inbounds [5 x i64], [5 x i64]* %array, i64 0, i64 0, !dbg !1452
  %_587 = load i64, i64* %172, align 8, !dbg !1452
  store i64 %_587, i64* %last, align 8, !dbg !1453
  %173 = getelementptr inbounds [25 x i64], [25 x i64]* %state, i64 0, i64 20, !dbg !1448
  %_589 = load i64, i64* %173, align 8, !dbg !1448
  %174 = getelementptr inbounds [5 x i64], [5 x i64]* %array, i64 0, i64 0, !dbg !1449
  store i64 %_589, i64* %174, align 8, !dbg !1449
  %_593 = load i64, i64* %last, align 8, !dbg !1450
; call <u64 as keccak::LaneSize>::rotate_left
  %_592 = call i64 @"_ZN40_$LT$u64$u20$as$u20$keccak..LaneSize$GT$11rotate_left17h4b233ff5d4bf1273E"(i64 %_593, i32 62), !dbg !1450
  br label %bb130, !dbg !1450

bb130:                                            ; preds = %bb129
  %175 = getelementptr inbounds [25 x i64], [25 x i64]* %state, i64 0, i64 20, !dbg !1451
  store i64 %_592, i64* %175, align 8, !dbg !1451
  %176 = getelementptr inbounds [5 x i64], [5 x i64]* %array, i64 0, i64 0, !dbg !1452
  %_596 = load i64, i64* %176, align 8, !dbg !1452
  store i64 %_596, i64* %last, align 8, !dbg !1453
  %177 = getelementptr inbounds [25 x i64], [25 x i64]* %state, i64 0, i64 14, !dbg !1448
  %_598 = load i64, i64* %177, align 8, !dbg !1448
  %178 = getelementptr inbounds [5 x i64], [5 x i64]* %array, i64 0, i64 0, !dbg !1449
  store i64 %_598, i64* %178, align 8, !dbg !1449
  %_602 = load i64, i64* %last, align 8, !dbg !1450
; call <u64 as keccak::LaneSize>::rotate_left
  %_601 = call i64 @"_ZN40_$LT$u64$u20$as$u20$keccak..LaneSize$GT$11rotate_left17h4b233ff5d4bf1273E"(i64 %_602, i32 18), !dbg !1450
  br label %bb131, !dbg !1450

bb131:                                            ; preds = %bb130
  %179 = getelementptr inbounds [25 x i64], [25 x i64]* %state, i64 0, i64 14, !dbg !1451
  store i64 %_601, i64* %179, align 8, !dbg !1451
  %180 = getelementptr inbounds [5 x i64], [5 x i64]* %array, i64 0, i64 0, !dbg !1452
  %_605 = load i64, i64* %180, align 8, !dbg !1452
  store i64 %_605, i64* %last, align 8, !dbg !1453
  %181 = getelementptr inbounds [25 x i64], [25 x i64]* %state, i64 0, i64 22, !dbg !1448
  %_607 = load i64, i64* %181, align 8, !dbg !1448
  %182 = getelementptr inbounds [5 x i64], [5 x i64]* %array, i64 0, i64 0, !dbg !1449
  store i64 %_607, i64* %182, align 8, !dbg !1449
  %_611 = load i64, i64* %last, align 8, !dbg !1450
; call <u64 as keccak::LaneSize>::rotate_left
  %_610 = call i64 @"_ZN40_$LT$u64$u20$as$u20$keccak..LaneSize$GT$11rotate_left17h4b233ff5d4bf1273E"(i64 %_611, i32 39), !dbg !1450
  br label %bb132, !dbg !1450

bb132:                                            ; preds = %bb131
  %183 = getelementptr inbounds [25 x i64], [25 x i64]* %state, i64 0, i64 22, !dbg !1451
  store i64 %_610, i64* %183, align 8, !dbg !1451
  %184 = getelementptr inbounds [5 x i64], [5 x i64]* %array, i64 0, i64 0, !dbg !1452
  %_614 = load i64, i64* %184, align 8, !dbg !1452
  store i64 %_614, i64* %last, align 8, !dbg !1453
  %185 = getelementptr inbounds [25 x i64], [25 x i64]* %state, i64 0, i64 9, !dbg !1448
  %_616 = load i64, i64* %185, align 8, !dbg !1448
  %186 = getelementptr inbounds [5 x i64], [5 x i64]* %array, i64 0, i64 0, !dbg !1449
  store i64 %_616, i64* %186, align 8, !dbg !1449
  %_620 = load i64, i64* %last, align 8, !dbg !1450
; call <u64 as keccak::LaneSize>::rotate_left
  %_619 = call i64 @"_ZN40_$LT$u64$u20$as$u20$keccak..LaneSize$GT$11rotate_left17h4b233ff5d4bf1273E"(i64 %_620, i32 61), !dbg !1450
  br label %bb133, !dbg !1450

bb133:                                            ; preds = %bb132
  %187 = getelementptr inbounds [25 x i64], [25 x i64]* %state, i64 0, i64 9, !dbg !1451
  store i64 %_619, i64* %187, align 8, !dbg !1451
  %188 = getelementptr inbounds [5 x i64], [5 x i64]* %array, i64 0, i64 0, !dbg !1452
  %_623 = load i64, i64* %188, align 8, !dbg !1452
  store i64 %_623, i64* %last, align 8, !dbg !1453
  %189 = getelementptr inbounds [25 x i64], [25 x i64]* %state, i64 0, i64 6, !dbg !1448
  %_625 = load i64, i64* %189, align 8, !dbg !1448
  %190 = getelementptr inbounds [5 x i64], [5 x i64]* %array, i64 0, i64 0, !dbg !1449
  store i64 %_625, i64* %190, align 8, !dbg !1449
  %_629 = load i64, i64* %last, align 8, !dbg !1450
; call <u64 as keccak::LaneSize>::rotate_left
  %_628 = call i64 @"_ZN40_$LT$u64$u20$as$u20$keccak..LaneSize$GT$11rotate_left17h4b233ff5d4bf1273E"(i64 %_629, i32 20), !dbg !1450
  br label %bb134, !dbg !1450

bb134:                                            ; preds = %bb133
  %191 = getelementptr inbounds [25 x i64], [25 x i64]* %state, i64 0, i64 6, !dbg !1451
  store i64 %_628, i64* %191, align 8, !dbg !1451
  %192 = getelementptr inbounds [5 x i64], [5 x i64]* %array, i64 0, i64 0, !dbg !1452
  %_632 = load i64, i64* %192, align 8, !dbg !1452
  store i64 %_632, i64* %last, align 8, !dbg !1453
  %193 = getelementptr inbounds [25 x i64], [25 x i64]* %state, i64 0, i64 1, !dbg !1448
  %_634 = load i64, i64* %193, align 8, !dbg !1448
  %194 = getelementptr inbounds [5 x i64], [5 x i64]* %array, i64 0, i64 0, !dbg !1449
  store i64 %_634, i64* %194, align 8, !dbg !1449
  %_638 = load i64, i64* %last, align 8, !dbg !1450
; call <u64 as keccak::LaneSize>::rotate_left
  %_637 = call i64 @"_ZN40_$LT$u64$u20$as$u20$keccak..LaneSize$GT$11rotate_left17h4b233ff5d4bf1273E"(i64 %_638, i32 44), !dbg !1450
  br label %bb135, !dbg !1450

bb135:                                            ; preds = %bb134
  %195 = getelementptr inbounds [25 x i64], [25 x i64]* %state, i64 0, i64 1, !dbg !1451
  store i64 %_637, i64* %195, align 8, !dbg !1451
  %196 = getelementptr inbounds [5 x i64], [5 x i64]* %array, i64 0, i64 0, !dbg !1452
  %_641 = load i64, i64* %196, align 8, !dbg !1452
  store i64 %_641, i64* %last, align 8, !dbg !1453
  store i64 0, i64* %y.dbg.spill, align 8, !dbg !1454
  call void @llvm.dbg.declare(metadata i64* %y.dbg.spill, metadata !1186, metadata !DIExpression()), !dbg !1455
  %197 = getelementptr inbounds [25 x i64], [25 x i64]* %state, i64 0, i64 0, !dbg !1456
  %_644 = load i64, i64* %197, align 8, !dbg !1456
  %198 = getelementptr inbounds [5 x i64], [5 x i64]* %array, i64 0, i64 0, !dbg !1457
  store i64 %_644, i64* %198, align 8, !dbg !1457
  %199 = call { i64, i1 } @llvm.uadd.with.overflow.i64(i64 0, i64 1), !dbg !1458
  %_650.0 = extractvalue { i64, i1 } %199, 0, !dbg !1458
  %_650.1 = extractvalue { i64, i1 } %199, 1, !dbg !1458
  %200 = call i1 @llvm.expect.i1(i1 %_650.1, i1 false), !dbg !1458
  br i1 %200, label %panic97, label %bb136, !dbg !1458

bb136:                                            ; preds = %bb135
  %_652 = icmp ult i64 %_650.0, 25, !dbg !1456
  %201 = call i1 @llvm.expect.i1(i1 %_652, i1 true), !dbg !1456
  br i1 %201, label %bb137, label %panic98, !dbg !1456

panic97:                                          ; preds = %bb135
; call core::panicking::panic
  call void @_ZN4core9panicking5panic17h560e3e4b7752857aE([0 x i8]* nonnull align 1 bitcast ([28 x i8]* @str.2 to [0 x i8]*), i64 28, %"core::panic::Location"* align 8 dereferenceable(24) bitcast (<{ i8*, [16 x i8] }>* @alloc783 to %"core::panic::Location"*)), !dbg !1458
  unreachable, !dbg !1458

bb137:                                            ; preds = %bb136
  %202 = getelementptr inbounds [25 x i64], [25 x i64]* %state, i64 0, i64 %_650.0, !dbg !1456
  %_647 = load i64, i64* %202, align 8, !dbg !1456
  %203 = getelementptr inbounds [5 x i64], [5 x i64]* %array, i64 0, i64 1, !dbg !1457
  store i64 %_647, i64* %203, align 8, !dbg !1457
  %204 = call { i64, i1 } @llvm.uadd.with.overflow.i64(i64 0, i64 2), !dbg !1458
  %_657.0 = extractvalue { i64, i1 } %204, 0, !dbg !1458
  %_657.1 = extractvalue { i64, i1 } %204, 1, !dbg !1458
  %205 = call i1 @llvm.expect.i1(i1 %_657.1, i1 false), !dbg !1458
  br i1 %205, label %panic99, label %bb138, !dbg !1458

panic98:                                          ; preds = %bb136
; call core::panicking::panic_bounds_check
  call void @_ZN4core9panicking18panic_bounds_check17h865b4c1c7f870517E(i64 %_650.0, i64 25, %"core::panic::Location"* align 8 dereferenceable(24) bitcast (<{ i8*, [16 x i8] }>* @alloc785 to %"core::panic::Location"*)), !dbg !1456
  unreachable, !dbg !1456

bb138:                                            ; preds = %bb137
  %_659 = icmp ult i64 %_657.0, 25, !dbg !1456
  %206 = call i1 @llvm.expect.i1(i1 %_659, i1 true), !dbg !1456
  br i1 %206, label %bb139, label %panic100, !dbg !1456

panic99:                                          ; preds = %bb137
; call core::panicking::panic
  call void @_ZN4core9panicking5panic17h560e3e4b7752857aE([0 x i8]* nonnull align 1 bitcast ([28 x i8]* @str.2 to [0 x i8]*), i64 28, %"core::panic::Location"* align 8 dereferenceable(24) bitcast (<{ i8*, [16 x i8] }>* @alloc783 to %"core::panic::Location"*)), !dbg !1458
  unreachable, !dbg !1458

bb139:                                            ; preds = %bb138
  %207 = getelementptr inbounds [25 x i64], [25 x i64]* %state, i64 0, i64 %_657.0, !dbg !1456
  %_654 = load i64, i64* %207, align 8, !dbg !1456
  %208 = getelementptr inbounds [5 x i64], [5 x i64]* %array, i64 0, i64 2, !dbg !1457
  store i64 %_654, i64* %208, align 8, !dbg !1457
  %209 = call { i64, i1 } @llvm.uadd.with.overflow.i64(i64 0, i64 3), !dbg !1458
  %_664.0 = extractvalue { i64, i1 } %209, 0, !dbg !1458
  %_664.1 = extractvalue { i64, i1 } %209, 1, !dbg !1458
  %210 = call i1 @llvm.expect.i1(i1 %_664.1, i1 false), !dbg !1458
  br i1 %210, label %panic101, label %bb140, !dbg !1458

panic100:                                         ; preds = %bb138
; call core::panicking::panic_bounds_check
  call void @_ZN4core9panicking18panic_bounds_check17h865b4c1c7f870517E(i64 %_657.0, i64 25, %"core::panic::Location"* align 8 dereferenceable(24) bitcast (<{ i8*, [16 x i8] }>* @alloc785 to %"core::panic::Location"*)), !dbg !1456
  unreachable, !dbg !1456

bb140:                                            ; preds = %bb139
  %_666 = icmp ult i64 %_664.0, 25, !dbg !1456
  %211 = call i1 @llvm.expect.i1(i1 %_666, i1 true), !dbg !1456
  br i1 %211, label %bb141, label %panic102, !dbg !1456

panic101:                                         ; preds = %bb139
; call core::panicking::panic
  call void @_ZN4core9panicking5panic17h560e3e4b7752857aE([0 x i8]* nonnull align 1 bitcast ([28 x i8]* @str.2 to [0 x i8]*), i64 28, %"core::panic::Location"* align 8 dereferenceable(24) bitcast (<{ i8*, [16 x i8] }>* @alloc783 to %"core::panic::Location"*)), !dbg !1458
  unreachable, !dbg !1458

bb141:                                            ; preds = %bb140
  %212 = getelementptr inbounds [25 x i64], [25 x i64]* %state, i64 0, i64 %_664.0, !dbg !1456
  %_661 = load i64, i64* %212, align 8, !dbg !1456
  %213 = getelementptr inbounds [5 x i64], [5 x i64]* %array, i64 0, i64 3, !dbg !1457
  store i64 %_661, i64* %213, align 8, !dbg !1457
  %214 = call { i64, i1 } @llvm.uadd.with.overflow.i64(i64 0, i64 4), !dbg !1458
  %_671.0 = extractvalue { i64, i1 } %214, 0, !dbg !1458
  %_671.1 = extractvalue { i64, i1 } %214, 1, !dbg !1458
  %215 = call i1 @llvm.expect.i1(i1 %_671.1, i1 false), !dbg !1458
  br i1 %215, label %panic103, label %bb142, !dbg !1458

panic102:                                         ; preds = %bb140
; call core::panicking::panic_bounds_check
  call void @_ZN4core9panicking18panic_bounds_check17h865b4c1c7f870517E(i64 %_664.0, i64 25, %"core::panic::Location"* align 8 dereferenceable(24) bitcast (<{ i8*, [16 x i8] }>* @alloc785 to %"core::panic::Location"*)), !dbg !1456
  unreachable, !dbg !1456

bb142:                                            ; preds = %bb141
  %_673 = icmp ult i64 %_671.0, 25, !dbg !1456
  %216 = call i1 @llvm.expect.i1(i1 %_673, i1 true), !dbg !1456
  br i1 %216, label %bb143, label %panic104, !dbg !1456

panic103:                                         ; preds = %bb141
; call core::panicking::panic
  call void @_ZN4core9panicking5panic17h560e3e4b7752857aE([0 x i8]* nonnull align 1 bitcast ([28 x i8]* @str.2 to [0 x i8]*), i64 28, %"core::panic::Location"* align 8 dereferenceable(24) bitcast (<{ i8*, [16 x i8] }>* @alloc783 to %"core::panic::Location"*)), !dbg !1458
  unreachable, !dbg !1458

bb143:                                            ; preds = %bb142
  %217 = getelementptr inbounds [25 x i64], [25 x i64]* %state, i64 0, i64 %_671.0, !dbg !1456
  %_668 = load i64, i64* %217, align 8, !dbg !1456
  %218 = getelementptr inbounds [5 x i64], [5 x i64]* %array, i64 0, i64 4, !dbg !1457
  store i64 %_668, i64* %218, align 8, !dbg !1457
  %219 = getelementptr inbounds [5 x i64], [5 x i64]* %array, i64 0, i64 1, !dbg !1459
  %_676 = load i64, i64* %219, align 8, !dbg !1459
; call <u64 as core::ops::bit::Not>::not
  %t1105 = call i64 @"_ZN43_$LT$u64$u20$as$u20$core..ops..bit..Not$GT$3not17h4a14053068a98ed5E"(i64 %_676), !dbg !1460
  store i64 %t1105, i64* %t1.dbg.spill106, align 8, !dbg !1460
  call void @llvm.dbg.declare(metadata i64* %t1.dbg.spill106, metadata !1188, metadata !DIExpression()), !dbg !1461
  br label %bb144, !dbg !1460

panic104:                                         ; preds = %bb142
; call core::panicking::panic_bounds_check
  call void @_ZN4core9panicking18panic_bounds_check17h865b4c1c7f870517E(i64 %_671.0, i64 25, %"core::panic::Location"* align 8 dereferenceable(24) bitcast (<{ i8*, [16 x i8] }>* @alloc785 to %"core::panic::Location"*)), !dbg !1456
  unreachable, !dbg !1456

bb144:                                            ; preds = %bb143
  %220 = getelementptr inbounds [5 x i64], [5 x i64]* %array, i64 0, i64 2, !dbg !1462
  %t2107 = load i64, i64* %220, align 8, !dbg !1462
  store i64 %t2107, i64* %t2.dbg.spill108, align 8, !dbg !1462
  call void @llvm.dbg.declare(metadata i64* %t2.dbg.spill108, metadata !1190, metadata !DIExpression()), !dbg !1463
  %221 = getelementptr inbounds [5 x i64], [5 x i64]* %array, i64 0, i64 0, !dbg !1464
  %_681 = load i64, i64* %221, align 8, !dbg !1464
; call <u64 as core::ops::bit::BitAnd>::bitand
  %_683 = call i64 @"_ZN46_$LT$u64$u20$as$u20$core..ops..bit..BitAnd$GT$6bitand17h9dc2a884df11b956E"(i64 %t1105, i64 %t2107), !dbg !1465
  br label %bb145, !dbg !1465

bb145:                                            ; preds = %bb144
; call <u64 as core::ops::bit::BitXor>::bitxor
  %_680 = call i64 @"_ZN46_$LT$u64$u20$as$u20$core..ops..bit..BitXor$GT$6bitxor17h7e70a648784d0ba5E"(i64 %_681, i64 %_683), !dbg !1464
  br label %bb146, !dbg !1464

bb146:                                            ; preds = %bb145
  %222 = call { i64, i1 } @llvm.uadd.with.overflow.i64(i64 0, i64 0), !dbg !1466
  %_688.0 = extractvalue { i64, i1 } %222, 0, !dbg !1466
  %_688.1 = extractvalue { i64, i1 } %222, 1, !dbg !1466
  %223 = call i1 @llvm.expect.i1(i1 %_688.1, i1 false), !dbg !1466
  br i1 %223, label %panic109, label %bb147, !dbg !1466

bb147:                                            ; preds = %bb146
  %_690 = icmp ult i64 %_688.0, 25, !dbg !1467
  %224 = call i1 @llvm.expect.i1(i1 %_690, i1 true), !dbg !1467
  br i1 %224, label %bb148, label %panic110, !dbg !1467

panic109:                                         ; preds = %bb146
; call core::panicking::panic
  call void @_ZN4core9panicking5panic17h560e3e4b7752857aE([0 x i8]* nonnull align 1 bitcast ([28 x i8]* @str.2 to [0 x i8]*), i64 28, %"core::panic::Location"* align 8 dereferenceable(24) bitcast (<{ i8*, [16 x i8] }>* @alloc787 to %"core::panic::Location"*)), !dbg !1466
  unreachable, !dbg !1466

bb148:                                            ; preds = %bb147
  %225 = getelementptr inbounds [25 x i64], [25 x i64]* %state, i64 0, i64 %_688.0, !dbg !1467
  store i64 %_680, i64* %225, align 8, !dbg !1467
  %226 = getelementptr inbounds [5 x i64], [5 x i64]* %array, i64 0, i64 2, !dbg !1459
  %_692 = load i64, i64* %226, align 8, !dbg !1459
; call <u64 as core::ops::bit::Not>::not
  %t1111 = call i64 @"_ZN43_$LT$u64$u20$as$u20$core..ops..bit..Not$GT$3not17h4a14053068a98ed5E"(i64 %_692), !dbg !1460
  store i64 %t1111, i64* %t1.dbg.spill112, align 8, !dbg !1460
  call void @llvm.dbg.declare(metadata i64* %t1.dbg.spill112, metadata !1192, metadata !DIExpression()), !dbg !1468
  br label %bb149, !dbg !1460

panic110:                                         ; preds = %bb147
; call core::panicking::panic_bounds_check
  call void @_ZN4core9panicking18panic_bounds_check17h865b4c1c7f870517E(i64 %_688.0, i64 25, %"core::panic::Location"* align 8 dereferenceable(24) bitcast (<{ i8*, [16 x i8] }>* @alloc789 to %"core::panic::Location"*)), !dbg !1467
  unreachable, !dbg !1467

bb149:                                            ; preds = %bb148
  %227 = getelementptr inbounds [5 x i64], [5 x i64]* %array, i64 0, i64 3, !dbg !1469
  %t2113 = load i64, i64* %227, align 8, !dbg !1469
  store i64 %t2113, i64* %t2.dbg.spill114, align 8, !dbg !1469
  call void @llvm.dbg.declare(metadata i64* %t2.dbg.spill114, metadata !1194, metadata !DIExpression()), !dbg !1470
  %228 = getelementptr inbounds [5 x i64], [5 x i64]* %array, i64 0, i64 1, !dbg !1471
  %_697 = load i64, i64* %228, align 8, !dbg !1471
; call <u64 as core::ops::bit::BitAnd>::bitand
  %_699 = call i64 @"_ZN46_$LT$u64$u20$as$u20$core..ops..bit..BitAnd$GT$6bitand17h9dc2a884df11b956E"(i64 %t1111, i64 %t2113), !dbg !1472
  br label %bb150, !dbg !1472

bb150:                                            ; preds = %bb149
; call <u64 as core::ops::bit::BitXor>::bitxor
  %_696 = call i64 @"_ZN46_$LT$u64$u20$as$u20$core..ops..bit..BitXor$GT$6bitxor17h7e70a648784d0ba5E"(i64 %_697, i64 %_699), !dbg !1471
  br label %bb151, !dbg !1471

bb151:                                            ; preds = %bb150
  %229 = call { i64, i1 } @llvm.uadd.with.overflow.i64(i64 0, i64 1), !dbg !1473
  %_704.0 = extractvalue { i64, i1 } %229, 0, !dbg !1473
  %_704.1 = extractvalue { i64, i1 } %229, 1, !dbg !1473
  %230 = call i1 @llvm.expect.i1(i1 %_704.1, i1 false), !dbg !1473
  br i1 %230, label %panic115, label %bb152, !dbg !1473

bb152:                                            ; preds = %bb151
  %_706 = icmp ult i64 %_704.0, 25, !dbg !1474
  %231 = call i1 @llvm.expect.i1(i1 %_706, i1 true), !dbg !1474
  br i1 %231, label %bb153, label %panic116, !dbg !1474

panic115:                                         ; preds = %bb151
; call core::panicking::panic
  call void @_ZN4core9panicking5panic17h560e3e4b7752857aE([0 x i8]* nonnull align 1 bitcast ([28 x i8]* @str.2 to [0 x i8]*), i64 28, %"core::panic::Location"* align 8 dereferenceable(24) bitcast (<{ i8*, [16 x i8] }>* @alloc787 to %"core::panic::Location"*)), !dbg !1473
  unreachable, !dbg !1473

bb153:                                            ; preds = %bb152
  %232 = getelementptr inbounds [25 x i64], [25 x i64]* %state, i64 0, i64 %_704.0, !dbg !1474
  store i64 %_696, i64* %232, align 8, !dbg !1474
  %233 = getelementptr inbounds [5 x i64], [5 x i64]* %array, i64 0, i64 3, !dbg !1459
  %_708 = load i64, i64* %233, align 8, !dbg !1459
; call <u64 as core::ops::bit::Not>::not
  %t1117 = call i64 @"_ZN43_$LT$u64$u20$as$u20$core..ops..bit..Not$GT$3not17h4a14053068a98ed5E"(i64 %_708), !dbg !1460
  store i64 %t1117, i64* %t1.dbg.spill118, align 8, !dbg !1460
  call void @llvm.dbg.declare(metadata i64* %t1.dbg.spill118, metadata !1196, metadata !DIExpression()), !dbg !1475
  br label %bb154, !dbg !1460

panic116:                                         ; preds = %bb152
; call core::panicking::panic_bounds_check
  call void @_ZN4core9panicking18panic_bounds_check17h865b4c1c7f870517E(i64 %_704.0, i64 25, %"core::panic::Location"* align 8 dereferenceable(24) bitcast (<{ i8*, [16 x i8] }>* @alloc789 to %"core::panic::Location"*)), !dbg !1474
  unreachable, !dbg !1474

bb154:                                            ; preds = %bb153
  %234 = getelementptr inbounds [5 x i64], [5 x i64]* %array, i64 0, i64 4, !dbg !1476
  %t2119 = load i64, i64* %234, align 8, !dbg !1476
  store i64 %t2119, i64* %t2.dbg.spill120, align 8, !dbg !1476
  call void @llvm.dbg.declare(metadata i64* %t2.dbg.spill120, metadata !1198, metadata !DIExpression()), !dbg !1477
  %235 = getelementptr inbounds [5 x i64], [5 x i64]* %array, i64 0, i64 2, !dbg !1478
  %_713 = load i64, i64* %235, align 8, !dbg !1478
; call <u64 as core::ops::bit::BitAnd>::bitand
  %_715 = call i64 @"_ZN46_$LT$u64$u20$as$u20$core..ops..bit..BitAnd$GT$6bitand17h9dc2a884df11b956E"(i64 %t1117, i64 %t2119), !dbg !1479
  br label %bb155, !dbg !1479

bb155:                                            ; preds = %bb154
; call <u64 as core::ops::bit::BitXor>::bitxor
  %_712 = call i64 @"_ZN46_$LT$u64$u20$as$u20$core..ops..bit..BitXor$GT$6bitxor17h7e70a648784d0ba5E"(i64 %_713, i64 %_715), !dbg !1478
  br label %bb156, !dbg !1478

bb156:                                            ; preds = %bb155
  %236 = call { i64, i1 } @llvm.uadd.with.overflow.i64(i64 0, i64 2), !dbg !1480
  %_720.0 = extractvalue { i64, i1 } %236, 0, !dbg !1480
  %_720.1 = extractvalue { i64, i1 } %236, 1, !dbg !1480
  %237 = call i1 @llvm.expect.i1(i1 %_720.1, i1 false), !dbg !1480
  br i1 %237, label %panic121, label %bb157, !dbg !1480

bb157:                                            ; preds = %bb156
  %_722 = icmp ult i64 %_720.0, 25, !dbg !1481
  %238 = call i1 @llvm.expect.i1(i1 %_722, i1 true), !dbg !1481
  br i1 %238, label %bb158, label %panic122, !dbg !1481

panic121:                                         ; preds = %bb156
; call core::panicking::panic
  call void @_ZN4core9panicking5panic17h560e3e4b7752857aE([0 x i8]* nonnull align 1 bitcast ([28 x i8]* @str.2 to [0 x i8]*), i64 28, %"core::panic::Location"* align 8 dereferenceable(24) bitcast (<{ i8*, [16 x i8] }>* @alloc787 to %"core::panic::Location"*)), !dbg !1480
  unreachable, !dbg !1480

bb158:                                            ; preds = %bb157
  %239 = getelementptr inbounds [25 x i64], [25 x i64]* %state, i64 0, i64 %_720.0, !dbg !1481
  store i64 %_712, i64* %239, align 8, !dbg !1481
  %240 = getelementptr inbounds [5 x i64], [5 x i64]* %array, i64 0, i64 4, !dbg !1459
  %_724 = load i64, i64* %240, align 8, !dbg !1459
; call <u64 as core::ops::bit::Not>::not
  %t1123 = call i64 @"_ZN43_$LT$u64$u20$as$u20$core..ops..bit..Not$GT$3not17h4a14053068a98ed5E"(i64 %_724), !dbg !1460
  store i64 %t1123, i64* %t1.dbg.spill124, align 8, !dbg !1460
  call void @llvm.dbg.declare(metadata i64* %t1.dbg.spill124, metadata !1200, metadata !DIExpression()), !dbg !1482
  br label %bb159, !dbg !1460

panic122:                                         ; preds = %bb157
; call core::panicking::panic_bounds_check
  call void @_ZN4core9panicking18panic_bounds_check17h865b4c1c7f870517E(i64 %_720.0, i64 25, %"core::panic::Location"* align 8 dereferenceable(24) bitcast (<{ i8*, [16 x i8] }>* @alloc789 to %"core::panic::Location"*)), !dbg !1481
  unreachable, !dbg !1481

bb159:                                            ; preds = %bb158
  %241 = getelementptr inbounds [5 x i64], [5 x i64]* %array, i64 0, i64 0, !dbg !1483
  %t2125 = load i64, i64* %241, align 8, !dbg !1483
  store i64 %t2125, i64* %t2.dbg.spill126, align 8, !dbg !1483
  call void @llvm.dbg.declare(metadata i64* %t2.dbg.spill126, metadata !1202, metadata !DIExpression()), !dbg !1484
  %242 = getelementptr inbounds [5 x i64], [5 x i64]* %array, i64 0, i64 3, !dbg !1485
  %_729 = load i64, i64* %242, align 8, !dbg !1485
; call <u64 as core::ops::bit::BitAnd>::bitand
  %_731 = call i64 @"_ZN46_$LT$u64$u20$as$u20$core..ops..bit..BitAnd$GT$6bitand17h9dc2a884df11b956E"(i64 %t1123, i64 %t2125), !dbg !1486
  br label %bb160, !dbg !1486

bb160:                                            ; preds = %bb159
; call <u64 as core::ops::bit::BitXor>::bitxor
  %_728 = call i64 @"_ZN46_$LT$u64$u20$as$u20$core..ops..bit..BitXor$GT$6bitxor17h7e70a648784d0ba5E"(i64 %_729, i64 %_731), !dbg !1485
  br label %bb161, !dbg !1485

bb161:                                            ; preds = %bb160
  %243 = call { i64, i1 } @llvm.uadd.with.overflow.i64(i64 0, i64 3), !dbg !1487
  %_736.0 = extractvalue { i64, i1 } %243, 0, !dbg !1487
  %_736.1 = extractvalue { i64, i1 } %243, 1, !dbg !1487
  %244 = call i1 @llvm.expect.i1(i1 %_736.1, i1 false), !dbg !1487
  br i1 %244, label %panic127, label %bb162, !dbg !1487

bb162:                                            ; preds = %bb161
  %_738 = icmp ult i64 %_736.0, 25, !dbg !1488
  %245 = call i1 @llvm.expect.i1(i1 %_738, i1 true), !dbg !1488
  br i1 %245, label %bb163, label %panic128, !dbg !1488

panic127:                                         ; preds = %bb161
; call core::panicking::panic
  call void @_ZN4core9panicking5panic17h560e3e4b7752857aE([0 x i8]* nonnull align 1 bitcast ([28 x i8]* @str.2 to [0 x i8]*), i64 28, %"core::panic::Location"* align 8 dereferenceable(24) bitcast (<{ i8*, [16 x i8] }>* @alloc787 to %"core::panic::Location"*)), !dbg !1487
  unreachable, !dbg !1487

bb163:                                            ; preds = %bb162
  %246 = getelementptr inbounds [25 x i64], [25 x i64]* %state, i64 0, i64 %_736.0, !dbg !1488
  store i64 %_728, i64* %246, align 8, !dbg !1488
  %247 = getelementptr inbounds [5 x i64], [5 x i64]* %array, i64 0, i64 0, !dbg !1459
  %_740 = load i64, i64* %247, align 8, !dbg !1459
; call <u64 as core::ops::bit::Not>::not
  %t1129 = call i64 @"_ZN43_$LT$u64$u20$as$u20$core..ops..bit..Not$GT$3not17h4a14053068a98ed5E"(i64 %_740), !dbg !1460
  store i64 %t1129, i64* %t1.dbg.spill130, align 8, !dbg !1460
  call void @llvm.dbg.declare(metadata i64* %t1.dbg.spill130, metadata !1204, metadata !DIExpression()), !dbg !1489
  br label %bb164, !dbg !1460

panic128:                                         ; preds = %bb162
; call core::panicking::panic_bounds_check
  call void @_ZN4core9panicking18panic_bounds_check17h865b4c1c7f870517E(i64 %_736.0, i64 25, %"core::panic::Location"* align 8 dereferenceable(24) bitcast (<{ i8*, [16 x i8] }>* @alloc789 to %"core::panic::Location"*)), !dbg !1488
  unreachable, !dbg !1488

bb164:                                            ; preds = %bb163
  %248 = getelementptr inbounds [5 x i64], [5 x i64]* %array, i64 0, i64 1, !dbg !1490
  %t2131 = load i64, i64* %248, align 8, !dbg !1490
  store i64 %t2131, i64* %t2.dbg.spill132, align 8, !dbg !1490
  call void @llvm.dbg.declare(metadata i64* %t2.dbg.spill132, metadata !1206, metadata !DIExpression()), !dbg !1491
  %249 = getelementptr inbounds [5 x i64], [5 x i64]* %array, i64 0, i64 4, !dbg !1492
  %_745 = load i64, i64* %249, align 8, !dbg !1492
; call <u64 as core::ops::bit::BitAnd>::bitand
  %_747 = call i64 @"_ZN46_$LT$u64$u20$as$u20$core..ops..bit..BitAnd$GT$6bitand17h9dc2a884df11b956E"(i64 %t1129, i64 %t2131), !dbg !1493
  br label %bb165, !dbg !1493

bb165:                                            ; preds = %bb164
; call <u64 as core::ops::bit::BitXor>::bitxor
  %_744 = call i64 @"_ZN46_$LT$u64$u20$as$u20$core..ops..bit..BitXor$GT$6bitxor17h7e70a648784d0ba5E"(i64 %_745, i64 %_747), !dbg !1492
  br label %bb166, !dbg !1492

bb166:                                            ; preds = %bb165
  %250 = call { i64, i1 } @llvm.uadd.with.overflow.i64(i64 0, i64 4), !dbg !1494
  %_752.0 = extractvalue { i64, i1 } %250, 0, !dbg !1494
  %_752.1 = extractvalue { i64, i1 } %250, 1, !dbg !1494
  %251 = call i1 @llvm.expect.i1(i1 %_752.1, i1 false), !dbg !1494
  br i1 %251, label %panic133, label %bb167, !dbg !1494

bb167:                                            ; preds = %bb166
  %_754 = icmp ult i64 %_752.0, 25, !dbg !1495
  %252 = call i1 @llvm.expect.i1(i1 %_754, i1 true), !dbg !1495
  br i1 %252, label %bb168, label %panic134, !dbg !1495

panic133:                                         ; preds = %bb166
; call core::panicking::panic
  call void @_ZN4core9panicking5panic17h560e3e4b7752857aE([0 x i8]* nonnull align 1 bitcast ([28 x i8]* @str.2 to [0 x i8]*), i64 28, %"core::panic::Location"* align 8 dereferenceable(24) bitcast (<{ i8*, [16 x i8] }>* @alloc787 to %"core::panic::Location"*)), !dbg !1494
  unreachable, !dbg !1494

bb168:                                            ; preds = %bb167
  %253 = getelementptr inbounds [25 x i64], [25 x i64]* %state, i64 0, i64 %_752.0, !dbg !1495
  store i64 %_744, i64* %253, align 8, !dbg !1495
  store i64 5, i64* %y.dbg.spill135, align 8, !dbg !1454
  call void @llvm.dbg.declare(metadata i64* %y.dbg.spill135, metadata !1208, metadata !DIExpression()), !dbg !1496
  %254 = getelementptr inbounds [25 x i64], [25 x i64]* %state, i64 0, i64 5, !dbg !1497
  %_756 = load i64, i64* %254, align 8, !dbg !1497
  %255 = getelementptr inbounds [5 x i64], [5 x i64]* %array, i64 0, i64 0, !dbg !1498
  store i64 %_756, i64* %255, align 8, !dbg !1498
  %256 = call { i64, i1 } @llvm.uadd.with.overflow.i64(i64 5, i64 1), !dbg !1499
  %_762.0 = extractvalue { i64, i1 } %256, 0, !dbg !1499
  %_762.1 = extractvalue { i64, i1 } %256, 1, !dbg !1499
  %257 = call i1 @llvm.expect.i1(i1 %_762.1, i1 false), !dbg !1499
  br i1 %257, label %panic136, label %bb169, !dbg !1499

panic134:                                         ; preds = %bb167
; call core::panicking::panic_bounds_check
  call void @_ZN4core9panicking18panic_bounds_check17h865b4c1c7f870517E(i64 %_752.0, i64 25, %"core::panic::Location"* align 8 dereferenceable(24) bitcast (<{ i8*, [16 x i8] }>* @alloc789 to %"core::panic::Location"*)), !dbg !1495
  unreachable, !dbg !1495

bb169:                                            ; preds = %bb168
  %_764 = icmp ult i64 %_762.0, 25, !dbg !1497
  %258 = call i1 @llvm.expect.i1(i1 %_764, i1 true), !dbg !1497
  br i1 %258, label %bb170, label %panic137, !dbg !1497

panic136:                                         ; preds = %bb168
; call core::panicking::panic
  call void @_ZN4core9panicking5panic17h560e3e4b7752857aE([0 x i8]* nonnull align 1 bitcast ([28 x i8]* @str.2 to [0 x i8]*), i64 28, %"core::panic::Location"* align 8 dereferenceable(24) bitcast (<{ i8*, [16 x i8] }>* @alloc783 to %"core::panic::Location"*)), !dbg !1499
  unreachable, !dbg !1499

bb170:                                            ; preds = %bb169
  %259 = getelementptr inbounds [25 x i64], [25 x i64]* %state, i64 0, i64 %_762.0, !dbg !1497
  %_759 = load i64, i64* %259, align 8, !dbg !1497
  %260 = getelementptr inbounds [5 x i64], [5 x i64]* %array, i64 0, i64 1, !dbg !1498
  store i64 %_759, i64* %260, align 8, !dbg !1498
  %261 = call { i64, i1 } @llvm.uadd.with.overflow.i64(i64 5, i64 2), !dbg !1499
  %_769.0 = extractvalue { i64, i1 } %261, 0, !dbg !1499
  %_769.1 = extractvalue { i64, i1 } %261, 1, !dbg !1499
  %262 = call i1 @llvm.expect.i1(i1 %_769.1, i1 false), !dbg !1499
  br i1 %262, label %panic138, label %bb171, !dbg !1499

panic137:                                         ; preds = %bb169
; call core::panicking::panic_bounds_check
  call void @_ZN4core9panicking18panic_bounds_check17h865b4c1c7f870517E(i64 %_762.0, i64 25, %"core::panic::Location"* align 8 dereferenceable(24) bitcast (<{ i8*, [16 x i8] }>* @alloc785 to %"core::panic::Location"*)), !dbg !1497
  unreachable, !dbg !1497

bb171:                                            ; preds = %bb170
  %_771 = icmp ult i64 %_769.0, 25, !dbg !1497
  %263 = call i1 @llvm.expect.i1(i1 %_771, i1 true), !dbg !1497
  br i1 %263, label %bb172, label %panic139, !dbg !1497

panic138:                                         ; preds = %bb170
; call core::panicking::panic
  call void @_ZN4core9panicking5panic17h560e3e4b7752857aE([0 x i8]* nonnull align 1 bitcast ([28 x i8]* @str.2 to [0 x i8]*), i64 28, %"core::panic::Location"* align 8 dereferenceable(24) bitcast (<{ i8*, [16 x i8] }>* @alloc783 to %"core::panic::Location"*)), !dbg !1499
  unreachable, !dbg !1499

bb172:                                            ; preds = %bb171
  %264 = getelementptr inbounds [25 x i64], [25 x i64]* %state, i64 0, i64 %_769.0, !dbg !1497
  %_766 = load i64, i64* %264, align 8, !dbg !1497
  %265 = getelementptr inbounds [5 x i64], [5 x i64]* %array, i64 0, i64 2, !dbg !1498
  store i64 %_766, i64* %265, align 8, !dbg !1498
  %266 = call { i64, i1 } @llvm.uadd.with.overflow.i64(i64 5, i64 3), !dbg !1499
  %_776.0 = extractvalue { i64, i1 } %266, 0, !dbg !1499
  %_776.1 = extractvalue { i64, i1 } %266, 1, !dbg !1499
  %267 = call i1 @llvm.expect.i1(i1 %_776.1, i1 false), !dbg !1499
  br i1 %267, label %panic140, label %bb173, !dbg !1499

panic139:                                         ; preds = %bb171
; call core::panicking::panic_bounds_check
  call void @_ZN4core9panicking18panic_bounds_check17h865b4c1c7f870517E(i64 %_769.0, i64 25, %"core::panic::Location"* align 8 dereferenceable(24) bitcast (<{ i8*, [16 x i8] }>* @alloc785 to %"core::panic::Location"*)), !dbg !1497
  unreachable, !dbg !1497

bb173:                                            ; preds = %bb172
  %_778 = icmp ult i64 %_776.0, 25, !dbg !1497
  %268 = call i1 @llvm.expect.i1(i1 %_778, i1 true), !dbg !1497
  br i1 %268, label %bb174, label %panic141, !dbg !1497

panic140:                                         ; preds = %bb172
; call core::panicking::panic
  call void @_ZN4core9panicking5panic17h560e3e4b7752857aE([0 x i8]* nonnull align 1 bitcast ([28 x i8]* @str.2 to [0 x i8]*), i64 28, %"core::panic::Location"* align 8 dereferenceable(24) bitcast (<{ i8*, [16 x i8] }>* @alloc783 to %"core::panic::Location"*)), !dbg !1499
  unreachable, !dbg !1499

bb174:                                            ; preds = %bb173
  %269 = getelementptr inbounds [25 x i64], [25 x i64]* %state, i64 0, i64 %_776.0, !dbg !1497
  %_773 = load i64, i64* %269, align 8, !dbg !1497
  %270 = getelementptr inbounds [5 x i64], [5 x i64]* %array, i64 0, i64 3, !dbg !1498
  store i64 %_773, i64* %270, align 8, !dbg !1498
  %271 = call { i64, i1 } @llvm.uadd.with.overflow.i64(i64 5, i64 4), !dbg !1499
  %_783.0 = extractvalue { i64, i1 } %271, 0, !dbg !1499
  %_783.1 = extractvalue { i64, i1 } %271, 1, !dbg !1499
  %272 = call i1 @llvm.expect.i1(i1 %_783.1, i1 false), !dbg !1499
  br i1 %272, label %panic142, label %bb175, !dbg !1499

panic141:                                         ; preds = %bb173
; call core::panicking::panic_bounds_check
  call void @_ZN4core9panicking18panic_bounds_check17h865b4c1c7f870517E(i64 %_776.0, i64 25, %"core::panic::Location"* align 8 dereferenceable(24) bitcast (<{ i8*, [16 x i8] }>* @alloc785 to %"core::panic::Location"*)), !dbg !1497
  unreachable, !dbg !1497

bb175:                                            ; preds = %bb174
  %_785 = icmp ult i64 %_783.0, 25, !dbg !1497
  %273 = call i1 @llvm.expect.i1(i1 %_785, i1 true), !dbg !1497
  br i1 %273, label %bb176, label %panic143, !dbg !1497

panic142:                                         ; preds = %bb174
; call core::panicking::panic
  call void @_ZN4core9panicking5panic17h560e3e4b7752857aE([0 x i8]* nonnull align 1 bitcast ([28 x i8]* @str.2 to [0 x i8]*), i64 28, %"core::panic::Location"* align 8 dereferenceable(24) bitcast (<{ i8*, [16 x i8] }>* @alloc783 to %"core::panic::Location"*)), !dbg !1499
  unreachable, !dbg !1499

bb176:                                            ; preds = %bb175
  %274 = getelementptr inbounds [25 x i64], [25 x i64]* %state, i64 0, i64 %_783.0, !dbg !1497
  %_780 = load i64, i64* %274, align 8, !dbg !1497
  %275 = getelementptr inbounds [5 x i64], [5 x i64]* %array, i64 0, i64 4, !dbg !1498
  store i64 %_780, i64* %275, align 8, !dbg !1498
  %276 = getelementptr inbounds [5 x i64], [5 x i64]* %array, i64 0, i64 1, !dbg !1500
  %_788 = load i64, i64* %276, align 8, !dbg !1500
; call <u64 as core::ops::bit::Not>::not
  %t1144 = call i64 @"_ZN43_$LT$u64$u20$as$u20$core..ops..bit..Not$GT$3not17h4a14053068a98ed5E"(i64 %_788), !dbg !1501
  store i64 %t1144, i64* %t1.dbg.spill145, align 8, !dbg !1501
  call void @llvm.dbg.declare(metadata i64* %t1.dbg.spill145, metadata !1210, metadata !DIExpression()), !dbg !1502
  br label %bb177, !dbg !1501

panic143:                                         ; preds = %bb175
; call core::panicking::panic_bounds_check
  call void @_ZN4core9panicking18panic_bounds_check17h865b4c1c7f870517E(i64 %_783.0, i64 25, %"core::panic::Location"* align 8 dereferenceable(24) bitcast (<{ i8*, [16 x i8] }>* @alloc785 to %"core::panic::Location"*)), !dbg !1497
  unreachable, !dbg !1497

bb177:                                            ; preds = %bb176
  %277 = getelementptr inbounds [5 x i64], [5 x i64]* %array, i64 0, i64 2, !dbg !1503
  %t2146 = load i64, i64* %277, align 8, !dbg !1503
  store i64 %t2146, i64* %t2.dbg.spill147, align 8, !dbg !1503
  call void @llvm.dbg.declare(metadata i64* %t2.dbg.spill147, metadata !1212, metadata !DIExpression()), !dbg !1504
  %278 = getelementptr inbounds [5 x i64], [5 x i64]* %array, i64 0, i64 0, !dbg !1505
  %_793 = load i64, i64* %278, align 8, !dbg !1505
; call <u64 as core::ops::bit::BitAnd>::bitand
  %_795 = call i64 @"_ZN46_$LT$u64$u20$as$u20$core..ops..bit..BitAnd$GT$6bitand17h9dc2a884df11b956E"(i64 %t1144, i64 %t2146), !dbg !1506
  br label %bb178, !dbg !1506

bb178:                                            ; preds = %bb177
; call <u64 as core::ops::bit::BitXor>::bitxor
  %_792 = call i64 @"_ZN46_$LT$u64$u20$as$u20$core..ops..bit..BitXor$GT$6bitxor17h7e70a648784d0ba5E"(i64 %_793, i64 %_795), !dbg !1505
  br label %bb179, !dbg !1505

bb179:                                            ; preds = %bb178
  %279 = call { i64, i1 } @llvm.uadd.with.overflow.i64(i64 5, i64 0), !dbg !1507
  %_800.0 = extractvalue { i64, i1 } %279, 0, !dbg !1507
  %_800.1 = extractvalue { i64, i1 } %279, 1, !dbg !1507
  %280 = call i1 @llvm.expect.i1(i1 %_800.1, i1 false), !dbg !1507
  br i1 %280, label %panic148, label %bb180, !dbg !1507

bb180:                                            ; preds = %bb179
  %_802 = icmp ult i64 %_800.0, 25, !dbg !1508
  %281 = call i1 @llvm.expect.i1(i1 %_802, i1 true), !dbg !1508
  br i1 %281, label %bb181, label %panic149, !dbg !1508

panic148:                                         ; preds = %bb179
; call core::panicking::panic
  call void @_ZN4core9panicking5panic17h560e3e4b7752857aE([0 x i8]* nonnull align 1 bitcast ([28 x i8]* @str.2 to [0 x i8]*), i64 28, %"core::panic::Location"* align 8 dereferenceable(24) bitcast (<{ i8*, [16 x i8] }>* @alloc787 to %"core::panic::Location"*)), !dbg !1507
  unreachable, !dbg !1507

bb181:                                            ; preds = %bb180
  %282 = getelementptr inbounds [25 x i64], [25 x i64]* %state, i64 0, i64 %_800.0, !dbg !1508
  store i64 %_792, i64* %282, align 8, !dbg !1508
  %283 = getelementptr inbounds [5 x i64], [5 x i64]* %array, i64 0, i64 2, !dbg !1500
  %_804 = load i64, i64* %283, align 8, !dbg !1500
; call <u64 as core::ops::bit::Not>::not
  %t1150 = call i64 @"_ZN43_$LT$u64$u20$as$u20$core..ops..bit..Not$GT$3not17h4a14053068a98ed5E"(i64 %_804), !dbg !1501
  store i64 %t1150, i64* %t1.dbg.spill151, align 8, !dbg !1501
  call void @llvm.dbg.declare(metadata i64* %t1.dbg.spill151, metadata !1214, metadata !DIExpression()), !dbg !1509
  br label %bb182, !dbg !1501

panic149:                                         ; preds = %bb180
; call core::panicking::panic_bounds_check
  call void @_ZN4core9panicking18panic_bounds_check17h865b4c1c7f870517E(i64 %_800.0, i64 25, %"core::panic::Location"* align 8 dereferenceable(24) bitcast (<{ i8*, [16 x i8] }>* @alloc789 to %"core::panic::Location"*)), !dbg !1508
  unreachable, !dbg !1508

bb182:                                            ; preds = %bb181
  %284 = getelementptr inbounds [5 x i64], [5 x i64]* %array, i64 0, i64 3, !dbg !1510
  %t2152 = load i64, i64* %284, align 8, !dbg !1510
  store i64 %t2152, i64* %t2.dbg.spill153, align 8, !dbg !1510
  call void @llvm.dbg.declare(metadata i64* %t2.dbg.spill153, metadata !1216, metadata !DIExpression()), !dbg !1511
  %285 = getelementptr inbounds [5 x i64], [5 x i64]* %array, i64 0, i64 1, !dbg !1512
  %_809 = load i64, i64* %285, align 8, !dbg !1512
; call <u64 as core::ops::bit::BitAnd>::bitand
  %_811 = call i64 @"_ZN46_$LT$u64$u20$as$u20$core..ops..bit..BitAnd$GT$6bitand17h9dc2a884df11b956E"(i64 %t1150, i64 %t2152), !dbg !1513
  br label %bb183, !dbg !1513

bb183:                                            ; preds = %bb182
; call <u64 as core::ops::bit::BitXor>::bitxor
  %_808 = call i64 @"_ZN46_$LT$u64$u20$as$u20$core..ops..bit..BitXor$GT$6bitxor17h7e70a648784d0ba5E"(i64 %_809, i64 %_811), !dbg !1512
  br label %bb184, !dbg !1512

bb184:                                            ; preds = %bb183
  %286 = call { i64, i1 } @llvm.uadd.with.overflow.i64(i64 5, i64 1), !dbg !1514
  %_816.0 = extractvalue { i64, i1 } %286, 0, !dbg !1514
  %_816.1 = extractvalue { i64, i1 } %286, 1, !dbg !1514
  %287 = call i1 @llvm.expect.i1(i1 %_816.1, i1 false), !dbg !1514
  br i1 %287, label %panic154, label %bb185, !dbg !1514

bb185:                                            ; preds = %bb184
  %_818 = icmp ult i64 %_816.0, 25, !dbg !1515
  %288 = call i1 @llvm.expect.i1(i1 %_818, i1 true), !dbg !1515
  br i1 %288, label %bb186, label %panic155, !dbg !1515

panic154:                                         ; preds = %bb184
; call core::panicking::panic
  call void @_ZN4core9panicking5panic17h560e3e4b7752857aE([0 x i8]* nonnull align 1 bitcast ([28 x i8]* @str.2 to [0 x i8]*), i64 28, %"core::panic::Location"* align 8 dereferenceable(24) bitcast (<{ i8*, [16 x i8] }>* @alloc787 to %"core::panic::Location"*)), !dbg !1514
  unreachable, !dbg !1514

bb186:                                            ; preds = %bb185
  %289 = getelementptr inbounds [25 x i64], [25 x i64]* %state, i64 0, i64 %_816.0, !dbg !1515
  store i64 %_808, i64* %289, align 8, !dbg !1515
  %290 = getelementptr inbounds [5 x i64], [5 x i64]* %array, i64 0, i64 3, !dbg !1500
  %_820 = load i64, i64* %290, align 8, !dbg !1500
; call <u64 as core::ops::bit::Not>::not
  %t1156 = call i64 @"_ZN43_$LT$u64$u20$as$u20$core..ops..bit..Not$GT$3not17h4a14053068a98ed5E"(i64 %_820), !dbg !1501
  store i64 %t1156, i64* %t1.dbg.spill157, align 8, !dbg !1501
  call void @llvm.dbg.declare(metadata i64* %t1.dbg.spill157, metadata !1218, metadata !DIExpression()), !dbg !1516
  br label %bb187, !dbg !1501

panic155:                                         ; preds = %bb185
; call core::panicking::panic_bounds_check
  call void @_ZN4core9panicking18panic_bounds_check17h865b4c1c7f870517E(i64 %_816.0, i64 25, %"core::panic::Location"* align 8 dereferenceable(24) bitcast (<{ i8*, [16 x i8] }>* @alloc789 to %"core::panic::Location"*)), !dbg !1515
  unreachable, !dbg !1515

bb187:                                            ; preds = %bb186
  %291 = getelementptr inbounds [5 x i64], [5 x i64]* %array, i64 0, i64 4, !dbg !1517
  %t2158 = load i64, i64* %291, align 8, !dbg !1517
  store i64 %t2158, i64* %t2.dbg.spill159, align 8, !dbg !1517
  call void @llvm.dbg.declare(metadata i64* %t2.dbg.spill159, metadata !1220, metadata !DIExpression()), !dbg !1518
  %292 = getelementptr inbounds [5 x i64], [5 x i64]* %array, i64 0, i64 2, !dbg !1519
  %_825 = load i64, i64* %292, align 8, !dbg !1519
; call <u64 as core::ops::bit::BitAnd>::bitand
  %_827 = call i64 @"_ZN46_$LT$u64$u20$as$u20$core..ops..bit..BitAnd$GT$6bitand17h9dc2a884df11b956E"(i64 %t1156, i64 %t2158), !dbg !1520
  br label %bb188, !dbg !1520

bb188:                                            ; preds = %bb187
; call <u64 as core::ops::bit::BitXor>::bitxor
  %_824 = call i64 @"_ZN46_$LT$u64$u20$as$u20$core..ops..bit..BitXor$GT$6bitxor17h7e70a648784d0ba5E"(i64 %_825, i64 %_827), !dbg !1519
  br label %bb189, !dbg !1519

bb189:                                            ; preds = %bb188
  %293 = call { i64, i1 } @llvm.uadd.with.overflow.i64(i64 5, i64 2), !dbg !1521
  %_832.0 = extractvalue { i64, i1 } %293, 0, !dbg !1521
  %_832.1 = extractvalue { i64, i1 } %293, 1, !dbg !1521
  %294 = call i1 @llvm.expect.i1(i1 %_832.1, i1 false), !dbg !1521
  br i1 %294, label %panic160, label %bb190, !dbg !1521

bb190:                                            ; preds = %bb189
  %_834 = icmp ult i64 %_832.0, 25, !dbg !1522
  %295 = call i1 @llvm.expect.i1(i1 %_834, i1 true), !dbg !1522
  br i1 %295, label %bb191, label %panic161, !dbg !1522

panic160:                                         ; preds = %bb189
; call core::panicking::panic
  call void @_ZN4core9panicking5panic17h560e3e4b7752857aE([0 x i8]* nonnull align 1 bitcast ([28 x i8]* @str.2 to [0 x i8]*), i64 28, %"core::panic::Location"* align 8 dereferenceable(24) bitcast (<{ i8*, [16 x i8] }>* @alloc787 to %"core::panic::Location"*)), !dbg !1521
  unreachable, !dbg !1521

bb191:                                            ; preds = %bb190
  %296 = getelementptr inbounds [25 x i64], [25 x i64]* %state, i64 0, i64 %_832.0, !dbg !1522
  store i64 %_824, i64* %296, align 8, !dbg !1522
  %297 = getelementptr inbounds [5 x i64], [5 x i64]* %array, i64 0, i64 4, !dbg !1500
  %_836 = load i64, i64* %297, align 8, !dbg !1500
; call <u64 as core::ops::bit::Not>::not
  %t1162 = call i64 @"_ZN43_$LT$u64$u20$as$u20$core..ops..bit..Not$GT$3not17h4a14053068a98ed5E"(i64 %_836), !dbg !1501
  store i64 %t1162, i64* %t1.dbg.spill163, align 8, !dbg !1501
  call void @llvm.dbg.declare(metadata i64* %t1.dbg.spill163, metadata !1222, metadata !DIExpression()), !dbg !1523
  br label %bb192, !dbg !1501

panic161:                                         ; preds = %bb190
; call core::panicking::panic_bounds_check
  call void @_ZN4core9panicking18panic_bounds_check17h865b4c1c7f870517E(i64 %_832.0, i64 25, %"core::panic::Location"* align 8 dereferenceable(24) bitcast (<{ i8*, [16 x i8] }>* @alloc789 to %"core::panic::Location"*)), !dbg !1522
  unreachable, !dbg !1522

bb192:                                            ; preds = %bb191
  %298 = getelementptr inbounds [5 x i64], [5 x i64]* %array, i64 0, i64 0, !dbg !1524
  %t2164 = load i64, i64* %298, align 8, !dbg !1524
  store i64 %t2164, i64* %t2.dbg.spill165, align 8, !dbg !1524
  call void @llvm.dbg.declare(metadata i64* %t2.dbg.spill165, metadata !1224, metadata !DIExpression()), !dbg !1525
  %299 = getelementptr inbounds [5 x i64], [5 x i64]* %array, i64 0, i64 3, !dbg !1526
  %_841 = load i64, i64* %299, align 8, !dbg !1526
; call <u64 as core::ops::bit::BitAnd>::bitand
  %_843 = call i64 @"_ZN46_$LT$u64$u20$as$u20$core..ops..bit..BitAnd$GT$6bitand17h9dc2a884df11b956E"(i64 %t1162, i64 %t2164), !dbg !1527
  br label %bb193, !dbg !1527

bb193:                                            ; preds = %bb192
; call <u64 as core::ops::bit::BitXor>::bitxor
  %_840 = call i64 @"_ZN46_$LT$u64$u20$as$u20$core..ops..bit..BitXor$GT$6bitxor17h7e70a648784d0ba5E"(i64 %_841, i64 %_843), !dbg !1526
  br label %bb194, !dbg !1526

bb194:                                            ; preds = %bb193
  %300 = call { i64, i1 } @llvm.uadd.with.overflow.i64(i64 5, i64 3), !dbg !1528
  %_848.0 = extractvalue { i64, i1 } %300, 0, !dbg !1528
  %_848.1 = extractvalue { i64, i1 } %300, 1, !dbg !1528
  %301 = call i1 @llvm.expect.i1(i1 %_848.1, i1 false), !dbg !1528
  br i1 %301, label %panic166, label %bb195, !dbg !1528

bb195:                                            ; preds = %bb194
  %_850 = icmp ult i64 %_848.0, 25, !dbg !1529
  %302 = call i1 @llvm.expect.i1(i1 %_850, i1 true), !dbg !1529
  br i1 %302, label %bb196, label %panic167, !dbg !1529

panic166:                                         ; preds = %bb194
; call core::panicking::panic
  call void @_ZN4core9panicking5panic17h560e3e4b7752857aE([0 x i8]* nonnull align 1 bitcast ([28 x i8]* @str.2 to [0 x i8]*), i64 28, %"core::panic::Location"* align 8 dereferenceable(24) bitcast (<{ i8*, [16 x i8] }>* @alloc787 to %"core::panic::Location"*)), !dbg !1528
  unreachable, !dbg !1528

bb196:                                            ; preds = %bb195
  %303 = getelementptr inbounds [25 x i64], [25 x i64]* %state, i64 0, i64 %_848.0, !dbg !1529
  store i64 %_840, i64* %303, align 8, !dbg !1529
  %304 = getelementptr inbounds [5 x i64], [5 x i64]* %array, i64 0, i64 0, !dbg !1500
  %_852 = load i64, i64* %304, align 8, !dbg !1500
; call <u64 as core::ops::bit::Not>::not
  %t1168 = call i64 @"_ZN43_$LT$u64$u20$as$u20$core..ops..bit..Not$GT$3not17h4a14053068a98ed5E"(i64 %_852), !dbg !1501
  store i64 %t1168, i64* %t1.dbg.spill169, align 8, !dbg !1501
  call void @llvm.dbg.declare(metadata i64* %t1.dbg.spill169, metadata !1226, metadata !DIExpression()), !dbg !1530
  br label %bb197, !dbg !1501

panic167:                                         ; preds = %bb195
; call core::panicking::panic_bounds_check
  call void @_ZN4core9panicking18panic_bounds_check17h865b4c1c7f870517E(i64 %_848.0, i64 25, %"core::panic::Location"* align 8 dereferenceable(24) bitcast (<{ i8*, [16 x i8] }>* @alloc789 to %"core::panic::Location"*)), !dbg !1529
  unreachable, !dbg !1529

bb197:                                            ; preds = %bb196
  %305 = getelementptr inbounds [5 x i64], [5 x i64]* %array, i64 0, i64 1, !dbg !1531
  %t2170 = load i64, i64* %305, align 8, !dbg !1531
  store i64 %t2170, i64* %t2.dbg.spill171, align 8, !dbg !1531
  call void @llvm.dbg.declare(metadata i64* %t2.dbg.spill171, metadata !1228, metadata !DIExpression()), !dbg !1532
  %306 = getelementptr inbounds [5 x i64], [5 x i64]* %array, i64 0, i64 4, !dbg !1533
  %_857 = load i64, i64* %306, align 8, !dbg !1533
; call <u64 as core::ops::bit::BitAnd>::bitand
  %_859 = call i64 @"_ZN46_$LT$u64$u20$as$u20$core..ops..bit..BitAnd$GT$6bitand17h9dc2a884df11b956E"(i64 %t1168, i64 %t2170), !dbg !1534
  br label %bb198, !dbg !1534

bb198:                                            ; preds = %bb197
; call <u64 as core::ops::bit::BitXor>::bitxor
  %_856 = call i64 @"_ZN46_$LT$u64$u20$as$u20$core..ops..bit..BitXor$GT$6bitxor17h7e70a648784d0ba5E"(i64 %_857, i64 %_859), !dbg !1533
  br label %bb199, !dbg !1533

bb199:                                            ; preds = %bb198
  %307 = call { i64, i1 } @llvm.uadd.with.overflow.i64(i64 5, i64 4), !dbg !1535
  %_864.0 = extractvalue { i64, i1 } %307, 0, !dbg !1535
  %_864.1 = extractvalue { i64, i1 } %307, 1, !dbg !1535
  %308 = call i1 @llvm.expect.i1(i1 %_864.1, i1 false), !dbg !1535
  br i1 %308, label %panic172, label %bb200, !dbg !1535

bb200:                                            ; preds = %bb199
  %_866 = icmp ult i64 %_864.0, 25, !dbg !1536
  %309 = call i1 @llvm.expect.i1(i1 %_866, i1 true), !dbg !1536
  br i1 %309, label %bb201, label %panic173, !dbg !1536

panic172:                                         ; preds = %bb199
; call core::panicking::panic
  call void @_ZN4core9panicking5panic17h560e3e4b7752857aE([0 x i8]* nonnull align 1 bitcast ([28 x i8]* @str.2 to [0 x i8]*), i64 28, %"core::panic::Location"* align 8 dereferenceable(24) bitcast (<{ i8*, [16 x i8] }>* @alloc787 to %"core::panic::Location"*)), !dbg !1535
  unreachable, !dbg !1535

bb201:                                            ; preds = %bb200
  %310 = getelementptr inbounds [25 x i64], [25 x i64]* %state, i64 0, i64 %_864.0, !dbg !1536
  store i64 %_856, i64* %310, align 8, !dbg !1536
  store i64 10, i64* %y.dbg.spill174, align 8, !dbg !1454
  call void @llvm.dbg.declare(metadata i64* %y.dbg.spill174, metadata !1230, metadata !DIExpression()), !dbg !1537
  %311 = getelementptr inbounds [25 x i64], [25 x i64]* %state, i64 0, i64 10, !dbg !1538
  %_868 = load i64, i64* %311, align 8, !dbg !1538
  %312 = getelementptr inbounds [5 x i64], [5 x i64]* %array, i64 0, i64 0, !dbg !1539
  store i64 %_868, i64* %312, align 8, !dbg !1539
  %313 = call { i64, i1 } @llvm.uadd.with.overflow.i64(i64 10, i64 1), !dbg !1540
  %_874.0 = extractvalue { i64, i1 } %313, 0, !dbg !1540
  %_874.1 = extractvalue { i64, i1 } %313, 1, !dbg !1540
  %314 = call i1 @llvm.expect.i1(i1 %_874.1, i1 false), !dbg !1540
  br i1 %314, label %panic175, label %bb202, !dbg !1540

panic173:                                         ; preds = %bb200
; call core::panicking::panic_bounds_check
  call void @_ZN4core9panicking18panic_bounds_check17h865b4c1c7f870517E(i64 %_864.0, i64 25, %"core::panic::Location"* align 8 dereferenceable(24) bitcast (<{ i8*, [16 x i8] }>* @alloc789 to %"core::panic::Location"*)), !dbg !1536
  unreachable, !dbg !1536

bb202:                                            ; preds = %bb201
  %_876 = icmp ult i64 %_874.0, 25, !dbg !1538
  %315 = call i1 @llvm.expect.i1(i1 %_876, i1 true), !dbg !1538
  br i1 %315, label %bb203, label %panic176, !dbg !1538

panic175:                                         ; preds = %bb201
; call core::panicking::panic
  call void @_ZN4core9panicking5panic17h560e3e4b7752857aE([0 x i8]* nonnull align 1 bitcast ([28 x i8]* @str.2 to [0 x i8]*), i64 28, %"core::panic::Location"* align 8 dereferenceable(24) bitcast (<{ i8*, [16 x i8] }>* @alloc783 to %"core::panic::Location"*)), !dbg !1540
  unreachable, !dbg !1540

bb203:                                            ; preds = %bb202
  %316 = getelementptr inbounds [25 x i64], [25 x i64]* %state, i64 0, i64 %_874.0, !dbg !1538
  %_871 = load i64, i64* %316, align 8, !dbg !1538
  %317 = getelementptr inbounds [5 x i64], [5 x i64]* %array, i64 0, i64 1, !dbg !1539
  store i64 %_871, i64* %317, align 8, !dbg !1539
  %318 = call { i64, i1 } @llvm.uadd.with.overflow.i64(i64 10, i64 2), !dbg !1540
  %_881.0 = extractvalue { i64, i1 } %318, 0, !dbg !1540
  %_881.1 = extractvalue { i64, i1 } %318, 1, !dbg !1540
  %319 = call i1 @llvm.expect.i1(i1 %_881.1, i1 false), !dbg !1540
  br i1 %319, label %panic177, label %bb204, !dbg !1540

panic176:                                         ; preds = %bb202
; call core::panicking::panic_bounds_check
  call void @_ZN4core9panicking18panic_bounds_check17h865b4c1c7f870517E(i64 %_874.0, i64 25, %"core::panic::Location"* align 8 dereferenceable(24) bitcast (<{ i8*, [16 x i8] }>* @alloc785 to %"core::panic::Location"*)), !dbg !1538
  unreachable, !dbg !1538

bb204:                                            ; preds = %bb203
  %_883 = icmp ult i64 %_881.0, 25, !dbg !1538
  %320 = call i1 @llvm.expect.i1(i1 %_883, i1 true), !dbg !1538
  br i1 %320, label %bb205, label %panic178, !dbg !1538

panic177:                                         ; preds = %bb203
; call core::panicking::panic
  call void @_ZN4core9panicking5panic17h560e3e4b7752857aE([0 x i8]* nonnull align 1 bitcast ([28 x i8]* @str.2 to [0 x i8]*), i64 28, %"core::panic::Location"* align 8 dereferenceable(24) bitcast (<{ i8*, [16 x i8] }>* @alloc783 to %"core::panic::Location"*)), !dbg !1540
  unreachable, !dbg !1540

bb205:                                            ; preds = %bb204
  %321 = getelementptr inbounds [25 x i64], [25 x i64]* %state, i64 0, i64 %_881.0, !dbg !1538
  %_878 = load i64, i64* %321, align 8, !dbg !1538
  %322 = getelementptr inbounds [5 x i64], [5 x i64]* %array, i64 0, i64 2, !dbg !1539
  store i64 %_878, i64* %322, align 8, !dbg !1539
  %323 = call { i64, i1 } @llvm.uadd.with.overflow.i64(i64 10, i64 3), !dbg !1540
  %_888.0 = extractvalue { i64, i1 } %323, 0, !dbg !1540
  %_888.1 = extractvalue { i64, i1 } %323, 1, !dbg !1540
  %324 = call i1 @llvm.expect.i1(i1 %_888.1, i1 false), !dbg !1540
  br i1 %324, label %panic179, label %bb206, !dbg !1540

panic178:                                         ; preds = %bb204
; call core::panicking::panic_bounds_check
  call void @_ZN4core9panicking18panic_bounds_check17h865b4c1c7f870517E(i64 %_881.0, i64 25, %"core::panic::Location"* align 8 dereferenceable(24) bitcast (<{ i8*, [16 x i8] }>* @alloc785 to %"core::panic::Location"*)), !dbg !1538
  unreachable, !dbg !1538

bb206:                                            ; preds = %bb205
  %_890 = icmp ult i64 %_888.0, 25, !dbg !1538
  %325 = call i1 @llvm.expect.i1(i1 %_890, i1 true), !dbg !1538
  br i1 %325, label %bb207, label %panic180, !dbg !1538

panic179:                                         ; preds = %bb205
; call core::panicking::panic
  call void @_ZN4core9panicking5panic17h560e3e4b7752857aE([0 x i8]* nonnull align 1 bitcast ([28 x i8]* @str.2 to [0 x i8]*), i64 28, %"core::panic::Location"* align 8 dereferenceable(24) bitcast (<{ i8*, [16 x i8] }>* @alloc783 to %"core::panic::Location"*)), !dbg !1540
  unreachable, !dbg !1540

bb207:                                            ; preds = %bb206
  %326 = getelementptr inbounds [25 x i64], [25 x i64]* %state, i64 0, i64 %_888.0, !dbg !1538
  %_885 = load i64, i64* %326, align 8, !dbg !1538
  %327 = getelementptr inbounds [5 x i64], [5 x i64]* %array, i64 0, i64 3, !dbg !1539
  store i64 %_885, i64* %327, align 8, !dbg !1539
  %328 = call { i64, i1 } @llvm.uadd.with.overflow.i64(i64 10, i64 4), !dbg !1540
  %_895.0 = extractvalue { i64, i1 } %328, 0, !dbg !1540
  %_895.1 = extractvalue { i64, i1 } %328, 1, !dbg !1540
  %329 = call i1 @llvm.expect.i1(i1 %_895.1, i1 false), !dbg !1540
  br i1 %329, label %panic181, label %bb208, !dbg !1540

panic180:                                         ; preds = %bb206
; call core::panicking::panic_bounds_check
  call void @_ZN4core9panicking18panic_bounds_check17h865b4c1c7f870517E(i64 %_888.0, i64 25, %"core::panic::Location"* align 8 dereferenceable(24) bitcast (<{ i8*, [16 x i8] }>* @alloc785 to %"core::panic::Location"*)), !dbg !1538
  unreachable, !dbg !1538

bb208:                                            ; preds = %bb207
  %_897 = icmp ult i64 %_895.0, 25, !dbg !1538
  %330 = call i1 @llvm.expect.i1(i1 %_897, i1 true), !dbg !1538
  br i1 %330, label %bb209, label %panic182, !dbg !1538

panic181:                                         ; preds = %bb207
; call core::panicking::panic
