; ModuleID = 'num_traits.cba9cd87-cgu.0'
source_filename = "num_traits.cba9cd87-cgu.0"
target datalayout = "e-m:e-p:64:64-i64:64-n32:64-S128"
target triple = "bpfel"

%"core::iter::Zip<core::slice::Iter<u8>, core::slice::Iter<u8>>" = type { { i8*, i8* }, { i8*, i8* }, i64, i64, i64 }
%"core::iter::Zip<core::str::Bytes, core::str::Bytes>" = type { { i8*, i8* }, { i8*, i8* }, i64, i64, i64 }
%"core::option::Option<(u8, u8)>" = type { i8, [2 x i8] }
%"core::ops::ControlFlow<(), core::convert::Infallible>::Break" = type { {} }
%"core::ops::ControlFlow<()>::Break" = type { [1 x i8], {} }
%"core::iter::Enumerate<core::str::Chars>" = type { { i8*, i8* }, i64 }
%"core::option::Option<core::convert::Infallible>::None" = type {}
%"core::panic::Location" = type { { [0 x i8]*, i64 }, i32, i32 }
%"core::option::Option<(u8, u8)>::Some" = type { [1 x i8], { i8, i8 } }
%"core::fmt::Formatter" = type { { i64, i64 }, { i64, i64 }, { {}*, [3 x i64]* }, i32, i32, i8, [7 x i8] }
%"core::option::Option<u64>::Some" = type { [1 x i64], i64 }
%"core::num::dec2flt::decimal::Decimal" = type { i64, i32, i8, [768 x i8], [3 x i8] }
%"[closure@core::num::dec2flt::slow::parse_long_mantissa<f64>::{closure#0}]" = type {}
%"[closure@core::num::dec2flt::slow::parse_long_mantissa<f32>::{closure#0}]" = type {}
%"core::option::Option<(f64, usize)>" = type { i64, [2 x i64] }
%"core::option::Option<(f64, usize)>::Some" = type { [1 x i64], { double, i64 } }
%"core::option::Option<f64>::Some" = type { [1 x i64], double }
%"core::option::Option<(f32, usize)>" = type { i64, [2 x i64] }
%"core::option::Option<(f32, usize)>::Some" = type { [1 x i64], { float, i64 } }
%"core::option::Option<f32>::Some" = type { [1 x i32], float }
%"core::result::Result<f32, core::num::ParseFloatError>" = type { i8, [7 x i8] }
%"core::result::Result<f64, core::num::ParseFloatError>" = type { i8, [15 x i8] }
%"[closure@<[u8] as core::num::dec2flt::common::ByteSlice>::eq_ignore_case::{closure#0}]" = type {}
%"core::num::dec2flt::number::Number" = type { i64, i64, i8, i8, [6 x i8] }
%"core::ops::ControlFlow<core::option::Option<core::convert::Infallible>, u64>::Continue" = type { [1 x i64], i64 }
%"core::option::Option<core::num::dec2flt::number::Number>" = type { [16 x i8], i8, [7 x i8] }
%"core::result::Result<f32, core::num::ParseFloatError>::Err" = type { [1 x i8], i8 }
%"core::option::Option<core::num::dec2flt::number::Number>::Some" = type { %"core::num::dec2flt::number::Number" }
%"core::result::Result<f32, core::num::ParseFloatError>::Ok" = type { [1 x i32], float }
%"core::result::Result<f64, core::num::ParseFloatError>::Err" = type { [1 x i8], i8 }
%"core::result::Result<f64, core::num::ParseFloatError>::Ok" = type { [1 x i64], double }
%"core::ptr::metadata::PtrRepr<[u8]>" = type { [2 x i64] }
%"core::option::Option<u32>::Some" = type { [1 x i32], i32 }
%"core::result::Result<usize, core::num::ParseIntError>" = type { i8, [15 x i8] }
%"[closure@/home/chinedum/.cargo/registry/src/github.com-1ecc6299db9ec823/num-traits-0.2.15/src/lib.rs:214:41: 217:10]" = type {}
%"[closure@core::iter::Iterator::all::check<(u8, u8), [closure@/home/chinedum/.cargo/registry/src/github.com-1ecc6299db9ec823/num-traits-0.2.15/src/lib.rs:214:41: 217:10]>::{closure#0}]" = type { %"[closure@/home/chinedum/.cargo/registry/src/github.com-1ecc6299db9ec823/num-traits-0.2.15/src/lib.rs:214:41: 217:10]" }
%"[closure@<core::str::Chars as core::iter::Iterator>::next::{closure#0}]" = type {}
%"core::result::Result<f64, ParseFloatError>" = type { i8, [15 x i8] }
%"core::result::Result<f64, ParseFloatError>::Ok" = type { [1 x i64], double }
%"core::result::Result<f64, ParseFloatError>::Err" = type { [1 x i8], i8 }
%"core::result::Result<f32, ParseFloatError>" = type { i8, [7 x i8] }
%"core::result::Result<f32, ParseFloatError>::Ok" = type { [1 x i32], float }
%"core::result::Result<f32, ParseFloatError>::Err" = type { [1 x i8], i8 }
%"core::ops::ControlFlow<()>::Continue" = type { [1 x i8], {} }
%"core::option::Option<usize>::Some" = type { [1 x i64], i64 }
%"core::ops::ControlFlow<core::ops::ControlFlow<(), core::convert::Infallible>>::Continue" = type { [1 x i8], {} }
%"core::ops::ControlFlow<core::ops::ControlFlow<(), core::convert::Infallible>>::Break" = type { [1 x i8], %"core::ops::ControlFlow<(), core::convert::Infallible>::Break" }
%"core::fmt::DebugTuple" = type { %"core::fmt::Formatter"*, i64, i8, i8, [6 x i8] }
%"core::fmt::DebugStruct" = type { %"core::fmt::Formatter"*, i8, i8, [6 x i8] }
%"core::option::Option<(char, &str)>" = type { i32, [5 x i32] }
%"core::option::Option<(char, &str)>::Some" = type { { i32, [1 x i32], { [0 x i8]*, i64 } } }
%"core::result::Result<usize, core::num::ParseIntError>::Ok" = type { [1 x i64], i64 }

@alloc2941 = private unnamed_addr constant <{ [90 x i8] }> <{ [90 x i8] c"/home/runner/work/bpf-tools/bpf-tools/out/rust/library/core/src/iter/adapters/enumerate.rs" }>, align 1
@alloc2942 = private unnamed_addr constant <{ i8*, [16 x i8] }> <{ i8* getelementptr inbounds (<{ [90 x i8] }>, <{ [90 x i8] }>* @alloc2941, i32 0, i32 0, i32 0), [16 x i8] c"Z\00\00\00\00\00\00\000\00\00\00\09\00\00\00" }>, align 8
@str.0 = internal constant [28 x i8] c"attempt to add with overflow"
@0 = private unnamed_addr constant <{ [19 x i8] }> <{ [19 x i8] c"\00\03\06\09\0D\10\13\17\1A\1D!$'+.158;" }>, align 1
@alloc2945 = private unnamed_addr constant <{ [83 x i8] }> <{ [83 x i8] c"/home/runner/work/bpf-tools/bpf-tools/out/rust/library/core/src/num/dec2flt/slow.rs" }>, align 1
@alloc2946 = private unnamed_addr constant <{ i8*, [16 x i8] }> <{ i8* getelementptr inbounds (<{ [83 x i8] }>, <{ [83 x i8] }>* @alloc2945, i32 0, i32 0, i32 0), [16 x i8] c"S\00\00\00\00\00\00\00!\00\00\00\1D\00\00\00" }>, align 8
@alloc2980 = private unnamed_addr constant <{ [3 x i8] }> <{ [3 x i8] c"nan" }>, align 1
@alloc2976 = private unnamed_addr constant <{ [3 x i8] }> <{ [3 x i8] c"inf" }>, align 1
@alloc2947 = private unnamed_addr constant <{ [85 x i8] }> <{ [85 x i8] c"/home/runner/work/bpf-tools/bpf-tools/out/rust/library/core/src/num/dec2flt/common.rs" }>, align 1
@alloc2948 = private unnamed_addr constant <{ i8*, [16 x i8] }> <{ i8* getelementptr inbounds (<{ [85 x i8] }>, <{ [85 x i8] }>* @alloc2947, i32 0, i32 0, i32 0), [16 x i8] c"U\00\00\00\00\00\00\000\00\00\00\0A\00\00\00" }>, align 8
@1 = private unnamed_addr constant <{ [128 x i8] }> <{ [128 x i8] c"\01\00\00\00\00\00\00\00\0A\00\00\00\00\00\00\00d\00\00\00\00\00\00\00\E8\03\00\00\00\00\00\00\10'\00\00\00\00\00\00\A0\86\01\00\00\00\00\00@B\0F\00\00\00\00\00\80\96\98\00\00\00\00\00\00\E1\F5\05\00\00\00\00\00\CA\9A;\00\00\00\00\00\E4\0BT\02\00\00\00\00\E8vH\17\00\00\00\00\10\A5\D4\E8\00\00\00\00\A0rN\18\09\00\00\00@z\10\F3Z\00\00\00\80\C6\A4~\8D\03\00" }>, align 8
@alloc2949 = private unnamed_addr constant <{ [85 x i8] }> <{ [85 x i8] c"/home/runner/work/bpf-tools/bpf-tools/out/rust/library/core/src/num/dec2flt/number.rs" }>, align 1
@alloc2950 = private unnamed_addr constant <{ i8*, [16 x i8] }> <{ i8* getelementptr inbounds (<{ [85 x i8] }>, <{ [85 x i8] }>* @alloc2949, i32 0, i32 0, i32 0), [16 x i8] c"U\00\00\00\00\00\00\00H\00\00\00:\00\00\00" }>, align 8
@alloc2951 = private unnamed_addr constant <{ [40 x i8] }> <{ [40 x i8] c"to_digit: radix is too high (maximum 36)" }>, align 1
@alloc2952 = private unnamed_addr constant <{ [79 x i8] }> <{ [79 x i8] c"/home/runner/work/bpf-tools/bpf-tools/out/rust/library/core/src/char/methods.rs" }>, align 1
@alloc2953 = private unnamed_addr constant <{ i8*, [16 x i8] }> <{ i8* getelementptr inbounds (<{ [79 x i8] }>, <{ [79 x i8] }>* @alloc2952, i32 0, i32 0, i32 0), [16 x i8] c"O\00\00\00\00\00\00\00M\01\00\00\09\00\00\00" }>, align 8
@alloc2846 = private unnamed_addr constant <{ [1 x i8] }> zeroinitializer, align 1
@alloc2956 = private unnamed_addr constant <{ [93 x i8] }> <{ [93 x i8] c"/home/chinedum/.cargo/registry/src/github.com-1ecc6299db9ec823/num-traits-0.2.15/src/float.rs" }>, align 1
@alloc2955 = private unnamed_addr constant <{ i8*, [16 x i8] }> <{ i8* getelementptr inbounds (<{ [93 x i8] }>, <{ [93 x i8] }>* @alloc2956, i32 0, i32 0, i32 0), [16 x i8] c"]\00\00\00\00\00\00\00\F7\07\00\00\05\00\00\00" }>, align 8
@str.1 = internal constant [33 x i8] c"attempt to subtract with overflow"
@alloc2957 = private unnamed_addr constant <{ i8*, [16 x i8] }> <{ i8* getelementptr inbounds (<{ [93 x i8] }>, <{ [93 x i8] }>* @alloc2956, i32 0, i32 0, i32 0), [16 x i8] c"]\00\00\00\00\00\00\00\07\08\00\00\05\00\00\00" }>, align 8
@alloc2958 = private unnamed_addr constant <{ [21 x i8] }> <{ [21 x i8] c"invalid float literal" }>, align 1
@alloc2959 = private unnamed_addr constant <{ [36 x i8] }> <{ [36 x i8] c"cannot parse float from empty string" }>, align 1
@alloc2960 = private unnamed_addr constant <{ [7 x i8] }> <{ [7 x i8] c"Invalid" }>, align 1
@alloc2961 = private unnamed_addr constant <{ [5 x i8] }> <{ [5 x i8] c"Empty" }>, align 1
@alloc2962 = private unnamed_addr constant <{ [15 x i8] }> <{ [15 x i8] c"ParseFloatError" }>, align 1
@alloc2963 = private unnamed_addr constant <{ [4 x i8] }> <{ [4 x i8] c"kind" }>, align 1
@vtable.2 = private unnamed_addr constant <{ i8*, [16 x i8], i8*, [0 x i8] }> <{ i8* bitcast (void (i8**)* @"_ZN4core3ptr51drop_in_place$LT$$RF$num_traits..FloatErrorKind$GT$17hacc6e33a0073cd64E" to i8*), [16 x i8] c"\08\00\00\00\00\00\00\00\08\00\00\00\00\00\00\00", i8* bitcast (i1 (i8**, %"core::fmt::Formatter"*)* @"_ZN42_$LT$$RF$T$u20$as$u20$core..fmt..Debug$GT$3fmt17hff085c70b3d512c9E" to i8*), [0 x i8] zeroinitializer }>, align 8, !dbg !0
@alloc2977 = private unnamed_addr constant <{ [8 x i8] }> <{ [8 x i8] c"infinity" }>, align 1
@alloc2978 = private unnamed_addr constant <{ [4 x i8] }> <{ [4 x i8] c"-inf" }>, align 1
@alloc2979 = private unnamed_addr constant <{ [9 x i8] }> <{ [9 x i8] c"-infinity" }>, align 1
@alloc2981 = private unnamed_addr constant <{ [4 x i8] }> <{ [4 x i8] c"-nan" }>, align 1
@alloc2982 = private unnamed_addr constant <{ [0 x i8] }> zeroinitializer, align 1
@alloc2974 = private unnamed_addr constant <{ [91 x i8] }> <{ [91 x i8] c"/home/chinedum/.cargo/registry/src/github.com-1ecc6299db9ec823/num-traits-0.2.15/src/lib.rs" }>, align 1
@alloc2975 = private unnamed_addr constant <{ i8*, [16 x i8] }> <{ i8* getelementptr inbounds (<{ [91 x i8] }>, <{ [91 x i8] }>* @alloc2974, i32 0, i32 0, i32 0), [16 x i8] c"[\00\00\00\00\00\00\00\8E\01\00\00\01\00\00\00" }>, align 8

; <core::iter::adapters::zip::Zip<A,B> as core::iter::traits::iterator::Iterator>::next
; Function Attrs: inlinehint nounwind
define { i8*, i8* } @"_ZN102_$LT$core..iter..adapters..zip..Zip$LT$A$C$B$GT$$u20$as$u20$core..iter..traits..iterator..Iterator$GT$4next17habbf0680fb239970E"(%"core::iter::Zip<core::slice::Iter<u8>, core::slice::Iter<u8>>"* align 8 dereferenceable(56) %self) unnamed_addr #0 !dbg !56 {
start:
  %self.dbg.spill = alloca %"core::iter::Zip<core::slice::Iter<u8>, core::slice::Iter<u8>>"*, align 8
  store %"core::iter::Zip<core::slice::Iter<u8>, core::slice::Iter<u8>>"* %self, %"core::iter::Zip<core::slice::Iter<u8>, core::slice::Iter<u8>>"** %self.dbg.spill, align 8
  call void @llvm.dbg.declare(metadata %"core::iter::Zip<core::slice::Iter<u8>, core::slice::Iter<u8>>"** %self.dbg.spill, metadata !116, metadata !DIExpression()), !dbg !117
; call <core::iter::adapters::zip::Zip<A,B> as core::iter::adapters::zip::ZipImpl<A,B>>::next
  %0 = call { i8*, i8* } @"_ZN111_$LT$core..iter..adapters..zip..Zip$LT$A$C$B$GT$$u20$as$u20$core..iter..adapters..zip..ZipImpl$LT$A$C$B$GT$$GT$4next17h3d63ccb7f72d129fE"(%"core::iter::Zip<core::slice::Iter<u8>, core::slice::Iter<u8>>"* align 8 dereferenceable(56) %self), !dbg !118
  %1 = extractvalue { i8*, i8* } %0, 0, !dbg !118
  %2 = extractvalue { i8*, i8* } %0, 1, !dbg !118
  br label %bb1, !dbg !118

bb1:                                              ; preds = %start
  %3 = insertvalue { i8*, i8* } undef, i8* %1, 0, !dbg !119
  %4 = insertvalue { i8*, i8* } %3, i8* %2, 1, !dbg !119
  ret { i8*, i8* } %4, !dbg !119
}

; <core::iter::adapters::zip::Zip<A,B> as core::iter::traits::iterator::Iterator>::next
; Function Attrs: inlinehint nounwind
define i24 @"_ZN102_$LT$core..iter..adapters..zip..Zip$LT$A$C$B$GT$$u20$as$u20$core..iter..traits..iterator..Iterator$GT$4next17he53a662ae4d6ffb2E"(%"core::iter::Zip<core::str::Bytes, core::str::Bytes>"* align 8 dereferenceable(56) %self) unnamed_addr #0 !dbg !120 {
start:
  %0 = alloca i24, align 4
  %self.dbg.spill = alloca %"core::iter::Zip<core::str::Bytes, core::str::Bytes>"*, align 8
  %1 = alloca %"core::option::Option<(u8, u8)>", align 1
  store %"core::iter::Zip<core::str::Bytes, core::str::Bytes>"* %self, %"core::iter::Zip<core::str::Bytes, core::str::Bytes>"** %self.dbg.spill, align 8
  call void @llvm.dbg.declare(metadata %"core::iter::Zip<core::str::Bytes, core::str::Bytes>"** %self.dbg.spill, metadata !163, metadata !DIExpression()), !dbg !164
; call <core::iter::adapters::zip::Zip<A,B> as core::iter::adapters::zip::ZipImpl<A,B>>::next
  %2 = call i24 @"_ZN111_$LT$core..iter..adapters..zip..Zip$LT$A$C$B$GT$$u20$as$u20$core..iter..adapters..zip..ZipImpl$LT$A$C$B$GT$$GT$4next17h5d88cd68a95ed554E"(%"core::iter::Zip<core::str::Bytes, core::str::Bytes>"* align 8 dereferenceable(56) %self), !dbg !165
  store i24 %2, i24* %0, align 4, !dbg !165
  %3 = bitcast %"core::option::Option<(u8, u8)>"* %1 to i8*, !dbg !165
  %4 = bitcast i24* %0 to i8*, !dbg !165
  call void @llvm.memcpy.p0i8.p0i8.i64(i8* align 1 %3, i8* align 4 %4, i64 3, i1 false), !dbg !165
  br label %bb1, !dbg !165

bb1:                                              ; preds = %start
  %5 = bitcast %"core::option::Option<(u8, u8)>"* %1 to i24*, !dbg !166
  %6 = load i24, i24* %5, align 1, !dbg !166
  ret i24 %6, !dbg !166
}

; <core::iter::adapters::copied::Copied<I> as core::iter::traits::iterator::Iterator>::__iterator_get_unchecked
; Function Attrs: nounwind
define i8 @"_ZN104_$LT$core..iter..adapters..copied..Copied$LT$I$GT$$u20$as$u20$core..iter..traits..iterator..Iterator$GT$24__iterator_get_unchecked17habce9b3f3ab3f3ffE"({ i8*, i8* }* align 8 dereferenceable(16) %self, i64 %idx) unnamed_addr #1 !dbg !167 {
start:
  %idx.dbg.spill = alloca i64, align 8
  %self.dbg.spill = alloca { i8*, i8* }*, align 8
  store { i8*, i8* }* %self, { i8*, i8* }** %self.dbg.spill, align 8
  call void @llvm.dbg.declare(metadata { i8*, i8* }** %self.dbg.spill, metadata !174, metadata !DIExpression()), !dbg !177
  store i64 %idx, i64* %idx.dbg.spill, align 8
  call void @llvm.dbg.declare(metadata i64* %idx.dbg.spill, metadata !175, metadata !DIExpression()), !dbg !178
; call core::iter::adapters::zip::try_get_unchecked
  %_3 = call align 1 dereferenceable(1) i8* @_ZN4core4iter8adapters3zip17try_get_unchecked17h721846e5d9984395E({ i8*, i8* }* align 8 dereferenceable(16) %self, i64 %idx), !dbg !179
  br label %bb1, !dbg !179

bb1:                                              ; preds = %start
  %0 = load i8, i8* %_3, align 1, !dbg !180
  ret i8 %0, !dbg !181
}

; <core::iter::adapters::copied::Copied<I> as core::iter::traits::iterator::Iterator>::size_hint
; Function Attrs: nounwind
define void @"_ZN104_$LT$core..iter..adapters..copied..Copied$LT$I$GT$$u20$as$u20$core..iter..traits..iterator..Iterator$GT$9size_hint17h873532b9b576354dE"({ i64, { i64, i64 } }* noalias nocapture sret({ i64, { i64, i64 } }) dereferenceable(24) %0, { i8*, i8* }* align 8 dereferenceable(16) %self) unnamed_addr #1 !dbg !182 {
start:
  %self.dbg.spill = alloca { i8*, i8* }*, align 8
  store { i8*, i8* }* %self, { i8*, i8* }** %self.dbg.spill, align 8
  call void @llvm.dbg.declare(metadata { i8*, i8* }** %self.dbg.spill, metadata !203, metadata !DIExpression()), !dbg !204
; call <core::slice::iter::Iter<T> as core::iter::traits::iterator::Iterator>::size_hint
  call void @"_ZN91_$LT$core..slice..iter..Iter$LT$T$GT$$u20$as$u20$core..iter..traits..iterator..Iterator$GT$9size_hint17ha1de5e1f1190acc2E"({ i64, { i64, i64 } }* noalias nocapture sret({ i64, { i64, i64 } }) dereferenceable(24) %0, { i8*, i8* }* align 8 dereferenceable(16) %self), !dbg !205
  br label %bb1, !dbg !205

bb1:                                              ; preds = %start
  ret void, !dbg !206
}

; <core::ops::control_flow::ControlFlow<B,C> as core::ops::try_trait::FromResidual>::from_residual
; Function Attrs: inlinehint nounwind
define zeroext i1 @"_ZN104_$LT$core..ops..control_flow..ControlFlow$LT$B$C$C$GT$$u20$as$u20$core..ops..try_trait..FromResidual$GT$13from_residual17haf95ea245bbc93a5E"() unnamed_addr #0 !dbg !207 {
start:
  %b.dbg.spill = alloca {}, align 1
  %residual.dbg.spill = alloca %"core::ops::ControlFlow<(), core::convert::Infallible>::Break", align 1
  %0 = alloca i8, align 1
  call void @llvm.dbg.declare(metadata %"core::ops::ControlFlow<(), core::convert::Infallible>::Break"* %residual.dbg.spill, metadata !229, metadata !DIExpression()), !dbg !234
  call void @llvm.dbg.declare(metadata {}* %b.dbg.spill, metadata !230, metadata !DIExpression()), !dbg !235
  %1 = bitcast i8* %0 to %"core::ops::ControlFlow<()>::Break"*, !dbg !236
  %2 = getelementptr inbounds %"core::ops::ControlFlow<()>::Break", %"core::ops::ControlFlow<()>::Break"* %1, i32 0, i32 1, !dbg !236
  store i8 1, i8* %0, align 1, !dbg !236
  %3 = load i8, i8* %0, align 1, !dbg !237, !range !238
  %4 = trunc i8 %3 to i1, !dbg !237
  ret i1 %4, !dbg !237
}

; <core::ops::range::Range<usize> as core::slice::index::SliceIndex<[T]>>::get_unchecked
; Function Attrs: inlinehint nounwind
define { [0 x i8]*, i64 } @"_ZN106_$LT$core..ops..range..Range$LT$usize$GT$$u20$as$u20$core..slice..index..SliceIndex$LT$$u5b$T$u5d$$GT$$GT$13get_unchecked17h15708020735db847E"(i64 %self.0, i64 %self.1, [0 x i8]* %slice.0, i64 %slice.1) unnamed_addr #0 !dbg !239 {
start:
  %0 = alloca i8*, align 8
  %count.dbg.spill.i.i = alloca i64, align 8
  %self.dbg.spill.i.i = alloca i8*, align 8
  %count.dbg.spill.i = alloca i64, align 8
  %self.dbg.spill.i = alloca i8*, align 8
  %slice.dbg.spill = alloca { [0 x i8]*, i64 }, align 8
  %self.dbg.spill = alloca { i64, i64 }, align 8
  %1 = getelementptr inbounds { i64, i64 }, { i64, i64 }* %self.dbg.spill, i32 0, i32 0
  store i64 %self.0, i64* %1, align 8
  %2 = getelementptr inbounds { i64, i64 }, { i64, i64 }* %self.dbg.spill, i32 0, i32 1
  store i64 %self.1, i64* %2, align 8
  call void @llvm.dbg.declare(metadata { i64, i64 }* %self.dbg.spill, metadata !257, metadata !DIExpression()), !dbg !259
  %3 = getelementptr inbounds { [0 x i8]*, i64 }, { [0 x i8]*, i64 }* %slice.dbg.spill, i32 0, i32 0
  store [0 x i8]* %slice.0, [0 x i8]** %3, align 8
  %4 = getelementptr inbounds { [0 x i8]*, i64 }, { [0 x i8]*, i64 }* %slice.dbg.spill, i32 0, i32 1
  store i64 %slice.1, i64* %4, align 8
  call void @llvm.dbg.declare(metadata { [0 x i8]*, i64 }* %slice.dbg.spill, metadata !258, metadata !DIExpression()), !dbg !260
; call core::ptr::const_ptr::<impl *const [T]>::as_ptr
  %_4 = call i8* @"_ZN4core3ptr9const_ptr43_$LT$impl$u20$$BP$const$u20$$u5b$T$u5d$$GT$6as_ptr17h6bb91fbf2dc375fbE"([0 x i8]* %slice.0, i64 %slice.1), !dbg !261
  br label %bb1, !dbg !261

bb1:                                              ; preds = %start
  store i8* %_4, i8** %self.dbg.spill.i, align 8
  call void @llvm.dbg.declare(metadata i8** %self.dbg.spill.i, metadata !262, metadata !DIExpression()), !dbg !271
  store i64 %self.0, i64* %count.dbg.spill.i, align 8
  call void @llvm.dbg.declare(metadata i64* %count.dbg.spill.i, metadata !270, metadata !DIExpression()), !dbg !273
  store i8* %_4, i8** %self.dbg.spill.i.i, align 8
  call void @llvm.dbg.declare(metadata i8** %self.dbg.spill.i.i, metadata !274, metadata !DIExpression()), !dbg !281
  store i64 %self.0, i64* %count.dbg.spill.i.i, align 8
  call void @llvm.dbg.declare(metadata i64* %count.dbg.spill.i.i, metadata !280, metadata !DIExpression()), !dbg !283
  %5 = getelementptr inbounds i8, i8* %_4, i64 %self.0, !dbg !284
  store i8* %5, i8** %0, align 8, !dbg !284
  %6 = load i8*, i8** %0, align 8, !dbg !284
  br label %bb2, !dbg !261

bb2:                                              ; preds = %bb1
  %_7 = sub i64 %self.1, %self.0, !dbg !285
; call core::ptr::slice_from_raw_parts
  %7 = call { [0 x i8]*, i64 } @_ZN4core3ptr20slice_from_raw_parts17hc86f76d7a6485995E(i8* %6, i64 %_7), !dbg !286
  %8 = extractvalue { [0 x i8]*, i64 } %7, 0, !dbg !286
  %9 = extractvalue { [0 x i8]*, i64 } %7, 1, !dbg !286
  br label %bb3, !dbg !286

bb3:                                              ; preds = %bb2
  %10 = insertvalue { [0 x i8]*, i64 } undef, [0 x i8]* %8, 0, !dbg !287
  %11 = insertvalue { [0 x i8]*, i64 } %10, i64 %9, 1, !dbg !287
  ret { [0 x i8]*, i64 } %11, !dbg !287
}

; <core::iter::adapters::enumerate::Enumerate<I> as core::iter::traits::iterator::Iterator>::next
; Function Attrs: inlinehint nounwind
define { i64, i32 } @"_ZN110_$LT$core..iter..adapters..enumerate..Enumerate$LT$I$GT$$u20$as$u20$core..iter..traits..iterator..Iterator$GT$4next17h25a9e1fc1ba2b9adE"(%"core::iter::Enumerate<core::str::Chars>"* align 8 dereferenceable(24) %self) unnamed_addr #0 !dbg !288 {
start:
  %i.dbg.spill = alloca i64, align 8
  %a.dbg.spill = alloca i32, align 4
  %val.dbg.spill = alloca i32, align 4
  %residual.dbg.spill = alloca %"core::option::Option<core::convert::Infallible>::None", align 1
  %self.dbg.spill = alloca %"core::iter::Enumerate<core::str::Chars>"*, align 8
  %_12 = alloca { i64, i32 }, align 8
  %_3 = alloca i32, align 4
  %0 = alloca { i64, i32 }, align 8
  store %"core::iter::Enumerate<core::str::Chars>"* %self, %"core::iter::Enumerate<core::str::Chars>"** %self.dbg.spill, align 8
  call void @llvm.dbg.declare(metadata %"core::iter::Enumerate<core::str::Chars>"** %self.dbg.spill, metadata !324, metadata !DIExpression()), !dbg !341
  call void @llvm.dbg.declare(metadata %"core::option::Option<core::convert::Infallible>::None"* %residual.dbg.spill, metadata !327, metadata !DIExpression()), !dbg !342
  %_5 = bitcast %"core::iter::Enumerate<core::str::Chars>"* %self to { i8*, i8* }*, !dbg !343
; call <core::str::iter::Chars as core::iter::traits::iterator::Iterator>::next
  %_4 = call i32 @"_ZN81_$LT$core..str..iter..Chars$u20$as$u20$core..iter..traits..iterator..Iterator$GT$4next17hb51acee8bd391655E"({ i8*, i8* }* align 8 dereferenceable(16) %_5), !dbg !343, !range !344
  br label %bb1, !dbg !343

bb1:                                              ; preds = %start
; call <core::option::Option<T> as core::ops::try_trait::Try>::branch
  %1 = call i32 @"_ZN75_$LT$core..option..Option$LT$T$GT$$u20$as$u20$core..ops..try_trait..Try$GT$6branch17hedeb98747c67b596E"(i32 %_4), !dbg !343, !range !344
  store i32 %1, i32* %_3, align 4, !dbg !343
  br label %bb2, !dbg !343

bb2:                                              ; preds = %bb1
  %2 = load i32, i32* %_3, align 4, !dbg !343, !range !344
  %3 = sub i32 %2, 1114112, !dbg !343
  %4 = icmp eq i32 %3, 0, !dbg !343
  %_6 = select i1 %4, i64 1, i64 0, !dbg !343
  switch i64 %_6, label %bb4 [
    i64 0, label %bb3
    i64 1, label %bb5
  ], !dbg !343

bb4:                                              ; preds = %bb2
  unreachable, !dbg !343

bb3:                                              ; preds = %bb2
  %val = load i32, i32* %_3, align 4, !dbg !343, !range !345
  store i32 %val, i32* %val.dbg.spill, align 4, !dbg !343
  call void @llvm.dbg.declare(metadata i32* %val.dbg.spill, metadata !337, metadata !DIExpression()), !dbg !346
  store i32 %val, i32* %a.dbg.spill, align 4, !dbg !346
  call void @llvm.dbg.declare(metadata i32* %a.dbg.spill, metadata !325, metadata !DIExpression()), !dbg !347
  %5 = getelementptr inbounds %"core::iter::Enumerate<core::str::Chars>", %"core::iter::Enumerate<core::str::Chars>"* %self, i32 0, i32 1, !dbg !348
  %i = load i64, i64* %5, align 8, !dbg !348
  store i64 %i, i64* %i.dbg.spill, align 8, !dbg !348
  call void @llvm.dbg.declare(metadata i64* %i.dbg.spill, metadata !339, metadata !DIExpression()), !dbg !349
  %6 = getelementptr inbounds %"core::iter::Enumerate<core::str::Chars>", %"core::iter::Enumerate<core::str::Chars>"* %self, i32 0, i32 1, !dbg !350
  %7 = load i64, i64* %6, align 8, !dbg !350
  %8 = call { i64, i1 } @llvm.uadd.with.overflow.i64(i64 %7, i64 1), !dbg !350
  %_11.0 = extractvalue { i64, i1 } %8, 0, !dbg !350
  %_11.1 = extractvalue { i64, i1 } %8, 1, !dbg !350
  %9 = call i1 @llvm.expect.i1(i1 %_11.1, i1 false), !dbg !350
  br i1 %9, label %panic, label %bb7, !dbg !350

bb5:                                              ; preds = %bb2
; call <core::option::Option<T> as core::ops::try_trait::FromResidual>::from_residual
  %10 = call { i64, i32 } @"_ZN84_$LT$core..option..Option$LT$T$GT$$u20$as$u20$core..ops..try_trait..FromResidual$GT$13from_residual17he188c053a388e2b1E"(), !dbg !351
  store { i64, i32 } %10, { i64, i32 }* %0, align 8, !dbg !351
  br label %bb6, !dbg !351

bb6:                                              ; preds = %bb5
  br label %bb8, !dbg !352

bb8:                                              ; preds = %bb7, %bb6
  %11 = getelementptr inbounds { i64, i32 }, { i64, i32 }* %0, i32 0, i32 0, !dbg !352
  %12 = load i64, i64* %11, align 8, !dbg !352
  %13 = getelementptr inbounds { i64, i32 }, { i64, i32 }* %0, i32 0, i32 1, !dbg !352
  %14 = load i32, i32* %13, align 8, !dbg !352, !range !344
  %15 = insertvalue { i64, i32 } undef, i64 %12, 0, !dbg !352
  %16 = insertvalue { i64, i32 } %15, i32 %14, 1, !dbg !352
  ret { i64, i32 } %16, !dbg !352

bb7:                                              ; preds = %bb3
  %17 = getelementptr inbounds %"core::iter::Enumerate<core::str::Chars>", %"core::iter::Enumerate<core::str::Chars>"* %self, i32 0, i32 1, !dbg !350
  store i64 %_11.0, i64* %17, align 8, !dbg !350
  %18 = bitcast { i64, i32 }* %_12 to i64*, !dbg !353
  store i64 %i, i64* %18, align 8, !dbg !353
  %19 = getelementptr inbounds { i64, i32 }, { i64, i32 }* %_12, i32 0, i32 1, !dbg !353
  store i32 %val, i32* %19, align 8, !dbg !353
  %20 = getelementptr inbounds { i64, i32 }, { i64, i32 }* %_12, i32 0, i32 0, !dbg !354
  %21 = load i64, i64* %20, align 8, !dbg !354
  %22 = getelementptr inbounds { i64, i32 }, { i64, i32 }* %_12, i32 0, i32 1, !dbg !354
  %23 = load i32, i32* %22, align 8, !dbg !354, !range !345
  %24 = getelementptr inbounds { i64, i32 }, { i64, i32 }* %0, i32 0, i32 0, !dbg !354
  store i64 %21, i64* %24, align 8, !dbg !354
  %25 = getelementptr inbounds { i64, i32 }, { i64, i32 }* %0, i32 0, i32 1, !dbg !354
  store i32 %23, i32* %25, align 8, !dbg !354
  br label %bb8, !dbg !352

panic:                                            ; preds = %bb3
; call core::panicking::panic
  call void @_ZN4core9panicking5panic17h560e3e4b7752857aE([0 x i8]* nonnull align 1 bitcast ([28 x i8]* @str.0 to [0 x i8]*), i64 28, %"core::panic::Location"* align 8 dereferenceable(24) bitcast (<{ i8*, [16 x i8] }>* @alloc2942 to %"core::panic::Location"*)), !dbg !350
  unreachable, !dbg !350
}

; <core::ops::range::RangeFrom<usize> as core::slice::index::SliceIndex<[T]>>::get_unchecked
; Function Attrs: inlinehint nounwind
define { [0 x i8]*, i64 } @"_ZN110_$LT$core..ops..range..RangeFrom$LT$usize$GT$$u20$as$u20$core..slice..index..SliceIndex$LT$$u5b$T$u5d$$GT$$GT$13get_unchecked17hb65db3c83737715cE"(i64 %self, [0 x i8]* %slice.0, i64 %slice.1) unnamed_addr #0 !dbg !355 {
start:
  %slice.dbg.spill = alloca { [0 x i8]*, i64 }, align 8
  %self.dbg.spill = alloca i64, align 8
  %_3 = alloca { i64, i64 }, align 8
  store i64 %self, i64* %self.dbg.spill, align 8
  call void @llvm.dbg.declare(metadata i64* %self.dbg.spill, metadata !363, metadata !DIExpression()), !dbg !365
  %0 = getelementptr inbounds { [0 x i8]*, i64 }, { [0 x i8]*, i64 }* %slice.dbg.spill, i32 0, i32 0
  store [0 x i8]* %slice.0, [0 x i8]** %0, align 8
  %1 = getelementptr inbounds { [0 x i8]*, i64 }, { [0 x i8]*, i64 }* %slice.dbg.spill, i32 0, i32 1
  store i64 %slice.1, i64* %1, align 8
  call void @llvm.dbg.declare(metadata { [0 x i8]*, i64 }* %slice.dbg.spill, metadata !364, metadata !DIExpression()), !dbg !366
; call core::ptr::const_ptr::<impl *const [T]>::len
  %_5 = call i64 @"_ZN4core3ptr9const_ptr43_$LT$impl$u20$$BP$const$u20$$u5b$T$u5d$$GT$3len17hec0269ed6419e823E"([0 x i8]* %slice.0, i64 %slice.1), !dbg !367
  br label %bb1, !dbg !367

bb1:                                              ; preds = %start
  %2 = bitcast { i64, i64 }* %_3 to i64*, !dbg !368
  store i64 %self, i64* %2, align 8, !dbg !368
  %3 = getelementptr inbounds { i64, i64 }, { i64, i64 }* %_3, i32 0, i32 1, !dbg !368
  store i64 %_5, i64* %3, align 8, !dbg !368
  %4 = getelementptr inbounds { i64, i64 }, { i64, i64 }* %_3, i32 0, i32 0, !dbg !368
  %5 = load i64, i64* %4, align 8, !dbg !368
  %6 = getelementptr inbounds { i64, i64 }, { i64, i64 }* %_3, i32 0, i32 1, !dbg !368
  %7 = load i64, i64* %6, align 8, !dbg !368
; call <core::ops::range::Range<usize> as core::slice::index::SliceIndex<[T]>>::get_unchecked
  %8 = call { [0 x i8]*, i64 } @"_ZN106_$LT$core..ops..range..Range$LT$usize$GT$$u20$as$u20$core..slice..index..SliceIndex$LT$$u5b$T$u5d$$GT$$GT$13get_unchecked17h15708020735db847E"(i64 %5, i64 %7, [0 x i8]* %slice.0, i64 %slice.1), !dbg !368
  %9 = extractvalue { [0 x i8]*, i64 } %8, 0, !dbg !368
  %10 = extractvalue { [0 x i8]*, i64 } %8, 1, !dbg !368
  br label %bb2, !dbg !368

bb2:                                              ; preds = %bb1
  %11 = insertvalue { [0 x i8]*, i64 } undef, [0 x i8]* %9, 0, !dbg !369
  %12 = insertvalue { [0 x i8]*, i64 } %11, i64 %10, 1, !dbg !369
  ret { [0 x i8]*, i64 } %12, !dbg !369
}

; <core::ops::range::RangeFrom<usize> as core::slice::index::SliceIndex<[T]>>::index
; Function Attrs: inlinehint nounwind
define { [0 x i8]*, i64 } @"_ZN110_$LT$core..ops..range..RangeFrom$LT$usize$GT$$u20$as$u20$core..slice..index..SliceIndex$LT$$u5b$T$u5d$$GT$$GT$5index17h9c2d9b358cf72ee1E"(i64 %self, [0 x i8]* nonnull align 1 %slice.0, i64 %slice.1, %"core::panic::Location"* align 8 dereferenceable(24) %0) unnamed_addr #0 !dbg !370 {
start:
  %slice.dbg.spill = alloca { [0 x i8]*, i64 }, align 8
  %self.dbg.spill = alloca i64, align 8
  store i64 %self, i64* %self.dbg.spill, align 8
  call void @llvm.dbg.declare(metadata i64* %self.dbg.spill, metadata !390, metadata !DIExpression()), !dbg !392
  %1 = getelementptr inbounds { [0 x i8]*, i64 }, { [0 x i8]*, i64 }* %slice.dbg.spill, i32 0, i32 0
  store [0 x i8]* %slice.0, [0 x i8]** %1, align 8
  %2 = getelementptr inbounds { [0 x i8]*, i64 }, { [0 x i8]*, i64 }* %slice.dbg.spill, i32 0, i32 1
  store i64 %slice.1, i64* %2, align 8
  call void @llvm.dbg.declare(metadata { [0 x i8]*, i64 }* %slice.dbg.spill, metadata !391, metadata !DIExpression()), !dbg !393
  %_3 = icmp ugt i64 %self, %slice.1, !dbg !394
  br i1 %_3, label %bb1, label %bb2, !dbg !394

bb2:                                              ; preds = %start
; call <core::ops::range::RangeFrom<usize> as core::slice::index::SliceIndex<[T]>>::get_unchecked
  %3 = call { [0 x i8]*, i64 } @"_ZN110_$LT$core..ops..range..RangeFrom$LT$usize$GT$$u20$as$u20$core..slice..index..SliceIndex$LT$$u5b$T$u5d$$GT$$GT$13get_unchecked17hb65db3c83737715cE"(i64 %self, [0 x i8]* %slice.0, i64 %slice.1), !dbg !395
  %_10.0 = extractvalue { [0 x i8]*, i64 } %3, 0, !dbg !395
  %_10.1 = extractvalue { [0 x i8]*, i64 } %3, 1, !dbg !395
  br label %bb3, !dbg !395

bb1:                                              ; preds = %start
; call core::slice::index::slice_start_index_len_fail
  call void @_ZN4core5slice5index26slice_start_index_len_fail17h09af85f858e7356bE(i64 %self, i64 %slice.1, %"core::panic::Location"* align 8 dereferenceable(24) %0), !dbg !396
  unreachable, !dbg !396

bb3:                                              ; preds = %bb2
  %4 = insertvalue { [0 x i8]*, i64 } undef, [0 x i8]* %_10.0, 0, !dbg !397
  %5 = insertvalue { [0 x i8]*, i64 } %4, i64 %_10.1, 1, !dbg !397
  ret { [0 x i8]*, i64 } %5, !dbg !397
}

; <core::iter::adapters::zip::Zip<A,B> as core::iter::adapters::zip::ZipImpl<A,B>>::new
; Function Attrs: nounwind
define void @"_ZN111_$LT$core..iter..adapters..zip..Zip$LT$A$C$B$GT$$u20$as$u20$core..iter..adapters..zip..ZipImpl$LT$A$C$B$GT$$GT$3new17h7d9e762bf9c54f99E"(%"core::iter::Zip<core::slice::Iter<u8>, core::slice::Iter<u8>>"* noalias nocapture sret(%"core::iter::Zip<core::slice::Iter<u8>, core::slice::Iter<u8>>") dereferenceable(56) %0, i8* nonnull %1, i8* %2, i8* nonnull %3, i8* %4) unnamed_addr #1 !dbg !398 {
start:
  %len.dbg.spill = alloca i64, align 8
  %a_len.dbg.spill = alloca i64, align 8
  %b = alloca { i8*, i8* }, align 8
  %a = alloca { i8*, i8* }, align 8
  %5 = getelementptr inbounds { i8*, i8* }, { i8*, i8* }* %a, i32 0, i32 0
  store i8* %1, i8** %5, align 8
  %6 = getelementptr inbounds { i8*, i8* }, { i8*, i8* }* %a, i32 0, i32 1
  store i8* %2, i8** %6, align 8
  %7 = getelementptr inbounds { i8*, i8* }, { i8*, i8* }* %b, i32 0, i32 0
  store i8* %3, i8** %7, align 8
  %8 = getelementptr inbounds { i8*, i8* }, { i8*, i8* }* %b, i32 0, i32 1
  store i8* %4, i8** %8, align 8
  call void @llvm.dbg.declare(metadata { i8*, i8* }* %a, metadata !403, metadata !DIExpression()), !dbg !409
  call void @llvm.dbg.declare(metadata { i8*, i8* }* %b, metadata !404, metadata !DIExpression()), !dbg !410
; call core::iter::adapters::zip::TrustedRandomAccessNoCoerce::size
  %a_len = call i64 @_ZN4core4iter8adapters3zip27TrustedRandomAccessNoCoerce4size17h0fedc2414066c9baE({ i8*, i8* }* align 8 dereferenceable(16) %a), !dbg !411
  store i64 %a_len, i64* %a_len.dbg.spill, align 8, !dbg !411
  call void @llvm.dbg.declare(metadata i64* %a_len.dbg.spill, metadata !405, metadata !DIExpression()), !dbg !412
  br label %bb1, !dbg !411

bb1:                                              ; preds = %start
; call core::iter::adapters::zip::TrustedRandomAccessNoCoerce::size
  %_7 = call i64 @_ZN4core4iter8adapters3zip27TrustedRandomAccessNoCoerce4size17h0fedc2414066c9baE({ i8*, i8* }* align 8 dereferenceable(16) %b), !dbg !413
  br label %bb2, !dbg !413

bb2:                                              ; preds = %bb1
; call core::cmp::min
  %len = call i64 @_ZN4core3cmp3min17hd0c19dbaf1480053E(i64 %a_len, i64 %_7), !dbg !414
  store i64 %len, i64* %len.dbg.spill, align 8, !dbg !414
  call void @llvm.dbg.declare(metadata i64* %len.dbg.spill, metadata !407, metadata !DIExpression()), !dbg !415
  br label %bb3, !dbg !414

bb3:                                              ; preds = %bb2
  %9 = getelementptr inbounds { i8*, i8* }, { i8*, i8* }* %a, i32 0, i32 0, !dbg !416
  %_9.0 = load i8*, i8** %9, align 8, !dbg !416, !nonnull !4
  %10 = getelementptr inbounds { i8*, i8* }, { i8*, i8* }* %a, i32 0, i32 1, !dbg !416
  %_9.1 = load i8*, i8** %10, align 8, !dbg !416
  %11 = getelementptr inbounds { i8*, i8* }, { i8*, i8* }* %b, i32 0, i32 0, !dbg !417
  %_10.0 = load i8*, i8** %11, align 8, !dbg !417, !nonnull !4
  %12 = getelementptr inbounds { i8*, i8* }, { i8*, i8* }* %b, i32 0, i32 1, !dbg !417
  %_10.1 = load i8*, i8** %12, align 8, !dbg !417
  %13 = bitcast %"core::iter::Zip<core::slice::Iter<u8>, core::slice::Iter<u8>>"* %0 to { i8*, i8* }*, !dbg !418
  %14 = getelementptr inbounds { i8*, i8* }, { i8*, i8* }* %13, i32 0, i32 0, !dbg !418
  store i8* %_9.0, i8** %14, align 8, !dbg !418
  %15 = getelementptr inbounds { i8*, i8* }, { i8*, i8* }* %13, i32 0, i32 1, !dbg !418
  store i8* %_9.1, i8** %15, align 8, !dbg !418
  %16 = getelementptr inbounds %"core::iter::Zip<core::slice::Iter<u8>, core::slice::Iter<u8>>", %"core::iter::Zip<core::slice::Iter<u8>, core::slice::Iter<u8>>"* %0, i32 0, i32 1, !dbg !418
  %17 = getelementptr inbounds { i8*, i8* }, { i8*, i8* }* %16, i32 0, i32 0, !dbg !418
  store i8* %_10.0, i8** %17, align 8, !dbg !418
  %18 = getelementptr inbounds { i8*, i8* }, { i8*, i8* }* %16, i32 0, i32 1, !dbg !418
  store i8* %_10.1, i8** %18, align 8, !dbg !418
  %19 = getelementptr inbounds %"core::iter::Zip<core::slice::Iter<u8>, core::slice::Iter<u8>>", %"core::iter::Zip<core::slice::Iter<u8>, core::slice::Iter<u8>>"* %0, i32 0, i32 2, !dbg !418
  store i64 0, i64* %19, align 8, !dbg !418
  %20 = getelementptr inbounds %"core::iter::Zip<core::slice::Iter<u8>, core::slice::Iter<u8>>", %"core::iter::Zip<core::slice::Iter<u8>, core::slice::Iter<u8>>"* %0, i32 0, i32 3, !dbg !418
  store i64 %len, i64* %20, align 8, !dbg !418
  %21 = getelementptr inbounds %"core::iter::Zip<core::slice::Iter<u8>, core::slice::Iter<u8>>", %"core::iter::Zip<core::slice::Iter<u8>, core::slice::Iter<u8>>"* %0, i32 0, i32 4, !dbg !418
  store i64 %a_len, i64* %21, align 8, !dbg !418
  ret void, !dbg !419
}

; <core::iter::adapters::zip::Zip<A,B> as core::iter::adapters::zip::ZipImpl<A,B>>::new
; Function Attrs: nounwind
define void @"_ZN111_$LT$core..iter..adapters..zip..Zip$LT$A$C$B$GT$$u20$as$u20$core..iter..adapters..zip..ZipImpl$LT$A$C$B$GT$$GT$3new17hb72b2badc854bf7fE"(%"core::iter::Zip<core::str::Bytes, core::str::Bytes>"* noalias nocapture sret(%"core::iter::Zip<core::str::Bytes, core::str::Bytes>") dereferenceable(56) %0, i8* nonnull %1, i8* %2, i8* nonnull %3, i8* %4) unnamed_addr #1 !dbg !420 {
start:
  %len.dbg.spill = alloca i64, align 8
  %a_len.dbg.spill = alloca i64, align 8
  %b = alloca { i8*, i8* }, align 8
  %a = alloca { i8*, i8* }, align 8
  %5 = getelementptr inbounds { i8*, i8* }, { i8*, i8* }* %a, i32 0, i32 0
  store i8* %1, i8** %5, align 8
  %6 = getelementptr inbounds { i8*, i8* }, { i8*, i8* }* %a, i32 0, i32 1
  store i8* %2, i8** %6, align 8
  %7 = getelementptr inbounds { i8*, i8* }, { i8*, i8* }* %b, i32 0, i32 0
  store i8* %3, i8** %7, align 8
  %8 = getelementptr inbounds { i8*, i8* }, { i8*, i8* }* %b, i32 0, i32 1
  store i8* %4, i8** %8, align 8
  call void @llvm.dbg.declare(metadata { i8*, i8* }* %a, metadata !424, metadata !DIExpression()), !dbg !430
  call void @llvm.dbg.declare(metadata { i8*, i8* }* %b, metadata !425, metadata !DIExpression()), !dbg !431
; call core::iter::adapters::zip::TrustedRandomAccessNoCoerce::size
  %a_len = call i64 @_ZN4core4iter8adapters3zip27TrustedRandomAccessNoCoerce4size17h19b34300de56c82fE({ i8*, i8* }* align 8 dereferenceable(16) %a), !dbg !432
  store i64 %a_len, i64* %a_len.dbg.spill, align 8, !dbg !432
  call void @llvm.dbg.declare(metadata i64* %a_len.dbg.spill, metadata !426, metadata !DIExpression()), !dbg !433
  br label %bb1, !dbg !432

bb1:                                              ; preds = %start
; call core::iter::adapters::zip::TrustedRandomAccessNoCoerce::size
  %_7 = call i64 @_ZN4core4iter8adapters3zip27TrustedRandomAccessNoCoerce4size17h19b34300de56c82fE({ i8*, i8* }* align 8 dereferenceable(16) %b), !dbg !434
  br label %bb2, !dbg !434

bb2:                                              ; preds = %bb1
; call core::cmp::min
  %len = call i64 @_ZN4core3cmp3min17hd0c19dbaf1480053E(i64 %a_len, i64 %_7), !dbg !435
  store i64 %len, i64* %len.dbg.spill, align 8, !dbg !435
  call void @llvm.dbg.declare(metadata i64* %len.dbg.spill, metadata !428, metadata !DIExpression()), !dbg !436
  br label %bb3, !dbg !435

bb3:                                              ; preds = %bb2
  %9 = getelementptr inbounds { i8*, i8* }, { i8*, i8* }* %a, i32 0, i32 0, !dbg !437
  %_9.0 = load i8*, i8** %9, align 8, !dbg !437, !nonnull !4
  %10 = getelementptr inbounds { i8*, i8* }, { i8*, i8* }* %a, i32 0, i32 1, !dbg !437
  %_9.1 = load i8*, i8** %10, align 8, !dbg !437
  %11 = getelementptr inbounds { i8*, i8* }, { i8*, i8* }* %b, i32 0, i32 0, !dbg !438
  %_10.0 = load i8*, i8** %11, align 8, !dbg !438, !nonnull !4
  %12 = getelementptr inbounds { i8*, i8* }, { i8*, i8* }* %b, i32 0, i32 1, !dbg !438
  %_10.1 = load i8*, i8** %12, align 8, !dbg !438
  %13 = bitcast %"core::iter::Zip<core::str::Bytes, core::str::Bytes>"* %0 to { i8*, i8* }*, !dbg !439
  %14 = getelementptr inbounds { i8*, i8* }, { i8*, i8* }* %13, i32 0, i32 0, !dbg !439
  store i8* %_9.0, i8** %14, align 8, !dbg !439
  %15 = getelementptr inbounds { i8*, i8* }, { i8*, i8* }* %13, i32 0, i32 1, !dbg !439
  store i8* %_9.1, i8** %15, align 8, !dbg !439
  %16 = getelementptr inbounds %"core::iter::Zip<core::str::Bytes, core::str::Bytes>", %"core::iter::Zip<core::str::Bytes, core::str::Bytes>"* %0, i32 0, i32 1, !dbg !439
  %17 = getelementptr inbounds { i8*, i8* }, { i8*, i8* }* %16, i32 0, i32 0, !dbg !439
  store i8* %_10.0, i8** %17, align 8, !dbg !439
  %18 = getelementptr inbounds { i8*, i8* }, { i8*, i8* }* %16, i32 0, i32 1, !dbg !439
  store i8* %_10.1, i8** %18, align 8, !dbg !439
  %19 = getelementptr inbounds %"core::iter::Zip<core::str::Bytes, core::str::Bytes>", %"core::iter::Zip<core::str::Bytes, core::str::Bytes>"* %0, i32 0, i32 2, !dbg !439
  store i64 0, i64* %19, align 8, !dbg !439
  %20 = getelementptr inbounds %"core::iter::Zip<core::str::Bytes, core::str::Bytes>", %"core::iter::Zip<core::str::Bytes, core::str::Bytes>"* %0, i32 0, i32 3, !dbg !439
  store i64 %len, i64* %20, align 8, !dbg !439
  %21 = getelementptr inbounds %"core::iter::Zip<core::str::Bytes, core::str::Bytes>", %"core::iter::Zip<core::str::Bytes, core::str::Bytes>"* %0, i32 0, i32 4, !dbg !439
  store i64 %a_len, i64* %21, align 8, !dbg !439
  ret void, !dbg !440
}

; <core::iter::adapters::zip::Zip<A,B> as core::iter::adapters::zip::ZipImpl<A,B>>::next
; Function Attrs: inlinehint nounwind
define { i8*, i8* } @"_ZN111_$LT$core..iter..adapters..zip..Zip$LT$A$C$B$GT$$u20$as$u20$core..iter..adapters..zip..ZipImpl$LT$A$C$B$GT$$GT$4next17h3d63ccb7f72d129fE"(%"core::iter::Zip<core::slice::Iter<u8>, core::slice::Iter<u8>>"* align 8 dereferenceable(56) %self) unnamed_addr #0 !dbg !441 {
start:
  %i.dbg.spill2 = alloca i64, align 8
  %i.dbg.spill = alloca i64, align 8
  %self.dbg.spill = alloca %"core::iter::Zip<core::slice::Iter<u8>, core::slice::Iter<u8>>"*, align 8
  %_13 = alloca i8, align 1
  %_6 = alloca { i8*, i8* }, align 8
  %0 = alloca { i8*, i8* }, align 8
  store %"core::iter::Zip<core::slice::Iter<u8>, core::slice::Iter<u8>>"* %self, %"core::iter::Zip<core::slice::Iter<u8>, core::slice::Iter<u8>>"** %self.dbg.spill, align 8
  call void @llvm.dbg.declare(metadata %"core::iter::Zip<core::slice::Iter<u8>, core::slice::Iter<u8>>"** %self.dbg.spill, metadata !443, metadata !DIExpression()), !dbg !448
  %1 = getelementptr inbounds %"core::iter::Zip<core::slice::Iter<u8>, core::slice::Iter<u8>>", %"core::iter::Zip<core::slice::Iter<u8>, core::slice::Iter<u8>>"* %self, i32 0, i32 2, !dbg !449
  %_3 = load i64, i64* %1, align 8, !dbg !449
  %2 = getelementptr inbounds %"core::iter::Zip<core::slice::Iter<u8>, core::slice::Iter<u8>>", %"core::iter::Zip<core::slice::Iter<u8>, core::slice::Iter<u8>>"* %self, i32 0, i32 3, !dbg !450
  %_4 = load i64, i64* %2, align 8, !dbg !450
  %_2 = icmp ult i64 %_3, %_4, !dbg !449
  br i1 %_2, label %bb1, label %bb4, !dbg !449

bb4:                                              ; preds = %start
  br i1 false, label %bb6, label %bb5, !dbg !451

bb1:                                              ; preds = %start
  %3 = getelementptr inbounds %"core::iter::Zip<core::slice::Iter<u8>, core::slice::Iter<u8>>", %"core::iter::Zip<core::slice::Iter<u8>, core::slice::Iter<u8>>"* %self, i32 0, i32 2, !dbg !452
  %i = load i64, i64* %3, align 8, !dbg !452
  store i64 %i, i64* %i.dbg.spill, align 8, !dbg !452
  call void @llvm.dbg.declare(metadata i64* %i.dbg.spill, metadata !444, metadata !DIExpression()), !dbg !453
  %4 = getelementptr inbounds %"core::iter::Zip<core::slice::Iter<u8>, core::slice::Iter<u8>>", %"core::iter::Zip<core::slice::Iter<u8>, core::slice::Iter<u8>>"* %self, i32 0, i32 2, !dbg !454
  %5 = getelementptr inbounds %"core::iter::Zip<core::slice::Iter<u8>, core::slice::Iter<u8>>", %"core::iter::Zip<core::slice::Iter<u8>, core::slice::Iter<u8>>"* %self, i32 0, i32 2, !dbg !454
  %6 = load i64, i64* %5, align 8, !dbg !454
  %7 = add i64 %6, 1, !dbg !454
  store i64 %7, i64* %4, align 8, !dbg !454
  %_8 = bitcast %"core::iter::Zip<core::slice::Iter<u8>, core::slice::Iter<u8>>"* %self to { i8*, i8* }*, !dbg !455
; call <core::slice::iter::Iter<T> as core::iter::traits::iterator::Iterator>::__iterator_get_unchecked
  %_7 = call align 1 dereferenceable(1) i8* @"_ZN91_$LT$core..slice..iter..Iter$LT$T$GT$$u20$as$u20$core..iter..traits..iterator..Iterator$GT$24__iterator_get_unchecked17h8656049b9fe6bb4cE"({ i8*, i8* }* align 8 dereferenceable(16) %_8, i64 %i), !dbg !455
  br label %bb2, !dbg !455

bb2:                                              ; preds = %bb1
  %_11 = getelementptr inbounds %"core::iter::Zip<core::slice::Iter<u8>, core::slice::Iter<u8>>", %"core::iter::Zip<core::slice::Iter<u8>, core::slice::Iter<u8>>"* %self, i32 0, i32 1, !dbg !456
; call <core::slice::iter::Iter<T> as core::iter::traits::iterator::Iterator>::__iterator_get_unchecked
  %_10 = call align 1 dereferenceable(1) i8* @"_ZN91_$LT$core..slice..iter..Iter$LT$T$GT$$u20$as$u20$core..iter..traits..iterator..Iterator$GT$24__iterator_get_unchecked17h8656049b9fe6bb4cE"({ i8*, i8* }* align 8 dereferenceable(16) %_11, i64 %i), !dbg !456
  br label %bb3, !dbg !456

bb3:                                              ; preds = %bb2
  %8 = bitcast { i8*, i8* }* %_6 to i8**, !dbg !457
  store i8* %_7, i8** %8, align 8, !dbg !457
  %9 = getelementptr inbounds { i8*, i8* }, { i8*, i8* }* %_6, i32 0, i32 1, !dbg !457
  store i8* %_10, i8** %9, align 8, !dbg !457
  %10 = getelementptr inbounds { i8*, i8* }, { i8*, i8* }* %_6, i32 0, i32 0, !dbg !458
  %11 = load i8*, i8** %10, align 8, !dbg !458, !nonnull !4
  %12 = getelementptr inbounds { i8*, i8* }, { i8*, i8* }* %_6, i32 0, i32 1, !dbg !458
  %13 = load i8*, i8** %12, align 8, !dbg !458, !nonnull !4
  %14 = getelementptr inbounds { i8*, i8* }, { i8*, i8* }* %0, i32 0, i32 0, !dbg !458
  store i8* %11, i8** %14, align 8, !dbg !458
  %15 = getelementptr inbounds { i8*, i8* }, { i8*, i8* }* %0, i32 0, i32 1, !dbg !458
  store i8* %13, i8** %15, align 8, !dbg !458
  br label %bb13, !dbg !459

bb13:                                             ; preds = %bb12, %bb3
  %16 = getelementptr inbounds { i8*, i8* }, { i8*, i8* }* %0, i32 0, i32 0, !dbg !460
  %17 = load i8*, i8** %16, align 8, !dbg !460
  %18 = getelementptr inbounds { i8*, i8* }, { i8*, i8* }* %0, i32 0, i32 1, !dbg !460
  %19 = load i8*, i8** %18, align 8, !dbg !460
  %20 = insertvalue { i8*, i8* } undef, i8* %17, 0, !dbg !460
  %21 = insertvalue { i8*, i8* } %20, i8* %19, 1, !dbg !460
  ret { i8*, i8* } %21, !dbg !460

bb5:                                              ; preds = %bb4
  store i8 0, i8* %_13, align 1, !dbg !451
  br label %bb7, !dbg !451

bb6:                                              ; preds = %bb4
  %22 = getelementptr inbounds %"core::iter::Zip<core::slice::Iter<u8>, core::slice::Iter<u8>>", %"core::iter::Zip<core::slice::Iter<u8>, core::slice::Iter<u8>>"* %self, i32 0, i32 2, !dbg !461
  %_15 = load i64, i64* %22, align 8, !dbg !461
  %23 = getelementptr inbounds %"core::iter::Zip<core::slice::Iter<u8>, core::slice::Iter<u8>>", %"core::iter::Zip<core::slice::Iter<u8>, core::slice::Iter<u8>>"* %self, i32 0, i32 4, !dbg !462
  %_16 = load i64, i64* %23, align 8, !dbg !462
  %_14 = icmp ult i64 %_15, %_16, !dbg !461
  %24 = zext i1 %_14 to i8, !dbg !451
  store i8 %24, i8* %_13, align 1, !dbg !451
  br label %bb7, !dbg !451

bb7:                                              ; preds = %bb5, %bb6
  %25 = load i8, i8* %_13, align 1, !dbg !451, !range !238
  %26 = trunc i8 %25 to i1, !dbg !451
  br i1 %26, label %bb8, label %bb11, !dbg !451

bb11:                                             ; preds = %bb7
  %27 = bitcast { i8*, i8* }* %0 to {}**, !dbg !463
  store {}* null, {}** %27, align 8, !dbg !463
  br label %bb12, !dbg !464

bb8:                                              ; preds = %bb7
  %28 = getelementptr inbounds %"core::iter::Zip<core::slice::Iter<u8>, core::slice::Iter<u8>>", %"core::iter::Zip<core::slice::Iter<u8>, core::slice::Iter<u8>>"* %self, i32 0, i32 2, !dbg !465
  %i1 = load i64, i64* %28, align 8, !dbg !465
  store i64 %i1, i64* %i.dbg.spill2, align 8, !dbg !465
  call void @llvm.dbg.declare(metadata i64* %i.dbg.spill2, metadata !446, metadata !DIExpression()), !dbg !466
  %29 = getelementptr inbounds %"core::iter::Zip<core::slice::Iter<u8>, core::slice::Iter<u8>>", %"core::iter::Zip<core::slice::Iter<u8>, core::slice::Iter<u8>>"* %self, i32 0, i32 2, !dbg !467
  %30 = getelementptr inbounds %"core::iter::Zip<core::slice::Iter<u8>, core::slice::Iter<u8>>", %"core::iter::Zip<core::slice::Iter<u8>, core::slice::Iter<u8>>"* %self, i32 0, i32 2, !dbg !467
  %31 = load i64, i64* %30, align 8, !dbg !467
  %32 = add i64 %31, 1, !dbg !467
  store i64 %32, i64* %29, align 8, !dbg !467
  %33 = getelementptr inbounds %"core::iter::Zip<core::slice::Iter<u8>, core::slice::Iter<u8>>", %"core::iter::Zip<core::slice::Iter<u8>, core::slice::Iter<u8>>"* %self, i32 0, i32 3, !dbg !468
  %34 = getelementptr inbounds %"core::iter::Zip<core::slice::Iter<u8>, core::slice::Iter<u8>>", %"core::iter::Zip<core::slice::Iter<u8>, core::slice::Iter<u8>>"* %self, i32 0, i32 3, !dbg !468
  %35 = load i64, i64* %34, align 8, !dbg !468
  %36 = add i64 %35, 1, !dbg !468
  store i64 %36, i64* %33, align 8, !dbg !468
  %_19 = bitcast %"core::iter::Zip<core::slice::Iter<u8>, core::slice::Iter<u8>>"* %self to { i8*, i8* }*, !dbg !469
; call <core::slice::iter::Iter<T> as core::iter::traits::iterator::Iterator>::__iterator_get_unchecked
  %_18 = call align 1 dereferenceable(1) i8* @"_ZN91_$LT$core..slice..iter..Iter$LT$T$GT$$u20$as$u20$core..iter..traits..iterator..Iterator$GT$24__iterator_get_unchecked17h8656049b9fe6bb4cE"({ i8*, i8* }* align 8 dereferenceable(16) %_19, i64 %i1), !dbg !469
  br label %bb9, !dbg !469

bb9:                                              ; preds = %bb8
  br label %bb10, !dbg !470

bb10:                                             ; preds = %bb9
  %37 = bitcast { i8*, i8* }* %0 to {}**, !dbg !471
  store {}* null, {}** %37, align 8, !dbg !471
  br label %bb12, !dbg !464

bb12:                                             ; preds = %bb11, %bb10
  br label %bb13, !dbg !459
}

; <core::iter::adapters::zip::Zip<A,B> as core::iter::adapters::zip::ZipImpl<A,B>>::next
; Function Attrs: inlinehint nounwind
define i24 @"_ZN111_$LT$core..iter..adapters..zip..Zip$LT$A$C$B$GT$$u20$as$u20$core..iter..adapters..zip..ZipImpl$LT$A$C$B$GT$$GT$4next17h5d88cd68a95ed554E"(%"core::iter::Zip<core::str::Bytes, core::str::Bytes>"* align 8 dereferenceable(56) %self) unnamed_addr #0 !dbg !472 {
start:
  %i.dbg.spill2 = alloca i64, align 8
  %i.dbg.spill = alloca i64, align 8
  %self.dbg.spill = alloca %"core::iter::Zip<core::str::Bytes, core::str::Bytes>"*, align 8
  %_13 = alloca i8, align 1
  %_6 = alloca { i8, i8 }, align 1
  %0 = alloca %"core::option::Option<(u8, u8)>", align 1
  store %"core::iter::Zip<core::str::Bytes, core::str::Bytes>"* %self, %"core::iter::Zip<core::str::Bytes, core::str::Bytes>"** %self.dbg.spill, align 8
  call void @llvm.dbg.declare(metadata %"core::iter::Zip<core::str::Bytes, core::str::Bytes>"** %self.dbg.spill, metadata !474, metadata !DIExpression()), !dbg !479
  %1 = getelementptr inbounds %"core::iter::Zip<core::str::Bytes, core::str::Bytes>", %"core::iter::Zip<core::str::Bytes, core::str::Bytes>"* %self, i32 0, i32 2, !dbg !480
  %_3 = load i64, i64* %1, align 8, !dbg !480
  %2 = getelementptr inbounds %"core::iter::Zip<core::str::Bytes, core::str::Bytes>", %"core::iter::Zip<core::str::Bytes, core::str::Bytes>"* %self, i32 0, i32 3, !dbg !481
  %_4 = load i64, i64* %2, align 8, !dbg !481
  %_2 = icmp ult i64 %_3, %_4, !dbg !480
  br i1 %_2, label %bb1, label %bb4, !dbg !480

bb4:                                              ; preds = %start
  br i1 false, label %bb6, label %bb5, !dbg !482

bb1:                                              ; preds = %start
  %3 = getelementptr inbounds %"core::iter::Zip<core::str::Bytes, core::str::Bytes>", %"core::iter::Zip<core::str::Bytes, core::str::Bytes>"* %self, i32 0, i32 2, !dbg !483
  %i = load i64, i64* %3, align 8, !dbg !483
  store i64 %i, i64* %i.dbg.spill, align 8, !dbg !483
  call void @llvm.dbg.declare(metadata i64* %i.dbg.spill, metadata !475, metadata !DIExpression()), !dbg !484
  %4 = getelementptr inbounds %"core::iter::Zip<core::str::Bytes, core::str::Bytes>", %"core::iter::Zip<core::str::Bytes, core::str::Bytes>"* %self, i32 0, i32 2, !dbg !485
  %5 = getelementptr inbounds %"core::iter::Zip<core::str::Bytes, core::str::Bytes>", %"core::iter::Zip<core::str::Bytes, core::str::Bytes>"* %self, i32 0, i32 2, !dbg !485
  %6 = load i64, i64* %5, align 8, !dbg !485
  %7 = add i64 %6, 1, !dbg !485
  store i64 %7, i64* %4, align 8, !dbg !485
  %_8 = bitcast %"core::iter::Zip<core::str::Bytes, core::str::Bytes>"* %self to { i8*, i8* }*, !dbg !486
; call <core::str::iter::Bytes as core::iter::traits::iterator::Iterator>::__iterator_get_unchecked
  %_7 = call i8 @"_ZN81_$LT$core..str..iter..Bytes$u20$as$u20$core..iter..traits..iterator..Iterator$GT$24__iterator_get_unchecked17h21872b9da702deb4E"({ i8*, i8* }* align 8 dereferenceable(16) %_8, i64 %i), !dbg !486
  br label %bb2, !dbg !486

bb2:                                              ; preds = %bb1
  %_11 = getelementptr inbounds %"core::iter::Zip<core::str::Bytes, core::str::Bytes>", %"core::iter::Zip<core::str::Bytes, core::str::Bytes>"* %self, i32 0, i32 1, !dbg !487
; call <core::str::iter::Bytes as core::iter::traits::iterator::Iterator>::__iterator_get_unchecked
  %_10 = call i8 @"_ZN81_$LT$core..str..iter..Bytes$u20$as$u20$core..iter..traits..iterator..Iterator$GT$24__iterator_get_unchecked17h21872b9da702deb4E"({ i8*, i8* }* align 8 dereferenceable(16) %_11, i64 %i), !dbg !487
  br label %bb3, !dbg !487

bb3:                                              ; preds = %bb2
  %8 = bitcast { i8, i8 }* %_6 to i8*, !dbg !488
  store i8 %_7, i8* %8, align 1, !dbg !488
  %9 = getelementptr inbounds { i8, i8 }, { i8, i8 }* %_6, i32 0, i32 1, !dbg !488
  store i8 %_10, i8* %9, align 1, !dbg !488
  %10 = bitcast %"core::option::Option<(u8, u8)>"* %0 to %"core::option::Option<(u8, u8)>::Some"*, !dbg !489
  %11 = getelementptr inbounds %"core::option::Option<(u8, u8)>::Some", %"core::option::Option<(u8, u8)>::Some"* %10, i32 0, i32 1, !dbg !489
  %12 = getelementptr inbounds { i8, i8 }, { i8, i8 }* %_6, i32 0, i32 0, !dbg !489
  %13 = load i8, i8* %12, align 1, !dbg !489
  %14 = getelementptr inbounds { i8, i8 }, { i8, i8 }* %_6, i32 0, i32 1, !dbg !489
  %15 = load i8, i8* %14, align 1, !dbg !489
  %16 = getelementptr inbounds { i8, i8 }, { i8, i8 }* %11, i32 0, i32 0, !dbg !489
  store i8 %13, i8* %16, align 1, !dbg !489
  %17 = getelementptr inbounds { i8, i8 }, { i8, i8 }* %11, i32 0, i32 1, !dbg !489
  store i8 %15, i8* %17, align 1, !dbg !489
  %18 = bitcast %"core::option::Option<(u8, u8)>"* %0 to i8*, !dbg !489
  store i8 1, i8* %18, align 1, !dbg !489
  br label %bb13, !dbg !490

bb13:                                             ; preds = %bb12, %bb3
  %19 = bitcast %"core::option::Option<(u8, u8)>"* %0 to i24*, !dbg !491
  %20 = load i24, i24* %19, align 1, !dbg !491
  ret i24 %20, !dbg !491

bb5:                                              ; preds = %bb4
  store i8 0, i8* %_13, align 1, !dbg !482
  br label %bb7, !dbg !482

bb6:                                              ; preds = %bb4
  %21 = getelementptr inbounds %"core::iter::Zip<core::str::Bytes, core::str::Bytes>", %"core::iter::Zip<core::str::Bytes, core::str::Bytes>"* %self, i32 0, i32 2, !dbg !492
  %_15 = load i64, i64* %21, align 8, !dbg !492
  %22 = getelementptr inbounds %"core::iter::Zip<core::str::Bytes, core::str::Bytes>", %"core::iter::Zip<core::str::Bytes, core::str::Bytes>"* %self, i32 0, i32 4, !dbg !493
  %_16 = load i64, i64* %22, align 8, !dbg !493
  %_14 = icmp ult i64 %_15, %_16, !dbg !492
  %23 = zext i1 %_14 to i8, !dbg !482
  store i8 %23, i8* %_13, align 1, !dbg !482
  br label %bb7, !dbg !482

bb7:                                              ; preds = %bb5, %bb6
  %24 = load i8, i8* %_13, align 1, !dbg !482, !range !238
  %25 = trunc i8 %24 to i1, !dbg !482
  br i1 %25, label %bb8, label %bb11, !dbg !482

bb11:                                             ; preds = %bb7
  %26 = bitcast %"core::option::Option<(u8, u8)>"* %0 to i8*, !dbg !494
  store i8 0, i8* %26, align 1, !dbg !494
  br label %bb12, !dbg !495

bb8:                                              ; preds = %bb7
  %27 = getelementptr inbounds %"core::iter::Zip<core::str::Bytes, core::str::Bytes>", %"core::iter::Zip<core::str::Bytes, core::str::Bytes>"* %self, i32 0, i32 2, !dbg !496
  %i1 = load i64, i64* %27, align 8, !dbg !496
  store i64 %i1, i64* %i.dbg.spill2, align 8, !dbg !496
  call void @llvm.dbg.declare(metadata i64* %i.dbg.spill2, metadata !477, metadata !DIExpression()), !dbg !497
  %28 = getelementptr inbounds %"core::iter::Zip<core::str::Bytes, core::str::Bytes>", %"core::iter::Zip<core::str::Bytes, core::str::Bytes>"* %self, i32 0, i32 2, !dbg !498
  %29 = getelementptr inbounds %"core::iter::Zip<core::str::Bytes, core::str::Bytes>", %"core::iter::Zip<core::str::Bytes, core::str::Bytes>"* %self, i32 0, i32 2, !dbg !498
  %30 = load i64, i64* %29, align 8, !dbg !498
  %31 = add i64 %30, 1, !dbg !498
  store i64 %31, i64* %28, align 8, !dbg !498
  %32 = getelementptr inbounds %"core::iter::Zip<core::str::Bytes, core::str::Bytes>", %"core::iter::Zip<core::str::Bytes, core::str::Bytes>"* %self, i32 0, i32 3, !dbg !499
  %33 = getelementptr inbounds %"core::iter::Zip<core::str::Bytes, core::str::Bytes>", %"core::iter::Zip<core::str::Bytes, core::str::Bytes>"* %self, i32 0, i32 3, !dbg !499
  %34 = load i64, i64* %33, align 8, !dbg !499
  %35 = add i64 %34, 1, !dbg !499
  store i64 %35, i64* %32, align 8, !dbg !499
  %_19 = bitcast %"core::iter::Zip<core::str::Bytes, core::str::Bytes>"* %self to { i8*, i8* }*, !dbg !500
; call <core::str::iter::Bytes as core::iter::traits::iterator::Iterator>::__iterator_get_unchecked
  %_18 = call i8 @"_ZN81_$LT$core..str..iter..Bytes$u20$as$u20$core..iter..traits..iterator..Iterator$GT$24__iterator_get_unchecked17h21872b9da702deb4E"({ i8*, i8* }* align 8 dereferenceable(16) %_19, i64 %i1), !dbg !500
  br label %bb9, !dbg !500

bb9:                                              ; preds = %bb8
  br label %bb10, !dbg !501

bb10:                                             ; preds = %bb9
  %36 = bitcast %"core::option::Option<(u8, u8)>"* %0 to i8*, !dbg !502
  store i8 0, i8* %36, align 1, !dbg !502
  br label %bb12, !dbg !495

bb12:                                             ; preds = %bb11, %bb10
  br label %bb13, !dbg !490
}

; std::f32::<impl f32>::powi
; Function Attrs: inlinehint nounwind
define internal float @"_ZN3std3f3221_$LT$impl$u20$f32$GT$4powi17h346b69919f8c3eb6E"(float %self, i32 %n) unnamed_addr #0 !dbg !503 {
start:
  %0 = alloca float, align 4
  %n.dbg.spill = alloca i32, align 4
  %self.dbg.spill = alloca float, align 4
  store float %self, float* %self.dbg.spill, align 4
  call void @llvm.dbg.declare(metadata float* %self.dbg.spill, metadata !513, metadata !DIExpression()), !dbg !515
  store i32 %n, i32* %n.dbg.spill, align 4
  call void @llvm.dbg.declare(metadata i32* %n.dbg.spill, metadata !514, metadata !DIExpression()), !dbg !516
  %1 = call float @llvm.powi.f32.i32(float %self, i32 %n), !dbg !517
  store float %1, float* %0, align 4, !dbg !517
  %2 = load float, float* %0, align 4, !dbg !517
  br label %bb1, !dbg !517

bb1:                                              ; preds = %start
  ret float %2, !dbg !518
}

; std::f64::<impl f64>::powi
; Function Attrs: inlinehint nounwind
define internal double @"_ZN3std3f6421_$LT$impl$u20$f64$GT$4powi17hc5b39c35377ec9d5E"(double %self, i32 %n) unnamed_addr #0 !dbg !519 {
start:
  %0 = alloca double, align 8
  %n.dbg.spill = alloca i32, align 4
  %self.dbg.spill = alloca double, align 8
  store double %self, double* %self.dbg.spill, align 8
  call void @llvm.dbg.declare(metadata double* %self.dbg.spill, metadata !527, metadata !DIExpression()), !dbg !529
  store i32 %n, i32* %n.dbg.spill, align 4
  call void @llvm.dbg.declare(metadata i32* %n.dbg.spill, metadata !528, metadata !DIExpression()), !dbg !530
  %1 = call double @llvm.powi.f64.i32(double %self, i32 %n), !dbg !531
  store double %1, double* %0, align 8, !dbg !531
  %2 = load double, double* %0, align 8, !dbg !531
  br label %bb1, !dbg !531

bb1:                                              ; preds = %start
  ret double %2, !dbg !532
}

; <&T as core::fmt::Debug>::fmt
; Function Attrs: nounwind
define zeroext i1 @"_ZN42_$LT$$RF$T$u20$as$u20$core..fmt..Debug$GT$3fmt17hff085c70b3d512c9E"(i8** align 8 dereferenceable(8) %self, %"core::fmt::Formatter"* align 8 dereferenceable(64) %f) unnamed_addr #1 !dbg !533 {
start:
  %f.dbg.spill = alloca %"core::fmt::Formatter"*, align 8
  %self.dbg.spill = alloca i8**, align 8
  store i8** %self, i8*** %self.dbg.spill, align 8
  call void @llvm.dbg.declare(metadata i8*** %self.dbg.spill, metadata !558, metadata !DIExpression()), !dbg !562
  store %"core::fmt::Formatter"* %f, %"core::fmt::Formatter"** %f.dbg.spill, align 8
  call void @llvm.dbg.declare(metadata %"core::fmt::Formatter"** %f.dbg.spill, metadata !559, metadata !DIExpression()), !dbg !563
  %_4 = load i8*, i8** %self, align 8, !dbg !564, !nonnull !4
; call <num_traits::FloatErrorKind as core::fmt::Debug>::fmt
  %0 = call zeroext i1 @"_ZN63_$LT$num_traits..FloatErrorKind$u20$as$u20$core..fmt..Debug$GT$3fmt17hb7677d240ac5cfebE"(i8* align 1 dereferenceable(1) %_4, %"core::fmt::Formatter"* align 8 dereferenceable(64) %f), !dbg !565
  br label %bb1, !dbg !565

bb1:                                              ; preds = %start
  ret i1 %0, !dbg !566
}

; <f32 as core::ops::arith::Div>::div
; Function Attrs: inlinehint nounwind
define internal float @"_ZN45_$LT$f32$u20$as$u20$core..ops..arith..Div$GT$3div17he6073f501bfa0ee7E"(float %self, float %other) unnamed_addr #0 !dbg !567 {
start:
  %other.dbg.spill = alloca float, align 4
  %self.dbg.spill = alloca float, align 4
  store float %self, float* %self.dbg.spill, align 4
  call void @llvm.dbg.declare(metadata float* %self.dbg.spill, metadata !574, metadata !DIExpression()), !dbg !576
  store float %other, float* %other.dbg.spill, align 4
  call void @llvm.dbg.declare(metadata float* %other.dbg.spill, metadata !575, metadata !DIExpression()), !dbg !577
  %0 = fdiv float %self, %other, !dbg !578
  ret float %0, !dbg !579
}

; <f32 as core::ops::arith::Mul>::mul
; Function Attrs: inlinehint nounwind
define internal float @"_ZN45_$LT$f32$u20$as$u20$core..ops..arith..Mul$GT$3mul17hcf55b7e176d8b17bE"(float %self, float %other) unnamed_addr #0 !dbg !580 {
start:
  %other.dbg.spill = alloca float, align 4
  %self.dbg.spill = alloca float, align 4
  store float %self, float* %self.dbg.spill, align 4
  call void @llvm.dbg.declare(metadata float* %self.dbg.spill, metadata !583, metadata !DIExpression()), !dbg !585
  store float %other, float* %other.dbg.spill, align 4
  call void @llvm.dbg.declare(metadata float* %other.dbg.spill, metadata !584, metadata !DIExpression()), !dbg !586
  %0 = fmul float %self, %other, !dbg !587
  ret float %0, !dbg !588
}

; <f32 as core::ops::arith::Neg>::neg
; Function Attrs: inlinehint nounwind
define internal float @"_ZN45_$LT$f32$u20$as$u20$core..ops..arith..Neg$GT$3neg17h57e55d56d9e42651E"(float %self) unnamed_addr #0 !dbg !589 {
start:
  %self.dbg.spill = alloca float, align 4
  store float %self, float* %self.dbg.spill, align 4
  call void @llvm.dbg.declare(metadata float* %self.dbg.spill, metadata !594, metadata !DIExpression()), !dbg !595
  %0 = fneg float %self, !dbg !596
  ret float %0, !dbg !597
}

; <f64 as core::ops::arith::Div>::div
; Function Attrs: inlinehint nounwind
define internal double @"_ZN45_$LT$f64$u20$as$u20$core..ops..arith..Div$GT$3div17h3f3cf0a934854f68E"(double %self, double %other) unnamed_addr #0 !dbg !598 {
start:
  %other.dbg.spill = alloca double, align 8
  %self.dbg.spill = alloca double, align 8
  store double %self, double* %self.dbg.spill, align 8
  call void @llvm.dbg.declare(metadata double* %self.dbg.spill, metadata !603, metadata !DIExpression()), !dbg !605
  store double %other, double* %other.dbg.spill, align 8
  call void @llvm.dbg.declare(metadata double* %other.dbg.spill, metadata !604, metadata !DIExpression()), !dbg !606
  %0 = fdiv double %self, %other, !dbg !607
  ret double %0, !dbg !608
}

; <f64 as core::ops::arith::Mul>::mul
; Function Attrs: inlinehint nounwind
define internal double @"_ZN45_$LT$f64$u20$as$u20$core..ops..arith..Mul$GT$3mul17hbd1481c8bcbc57e1E"(double %self, double %other) unnamed_addr #0 !dbg !609 {
start:
  %other.dbg.spill = alloca double, align 8
  %self.dbg.spill = alloca double, align 8
  store double %self, double* %self.dbg.spill, align 8
  call void @llvm.dbg.declare(metadata double* %self.dbg.spill, metadata !612, metadata !DIExpression()), !dbg !614
  store double %other, double* %other.dbg.spill, align 8
  call void @llvm.dbg.declare(metadata double* %other.dbg.spill, metadata !613, metadata !DIExpression()), !dbg !615
  %0 = fmul double %self, %other, !dbg !616
  ret double %0, !dbg !617
}

; <f64 as core::ops::arith::Neg>::neg
; Function Attrs: inlinehint nounwind
define internal double @"_ZN45_$LT$f64$u20$as$u20$core..ops..arith..Neg$GT$3neg17h725e8e59798aaf5fE"(double %self) unnamed_addr #0 !dbg !618 {
start:
  %self.dbg.spill = alloca double, align 8
  store double %self, double* %self.dbg.spill, align 8
  call void @llvm.dbg.declare(metadata double* %self.dbg.spill, metadata !623, metadata !DIExpression()), !dbg !624
  %0 = fneg double %self, !dbg !625
  ret double %0, !dbg !626
}

; core::cmp::Ord::min
; Function Attrs: inlinehint nounwind
define i64 @_ZN4core3cmp3Ord3min17hf1c029e7f2107ff3E(i64 %self, i64 %other) unnamed_addr #0 !dbg !627 {
start:
  %other.dbg.spill = alloca i64, align 8
  %self.dbg.spill = alloca i64, align 8
  store i64 %self, i64* %self.dbg.spill, align 8
  call void @llvm.dbg.declare(metadata i64* %self.dbg.spill, metadata !633, metadata !DIExpression()), !dbg !637
  store i64 %other, i64* %other.dbg.spill, align 8
  call void @llvm.dbg.declare(metadata i64* %other.dbg.spill, metadata !634, metadata !DIExpression()), !dbg !638
; call core::cmp::min_by
  %0 = call i64 @_ZN4core3cmp6min_by17h83b5bcb5037deac0E(i64 %self, i64 %other), !dbg !639
  br label %bb1, !dbg !639

bb1:                                              ; preds = %start
  ret i64 %0, !dbg !640
}

; core::cmp::min
; Function Attrs: inlinehint nounwind
define i64 @_ZN4core3cmp3min17hd0c19dbaf1480053E(i64 %v1, i64 %v2) unnamed_addr #0 !dbg !641 {
start:
  %v2.dbg.spill = alloca i64, align 8
  %v1.dbg.spill = alloca i64, align 8
  store i64 %v1, i64* %v1.dbg.spill, align 8
  call void @llvm.dbg.declare(metadata i64* %v1.dbg.spill, metadata !643, metadata !DIExpression()), !dbg !645
  store i64 %v2, i64* %v2.dbg.spill, align 8
  call void @llvm.dbg.declare(metadata i64* %v2.dbg.spill, metadata !644, metadata !DIExpression()), !dbg !646
; call core::cmp::Ord::min
  %0 = call i64 @_ZN4core3cmp3Ord3min17hf1c029e7f2107ff3E(i64 %v1, i64 %v2), !dbg !647
  br label %bb1, !dbg !647

bb1:                                              ; preds = %start
  ret i64 %0, !dbg !648
}

; core::cmp::impls::<impl core::cmp::Ord for usize>::cmp
; Function Attrs: inlinehint nounwind
define internal i8 @"_ZN4core3cmp5impls50_$LT$impl$u20$core..cmp..Ord$u20$for$u20$usize$GT$3cmp17hc38d608d3e030fabE"(i64* align 8 dereferenceable(8) %self, i64* align 8 dereferenceable(8) %other) unnamed_addr #0 !dbg !649 {
start:
  %other.dbg.spill = alloca i64*, align 8
  %self.dbg.spill = alloca i64*, align 8
  %0 = alloca i8, align 1
  store i64* %self, i64** %self.dbg.spill, align 8
  call void @llvm.dbg.declare(metadata i64** %self.dbg.spill, metadata !656, metadata !DIExpression()), !dbg !658
  store i64* %other, i64** %other.dbg.spill, align 8
  call void @llvm.dbg.declare(metadata i64** %other.dbg.spill, metadata !657, metadata !DIExpression()), !dbg !659
  %_4 = load i64, i64* %self, align 8, !dbg !660
  %_5 = load i64, i64* %other, align 8, !dbg !661
  %_3 = icmp ult i64 %_4, %_5, !dbg !660
  br i1 %_3, label %bb1, label %bb2, !dbg !660

bb2:                                              ; preds = %start
  %_7 = load i64, i64* %self, align 8, !dbg !662
  %_8 = load i64, i64* %other, align 8, !dbg !663
  %_6 = icmp eq i64 %_7, %_8, !dbg !662
  br i1 %_6, label %bb3, label %bb4, !dbg !662

bb1:                                              ; preds = %start
  store i8 -1, i8* %0, align 1, !dbg !664
  br label %bb6, !dbg !665

bb6:                                              ; preds = %bb5, %bb1
  %1 = load i8, i8* %0, align 1, !dbg !666, !range !667
  ret i8 %1, !dbg !666

bb4:                                              ; preds = %bb2
  store i8 1, i8* %0, align 1, !dbg !668
  br label %bb5, !dbg !669

bb3:                                              ; preds = %bb2
  store i8 0, i8* %0, align 1, !dbg !670
  br label %bb5, !dbg !669

bb5:                                              ; preds = %bb4, %bb3
  br label %bb6, !dbg !665
}

; core::cmp::impls::<impl core::cmp::PartialEq for ()>::eq
; Function Attrs: inlinehint nounwind
define internal zeroext i1 @"_ZN4core3cmp5impls59_$LT$impl$u20$core..cmp..PartialEq$u20$for$u20$$LP$$RP$$GT$2eq17h264c06fe5bf4a2f5E"({}* nonnull align 1 %self, {}* nonnull align 1 %_other) unnamed_addr #0 !dbg !671 {
start:
  %_other.dbg.spill = alloca {}*, align 8
  %self.dbg.spill = alloca {}*, align 8
  store {}* %self, {}** %self.dbg.spill, align 8
  call void @llvm.dbg.declare(metadata {}** %self.dbg.spill, metadata !678, metadata !DIExpression()), !dbg !680
  store {}* %_other, {}** %_other.dbg.spill, align 8
  call void @llvm.dbg.declare(metadata {}** %_other.dbg.spill, metadata !679, metadata !DIExpression()), !dbg !681
  ret i1 true, !dbg !682
}

; core::cmp::impls::<impl core::cmp::PartialEq<&B> for &A>::eq
; Function Attrs: inlinehint nounwind
define zeroext i1 @"_ZN4core3cmp5impls69_$LT$impl$u20$core..cmp..PartialEq$LT$$RF$B$GT$$u20$for$u20$$RF$A$GT$2eq17h19ec8da187428af2E"({ [0 x i8]*, i64 }* align 8 dereferenceable(16) %self, { [0 x i8]*, i64 }* align 8 dereferenceable(16) %other) unnamed_addr #0 !dbg !683 {
start:
  %other.dbg.spill = alloca { [0 x i8]*, i64 }*, align 8
  %self.dbg.spill = alloca { [0 x i8]*, i64 }*, align 8
  store { [0 x i8]*, i64 }* %self, { [0 x i8]*, i64 }** %self.dbg.spill, align 8
  call void @llvm.dbg.declare(metadata { [0 x i8]*, i64 }** %self.dbg.spill, metadata !689, metadata !DIExpression()), !dbg !697
  store { [0 x i8]*, i64 }* %other, { [0 x i8]*, i64 }** %other.dbg.spill, align 8
  call void @llvm.dbg.declare(metadata { [0 x i8]*, i64 }** %other.dbg.spill, metadata !690, metadata !DIExpression()), !dbg !698
  %0 = getelementptr inbounds { [0 x i8]*, i64 }, { [0 x i8]*, i64 }* %self, i32 0, i32 0, !dbg !699
  %_3.0 = load [0 x i8]*, [0 x i8]** %0, align 8, !dbg !699, !nonnull !4
  %1 = getelementptr inbounds { [0 x i8]*, i64 }, { [0 x i8]*, i64 }* %self, i32 0, i32 1, !dbg !699
  %_3.1 = load i64, i64* %1, align 8, !dbg !699
  %2 = getelementptr inbounds { [0 x i8]*, i64 }, { [0 x i8]*, i64 }* %other, i32 0, i32 0, !dbg !700
  %_4.0 = load [0 x i8]*, [0 x i8]** %2, align 8, !dbg !700, !nonnull !4
  %3 = getelementptr inbounds { [0 x i8]*, i64 }, { [0 x i8]*, i64 }* %other, i32 0, i32 1, !dbg !700
  %_4.1 = load i64, i64* %3, align 8, !dbg !700
; call core::slice::cmp::<impl core::cmp::PartialEq<[B]> for [A]>::eq
  %4 = call zeroext i1 @"_ZN4core5slice3cmp81_$LT$impl$u20$core..cmp..PartialEq$LT$$u5b$B$u5d$$GT$$u20$for$u20$$u5b$A$u5d$$GT$2eq17h9fdb2abeb156c430E"([0 x i8]* nonnull align 1 %_3.0, i64 %_3.1, [0 x i8]* nonnull align 1 %_4.0, i64 %_4.1), !dbg !701
  br label %bb1, !dbg !701

bb1:                                              ; preds = %start
  ret i1 %4, !dbg !702
}

; core::cmp::min_by
; Function Attrs: inlinehint nounwind
define i64 @_ZN4core3cmp6min_by17h83b5bcb5037deac0E(i64 %0, i64 %1) unnamed_addr #0 !dbg !703 {
start:
  %compare.dbg.spill = alloca {}, align 1
  %_13 = alloca i8, align 1
  %_12 = alloca i8, align 1
  %_6 = alloca { i64*, i64* }, align 8
  %_4 = alloca i8, align 1
  %2 = alloca i64, align 8
  %v2 = alloca i64, align 8
  %v1 = alloca i64, align 8
  store i64 %0, i64* %v1, align 8
  store i64 %1, i64* %v2, align 8
  call void @llvm.dbg.declare(metadata i64* %v1, metadata !708, metadata !DIExpression()), !dbg !713
  call void @llvm.dbg.declare(metadata i64* %v2, metadata !709, metadata !DIExpression()), !dbg !714
  call void @llvm.dbg.declare(metadata {}* %compare.dbg.spill, metadata !710, metadata !DIExpression()), !dbg !715
  store i8 0, i8* %_13, align 1, !dbg !716
  store i8 0, i8* %_12, align 1, !dbg !716
  store i8 1, i8* %_13, align 1, !dbg !716
  store i8 1, i8* %_12, align 1, !dbg !716
  %3 = bitcast { i64*, i64* }* %_6 to i64**, !dbg !716
  store i64* %v1, i64** %3, align 8, !dbg !716
  %4 = getelementptr inbounds { i64*, i64* }, { i64*, i64* }* %_6, i32 0, i32 1, !dbg !716
  store i64* %v2, i64** %4, align 8, !dbg !716
  %5 = getelementptr inbounds { i64*, i64* }, { i64*, i64* }* %_6, i32 0, i32 0, !dbg !716
  %6 = load i64*, i64** %5, align 8, !dbg !716, !nonnull !4
  %7 = getelementptr inbounds { i64*, i64* }, { i64*, i64* }* %_6, i32 0, i32 1, !dbg !716
  %8 = load i64*, i64** %7, align 8, !dbg !716, !nonnull !4
; call core::ops::function::FnOnce::call_once
  %9 = call i8 @_ZN4core3ops8function6FnOnce9call_once17h5d8b4d52c0e39bb0E(i64* align 8 dereferenceable(8) %6, i64* align 8 dereferenceable(8) %8), !dbg !716, !range !667
  store i8 %9, i8* %_4, align 1, !dbg !716
  br label %bb1, !dbg !716

bb1:                                              ; preds = %start
  %10 = load i8, i8* %_4, align 1, !dbg !716, !range !667
  %_11 = sext i8 %10 to i64, !dbg !716
  switch i64 %_11, label %bb3 [
    i64 -1, label %bb4
    i64 0, label %bb4
    i64 1, label %bb2
  ], !dbg !717

bb3:                                              ; preds = %bb1
  unreachable, !dbg !716

bb4:                                              ; preds = %bb1, %bb1
  store i8 0, i8* %_13, align 1, !dbg !718
  %11 = load i64, i64* %v1, align 8, !dbg !718
  store i64 %11, i64* %2, align 8, !dbg !718
  br label %bb5, !dbg !718

bb2:                                              ; preds = %bb1
  store i8 0, i8* %_12, align 1, !dbg !719
  %12 = load i64, i64* %v2, align 8, !dbg !719
  store i64 %12, i64* %2, align 8, !dbg !719
  br label %bb5, !dbg !719

bb5:                                              ; preds = %bb4, %bb2
  %13 = load i8, i8* %_12, align 1, !dbg !720, !range !238
  %14 = trunc i8 %13 to i1, !dbg !720
  br i1 %14, label %bb8, label %bb6, !dbg !720

bb6:                                              ; preds = %bb8, %bb5
  %15 = load i8, i8* %_13, align 1, !dbg !720, !range !238
  %16 = trunc i8 %15 to i1, !dbg !720
  br i1 %16, label %bb9, label %bb7, !dbg !720

bb8:                                              ; preds = %bb5
  br label %bb6, !dbg !720

bb7:                                              ; preds = %bb9, %bb6
  %17 = load i64, i64* %2, align 8, !dbg !721
  ret i64 %17, !dbg !721

bb9:                                              ; preds = %bb6
  br label %bb7, !dbg !720
}

; core::mem::size_of_val
; Function Attrs: inlinehint nounwind
define i64 @_ZN4core3mem11size_of_val17h8cf98265f313b93aE([0 x i8]* nonnull align 1 %val.0, i64 %val.1) unnamed_addr #0 !dbg !722 {
start:
  %0 = alloca i64, align 8
  %val.dbg.spill = alloca { [0 x i8]*, i64 }, align 8
  %1 = getelementptr inbounds { [0 x i8]*, i64 }, { [0 x i8]*, i64 }* %val.dbg.spill, i32 0, i32 0
  store [0 x i8]* %val.0, [0 x i8]** %1, align 8
  %2 = getelementptr inbounds { [0 x i8]*, i64 }, { [0 x i8]*, i64 }* %val.dbg.spill, i32 0, i32 1
  store i64 %val.1, i64* %2, align 8
  call void @llvm.dbg.declare(metadata { [0 x i8]*, i64 }* %val.dbg.spill, metadata !728, metadata !DIExpression()), !dbg !731
  %3 = mul i64 %val.1, 1, !dbg !732
  store i64 %3, i64* %0, align 8, !dbg !732
  %4 = load i64, i64* %0, align 8, !dbg !732
  br label %bb1, !dbg !732

bb1:                                              ; preds = %start
  ret i64 %4, !dbg !733
}

; core::num::<impl u64>::checked_mul
; Function Attrs: inlinehint nounwind
define internal { i64, i64 } @"_ZN4core3num21_$LT$impl$u20$u64$GT$11checked_mul17h4cf3e0f6afebc40eE"(i64 %self, i64 %rhs) unnamed_addr #0 !dbg !734 {
start:
  %b.dbg.spill.i = alloca i8, align 1
  %a.dbg.spill.i = alloca i64, align 8
  %0 = alloca { i64, i8 }, align 8
  %rhs.dbg.spill.i = alloca i64, align 8
  %self.dbg.spill.i = alloca i64, align 8
  %1 = alloca { i64, i8 }, align 8
  %2 = alloca i8, align 1
  %b.dbg.spill = alloca i8, align 1
  %a.dbg.spill = alloca i64, align 8
  %rhs.dbg.spill = alloca i64, align 8
  %self.dbg.spill = alloca i64, align 8
  %3 = alloca { i64, i64 }, align 8
  store i64 %self, i64* %self.dbg.spill, align 8
  call void @llvm.dbg.declare(metadata i64* %self.dbg.spill, metadata !752, metadata !DIExpression()), !dbg !757
  store i64 %rhs, i64* %rhs.dbg.spill, align 8
  call void @llvm.dbg.declare(metadata i64* %rhs.dbg.spill, metadata !753, metadata !DIExpression()), !dbg !758
  store i64 %self, i64* %self.dbg.spill.i, align 8
  call void @llvm.dbg.declare(metadata i64* %self.dbg.spill.i, metadata !759, metadata !DIExpression()) #7, !dbg !772
  store i64 %rhs, i64* %rhs.dbg.spill.i, align 8
  call void @llvm.dbg.declare(metadata i64* %rhs.dbg.spill.i, metadata !768, metadata !DIExpression()) #7, !dbg !774
  %4 = call { i64, i1 } @llvm.umul.with.overflow.i64(i64 %self, i64 %rhs) #7, !dbg !775
  %5 = extractvalue { i64, i1 } %4, 0, !dbg !775
  %6 = extractvalue { i64, i1 } %4, 1, !dbg !775
  %7 = zext i1 %6 to i8, !dbg !775
  %8 = bitcast { i64, i8 }* %0 to i64*, !dbg !775
  store i64 %5, i64* %8, align 8, !dbg !775
  %9 = getelementptr inbounds { i64, i8 }, { i64, i8 }* %0, i32 0, i32 1, !dbg !775
  store i8 %7, i8* %9, align 8, !dbg !775
  %10 = getelementptr inbounds { i64, i8 }, { i64, i8 }* %0, i32 0, i32 0, !dbg !775
  %_5.0.i = load i64, i64* %10, align 8, !dbg !775
  %11 = getelementptr inbounds { i64, i8 }, { i64, i8 }* %0, i32 0, i32 1, !dbg !775
  %12 = load i8, i8* %11, align 8, !dbg !775, !range !238
  %_5.1.i = trunc i8 %12 to i1, !dbg !775
  store i64 %_5.0.i, i64* %a.dbg.spill.i, align 8, !dbg !776
  call void @llvm.dbg.declare(metadata i64* %a.dbg.spill.i, metadata !769, metadata !DIExpression()) #7, !dbg !777
  %13 = zext i1 %_5.1.i to i8, !dbg !778
  store i8 %13, i8* %b.dbg.spill.i, align 1, !dbg !778
  call void @llvm.dbg.declare(metadata i8* %b.dbg.spill.i, metadata !771, metadata !DIExpression()) #7, !dbg !779
  %14 = bitcast { i64, i8 }* %1 to i64*, !dbg !780
  store i64 %_5.0.i, i64* %14, align 8, !dbg !780
  %15 = getelementptr inbounds { i64, i8 }, { i64, i8 }* %1, i32 0, i32 1, !dbg !780
  %16 = zext i1 %_5.1.i to i8, !dbg !780
  store i8 %16, i8* %15, align 8, !dbg !780
  %17 = getelementptr inbounds { i64, i8 }, { i64, i8 }* %1, i32 0, i32 0, !dbg !781
  %18 = load i64, i64* %17, align 8, !dbg !781
  %19 = getelementptr inbounds { i64, i8 }, { i64, i8 }* %1, i32 0, i32 1, !dbg !781
  %20 = load i8, i8* %19, align 8, !dbg !781, !range !238
  %21 = trunc i8 %20 to i1, !dbg !781
  %22 = zext i1 %21 to i8, !dbg !781
  %23 = insertvalue { i64, i8 } undef, i64 %18, 0, !dbg !781
  %24 = insertvalue { i64, i8 } %23, i8 %22, 1, !dbg !781
  %_5.0 = extractvalue { i64, i8 } %24, 0, !dbg !782
  %25 = extractvalue { i64, i8 } %24, 1, !dbg !782
  %_5.1 = trunc i8 %25 to i1, !dbg !782
  br label %bb1, !dbg !782

bb1:                                              ; preds = %start
  store i64 %_5.0, i64* %a.dbg.spill, align 8, !dbg !783
  call void @llvm.dbg.declare(metadata i64* %a.dbg.spill, metadata !754, metadata !DIExpression()), !dbg !784
  %26 = zext i1 %_5.1 to i8, !dbg !785
  store i8 %26, i8* %b.dbg.spill, align 1, !dbg !785
  call void @llvm.dbg.declare(metadata i8* %b.dbg.spill, metadata !756, metadata !DIExpression()), !dbg !786
  %27 = call i1 @llvm.expect.i1(i1 %_5.1, i1 false), !dbg !787
  %28 = zext i1 %27 to i8, !dbg !787
  store i8 %28, i8* %2, align 1, !dbg !787
  %29 = load i8, i8* %2, align 1, !dbg !787, !range !238
  %_8 = trunc i8 %29 to i1, !dbg !787
  br label %bb2, !dbg !787

bb2:                                              ; preds = %bb1
  br i1 %_8, label %bb3, label %bb4, !dbg !787

bb4:                                              ; preds = %bb2
  %30 = bitcast { i64, i64 }* %3 to %"core::option::Option<u64>::Some"*, !dbg !788
  %31 = getelementptr inbounds %"core::option::Option<u64>::Some", %"core::option::Option<u64>::Some"* %30, i32 0, i32 1, !dbg !788
  store i64 %_5.0, i64* %31, align 8, !dbg !788
  %32 = bitcast { i64, i64 }* %3 to i64*, !dbg !788
  store i64 1, i64* %32, align 8, !dbg !788
  br label %bb5, !dbg !789

bb3:                                              ; preds = %bb2
  %33 = bitcast { i64, i64 }* %3 to i64*, !dbg !790
  store i64 0, i64* %33, align 8, !dbg !790
  br label %bb5, !dbg !789

bb5:                                              ; preds = %bb4, %bb3
  %34 = getelementptr inbounds { i64, i64 }, { i64, i64 }* %3, i32 0, i32 0, !dbg !791
  %35 = load i64, i64* %34, align 8, !dbg !791, !range !792
  %36 = getelementptr inbounds { i64, i64 }, { i64, i64 }* %3, i32 0, i32 1, !dbg !791
  %37 = load i64, i64* %36, align 8, !dbg !791
  %38 = insertvalue { i64, i64 } undef, i64 %35, 0, !dbg !791
  %39 = insertvalue { i64, i64 } %38, i64 %37, 1, !dbg !791
  ret { i64, i64 } %39, !dbg !791
}

; core::num::dec2flt::biased_fp_to_float
; Function Attrs: nounwind
define float @_ZN4core3num7dec2flt18biased_fp_to_float17h35fd2ba36433138cE(i64 %x.0, i32 %x.1) unnamed_addr #1 !dbg !793 {
start:
  %x.dbg.spill = alloca { i64, i32 }, align 8
  %word = alloca i64, align 8
  %0 = getelementptr inbounds { i64, i32 }, { i64, i32 }* %x.dbg.spill, i32 0, i32 0
  store i64 %x.0, i64* %0, align 8
  %1 = getelementptr inbounds { i64, i32 }, { i64, i32 }* %x.dbg.spill, i32 0, i32 1
  store i32 %x.1, i32* %1, align 8
  call void @llvm.dbg.declare(metadata { i64, i32 }* %x.dbg.spill, metadata !803, metadata !DIExpression()), !dbg !808
  call void @llvm.dbg.declare(metadata i64* %word, metadata !804, metadata !DIExpression()), !dbg !809
  store i64 %x.0, i64* %word, align 8, !dbg !810
  %_4 = sext i32 %x.1 to i64, !dbg !811
  %_3 = shl i64 %_4, 23, !dbg !811
  %2 = load i64, i64* %word, align 8, !dbg !812
  %3 = or i64 %2, %_3, !dbg !812
  store i64 %3, i64* %word, align 8, !dbg !812
  %_6 = load i64, i64* %word, align 8, !dbg !813
; call <f32 as core::num::dec2flt::float::RawFloat>::from_u64_bits
  %4 = call float @"_ZN59_$LT$f32$u20$as$u20$core..num..dec2flt..float..RawFloat$GT$13from_u64_bits17h97cfb0a3db1092d0E"(i64 %_6), !dbg !814
  br label %bb1, !dbg !814

bb1:                                              ; preds = %start
  ret float %4, !dbg !815
}

; core::num::dec2flt::biased_fp_to_float
; Function Attrs: nounwind
define double @_ZN4core3num7dec2flt18biased_fp_to_float17h6a560688513527b2E(i64 %x.0, i32 %x.1) unnamed_addr #1 !dbg !816 {
start:
  %x.dbg.spill = alloca { i64, i32 }, align 8
  %word = alloca i64, align 8
  %0 = getelementptr inbounds { i64, i32 }, { i64, i32 }* %x.dbg.spill, i32 0, i32 0
  store i64 %x.0, i64* %0, align 8
  %1 = getelementptr inbounds { i64, i32 }, { i64, i32 }* %x.dbg.spill, i32 0, i32 1
  store i32 %x.1, i32* %1, align 8
  call void @llvm.dbg.declare(metadata { i64, i32 }* %x.dbg.spill, metadata !820, metadata !DIExpression()), !dbg !825
  call void @llvm.dbg.declare(metadata i64* %word, metadata !821, metadata !DIExpression()), !dbg !826
  store i64 %x.0, i64* %word, align 8, !dbg !827
  %_4 = sext i32 %x.1 to i64, !dbg !828
  %_3 = shl i64 %_4, 52, !dbg !828
  %2 = load i64, i64* %word, align 8, !dbg !829
  %3 = or i64 %2, %_3, !dbg !829
  store i64 %3, i64* %word, align 8, !dbg !829
  %_6 = load i64, i64* %word, align 8, !dbg !830
; call <f64 as core::num::dec2flt::float::RawFloat>::from_u64_bits
  %4 = call double @"_ZN59_$LT$f64$u20$as$u20$core..num..dec2flt..float..RawFloat$GT$13from_u64_bits17hbeb87971dba26564E"(i64 %_6), !dbg !831
  br label %bb1, !dbg !831

bb1:                                              ; preds = %start
  ret double %4, !dbg !832
}

; core::num::dec2flt::fpu::fpu_precision::set_precision
; Function Attrs: nounwind
define void @_ZN4core3num7dec2flt3fpu13fpu_precision13set_precision17h574ca4041d6482d6E() unnamed_addr #1 !dbg !833 {
start:
  ret void, !dbg !839
}

; core::num::dec2flt::fpu::fpu_precision::set_precision
; Function Attrs: nounwind
define void @_ZN4core3num7dec2flt3fpu13fpu_precision13set_precision17h678315491519b81dE() unnamed_addr #1 !dbg !840 {
start:
  ret void, !dbg !841
}

; core::num::dec2flt::slow::parse_long_mantissa
; Function Attrs: nounwind
define { i64, i32 } @_ZN4core3num7dec2flt4slow19parse_long_mantissa17h2b64145d4e379df0E([0 x i8]* nonnull align 1 %s.0, i64 %s.1) unnamed_addr #1 !dbg !842 {
start:
  %digit.dbg.spill4 = alloca i8, align 1
  %digit.dbg.spill = alloca i8*, align 8
  %shift.dbg.spill = alloca i64, align 8
  %n.dbg.spill = alloca i64, align 8
  %fp_inf.dbg.spill = alloca { i64, i32 }, align 8
  %fp_zero.dbg.spill = alloca { i64, i32 }, align 8
  %s.dbg.spill = alloca { [0 x i8]*, i64 }, align 8
  %power2 = alloca i32, align 4
  %mantissa = alloca i64, align 8
  %n = alloca i64, align 8
  %_40 = alloca i64, align 8
  %shift = alloca i64, align 8
  %_20 = alloca i64, align 8
  %exp2 = alloca i32, align 4
  %_7 = alloca i8, align 1
  %d = alloca %"core::num::dec2flt::decimal::Decimal", align 8
  %get_shift = alloca %"[closure@core::num::dec2flt::slow::parse_long_mantissa<f64>::{closure#0}]", align 1
  %0 = alloca { i64, i32 }, align 8
  %1 = getelementptr inbounds { [0 x i8]*, i64 }, { [0 x i8]*, i64 }* %s.dbg.spill, i32 0, i32 0
  store [0 x i8]* %s.0, [0 x i8]** %1, align 8
  %2 = getelementptr inbounds { [0 x i8]*, i64 }, { [0 x i8]*, i64 }* %s.dbg.spill, i32 0, i32 1
  store i64 %s.1, i64* %2, align 8
  call void @llvm.dbg.declare(metadata { [0 x i8]*, i64 }* %s.dbg.spill, metadata !848, metadata !DIExpression()), !dbg !888
  call void @llvm.dbg.declare(metadata %"[closure@core::num::dec2flt::slow::parse_long_mantissa<f64>::{closure#0}]"* %get_shift, metadata !849, metadata !DIExpression()), !dbg !889
  call void @llvm.dbg.declare(metadata %"core::num::dec2flt::decimal::Decimal"* %d, metadata !857, metadata !DIExpression()), !dbg !890
  call void @llvm.dbg.declare(metadata i32* %exp2, metadata !869, metadata !DIExpression()), !dbg !891
  call void @llvm.dbg.declare(metadata i64* %shift, metadata !875, metadata !DIExpression()), !dbg !892
  call void @llvm.dbg.declare(metadata i64* %n, metadata !880, metadata !DIExpression()), !dbg !893
  call void @llvm.dbg.declare(metadata i64* %mantissa, metadata !882, metadata !DIExpression()), !dbg !894
  call void @llvm.dbg.declare(metadata i32* %power2, metadata !884, metadata !DIExpression()), !dbg !895
; call core::num::dec2flt::common::BiasedFp::zero_pow2
  %3 = call { i64, i32 } @_ZN4core3num7dec2flt6common8BiasedFp9zero_pow217h27f36e273a7655ddE(i32 0), !dbg !896
  %fp_zero.0 = extractvalue { i64, i32 } %3, 0, !dbg !896
  %fp_zero.1 = extractvalue { i64, i32 } %3, 1, !dbg !896
  %4 = getelementptr inbounds { i64, i32 }, { i64, i32 }* %fp_zero.dbg.spill, i32 0, i32 0, !dbg !896
  store i64 %fp_zero.0, i64* %4, align 8, !dbg !896
  %5 = getelementptr inbounds { i64, i32 }, { i64, i32 }* %fp_zero.dbg.spill, i32 0, i32 1, !dbg !896
  store i32 %fp_zero.1, i32* %5, align 8, !dbg !896
  call void @llvm.dbg.declare(metadata { i64, i32 }* %fp_zero.dbg.spill, metadata !853, metadata !DIExpression()), !dbg !897
  br label %bb1, !dbg !896

bb1:                                              ; preds = %start
; call core::num::dec2flt::common::BiasedFp::zero_pow2
  %6 = call { i64, i32 } @_ZN4core3num7dec2flt6common8BiasedFp9zero_pow217h27f36e273a7655ddE(i32 2047), !dbg !898
  %fp_inf.0 = extractvalue { i64, i32 } %6, 0, !dbg !898
  %fp_inf.1 = extractvalue { i64, i32 } %6, 1, !dbg !898
  %7 = getelementptr inbounds { i64, i32 }, { i64, i32 }* %fp_inf.dbg.spill, i32 0, i32 0, !dbg !898
  store i64 %fp_inf.0, i64* %7, align 8, !dbg !898
  %8 = getelementptr inbounds { i64, i32 }, { i64, i32 }* %fp_inf.dbg.spill, i32 0, i32 1, !dbg !898
  store i32 %fp_inf.1, i32* %8, align 8, !dbg !898
  call void @llvm.dbg.declare(metadata { i64, i32 }* %fp_inf.dbg.spill, metadata !855, metadata !DIExpression()), !dbg !899
  br label %bb2, !dbg !898

bb2:                                              ; preds = %bb1
; call core::num::dec2flt::decimal::parse_decimal
  call void @_ZN4core3num7dec2flt7decimal13parse_decimal17h6f1c7f033d9ec072E(%"core::num::dec2flt::decimal::Decimal"* noalias nocapture sret(%"core::num::dec2flt::decimal::Decimal") dereferenceable(784) %d, [0 x i8]* nonnull align 1 %s.0, i64 %s.1), !dbg !900
  br label %bb3, !dbg !900

bb3:                                              ; preds = %bb2
  %9 = bitcast %"core::num::dec2flt::decimal::Decimal"* %d to i64*, !dbg !901
  %_8 = load i64, i64* %9, align 8, !dbg !901
  %10 = icmp eq i64 %_8, 0, !dbg !901
  br i1 %10, label %bb4, label %bb5, !dbg !901

bb4:                                              ; preds = %bb3
  store i8 1, i8* %_7, align 1, !dbg !901
  br label %bb6, !dbg !901

bb5:                                              ; preds = %bb3
  %11 = getelementptr inbounds %"core::num::dec2flt::decimal::Decimal", %"core::num::dec2flt::decimal::Decimal"* %d, i32 0, i32 1, !dbg !902
  %_10 = load i32, i32* %11, align 8, !dbg !902
  %_9 = icmp slt i32 %_10, -324, !dbg !902
  %12 = zext i1 %_9 to i8, !dbg !901
  store i8 %12, i8* %_7, align 1, !dbg !901
  br label %bb6, !dbg !901

bb6:                                              ; preds = %bb4, %bb5
  %13 = load i8, i8* %_7, align 1, !dbg !901, !range !238
  %14 = trunc i8 %13 to i1, !dbg !901
  br i1 %14, label %bb7, label %bb8, !dbg !901

bb8:                                              ; preds = %bb6
  %15 = getelementptr inbounds %"core::num::dec2flt::decimal::Decimal", %"core::num::dec2flt::decimal::Decimal"* %d, i32 0, i32 1, !dbg !903
  %_12 = load i32, i32* %15, align 8, !dbg !903
  %_11 = icmp sge i32 %_12, 310, !dbg !903
  br i1 %_11, label %bb9, label %bb10, !dbg !903

bb7:                                              ; preds = %bb6
  %16 = getelementptr inbounds { i64, i32 }, { i64, i32 }* %0, i32 0, i32 0, !dbg !904
  store i64 %fp_zero.0, i64* %16, align 8, !dbg !904
  %17 = getelementptr inbounds { i64, i32 }, { i64, i32 }* %0, i32 0, i32 1, !dbg !904
  store i32 %fp_zero.1, i32* %17, align 8, !dbg !904
  br label %bb53, !dbg !905

bb53:                                             ; preds = %bb9, %bb7
  br label %bb54, !dbg !906

bb10:                                             ; preds = %bb8
  store i32 0, i32* %exp2, align 4, !dbg !909
  br label %bb11, !dbg !910

bb9:                                              ; preds = %bb8
  %18 = getelementptr inbounds { i64, i32 }, { i64, i32 }* %0, i32 0, i32 0, !dbg !911
  store i64 %fp_inf.0, i64* %18, align 8, !dbg !911
  %19 = getelementptr inbounds { i64, i32 }, { i64, i32 }* %0, i32 0, i32 1, !dbg !911
  store i32 %fp_inf.1, i32* %19, align 8, !dbg !911
  br label %bb53, !dbg !906

bb54:                                             ; preds = %bb52, %bb53
  br label %bb55, !dbg !912

bb11:                                             ; preds = %bb16, %bb10
  %20 = getelementptr inbounds %"core::num::dec2flt::decimal::Decimal", %"core::num::dec2flt::decimal::Decimal"* %d, i32 0, i32 1, !dbg !913
  %_15 = load i32, i32* %20, align 8, !dbg !913
  %_14 = icmp sgt i32 %_15, 0, !dbg !913
  br i1 %_14, label %bb12, label %bb17, !dbg !913

bb17:                                             ; preds = %bb11
  br label %bb18, !dbg !914

bb12:                                             ; preds = %bb11
  %21 = getelementptr inbounds %"core::num::dec2flt::decimal::Decimal", %"core::num::dec2flt::decimal::Decimal"* %d, i32 0, i32 1, !dbg !915
  %_17 = load i32, i32* %21, align 8, !dbg !915
  %n1 = sext i32 %_17 to i64, !dbg !915
  store i64 %n1, i64* %n.dbg.spill, align 8, !dbg !915
  call void @llvm.dbg.declare(metadata i64* %n.dbg.spill, metadata !871, metadata !DIExpression()), !dbg !916
  store i64 %n1, i64* %_20, align 8, !dbg !917
  %22 = load i64, i64* %_20, align 8, !dbg !917
; call core::num::dec2flt::slow::parse_long_mantissa::{{closure}}
  %shift2 = call i64 @"_ZN4core3num7dec2flt4slow19parse_long_mantissa28_$u7b$$u7b$closure$u7d$$u7d$17hbfed245ebaebca70E"(%"[closure@core::num::dec2flt::slow::parse_long_mantissa<f64>::{closure#0}]"* nonnull align 1 %get_shift, i64 %22), !dbg !917
  store i64 %shift2, i64* %shift.dbg.spill, align 8, !dbg !917
  call void @llvm.dbg.declare(metadata i64* %shift.dbg.spill, metadata !873, metadata !DIExpression()), !dbg !918
  br label %bb13, !dbg !917

bb13:                                             ; preds = %bb12
; call core::num::dec2flt::decimal::Decimal::right_shift
  call void @_ZN4core3num7dec2flt7decimal7Decimal11right_shift17h186ba9707dffccb9E(%"core::num::dec2flt::decimal::Decimal"* align 8 dereferenceable(784) %d, i64 %shift2), !dbg !919
  br label %bb14, !dbg !919

bb14:                                             ; preds = %bb13
  %23 = getelementptr inbounds %"core::num::dec2flt::decimal::Decimal", %"core::num::dec2flt::decimal::Decimal"* %d, i32 0, i32 1, !dbg !920
  %_26 = load i32, i32* %23, align 8, !dbg !920
  %_25 = icmp slt i32 %_26, -2047, !dbg !920
  br i1 %_25, label %bb15, label %bb16, !dbg !920

bb16:                                             ; preds = %bb14
  %_28 = trunc i64 %shift2 to i32, !dbg !921
  %24 = load i32, i32* %exp2, align 4, !dbg !922
  %25 = add i32 %24, %_28, !dbg !922
  store i32 %25, i32* %exp2, align 4, !dbg !922
  br label %bb11, !dbg !910

bb15:                                             ; preds = %bb14
  %26 = getelementptr inbounds { i64, i32 }, { i64, i32 }* %0, i32 0, i32 0, !dbg !923
  store i64 %fp_zero.0, i64* %26, align 8, !dbg !923
  %27 = getelementptr inbounds { i64, i32 }, { i64, i32 }* %0, i32 0, i32 1, !dbg !923
  store i32 %fp_zero.1, i32* %27, align 8, !dbg !923
  br label %bb52, !dbg !924

bb52:                                             ; preds = %bb47, %bb40, %bb30, %bb15
  br label %bb54, !dbg !906

bb18:                                             ; preds = %bb31, %bb17
  %28 = getelementptr inbounds %"core::num::dec2flt::decimal::Decimal", %"core::num::dec2flt::decimal::Decimal"* %d, i32 0, i32 1, !dbg !926
  %_31 = load i32, i32* %28, align 8, !dbg !926
  %_30 = icmp sle i32 %_31, 0, !dbg !926
  br i1 %_30, label %bb19, label %bb32, !dbg !926

bb32:                                             ; preds = %bb18
  br label %bb33, !dbg !924

bb19:                                             ; preds = %bb18
  %29 = getelementptr inbounds %"core::num::dec2flt::decimal::Decimal", %"core::num::dec2flt::decimal::Decimal"* %d, i32 0, i32 1, !dbg !927
  %_33 = load i32, i32* %29, align 8, !dbg !927
  %30 = icmp eq i32 %_33, 0, !dbg !927
  br i1 %30, label %bb20, label %bb26, !dbg !927

bb20:                                             ; preds = %bb19
  %31 = getelementptr inbounds %"core::num::dec2flt::decimal::Decimal", %"core::num::dec2flt::decimal::Decimal"* %d, i32 0, i32 3, !dbg !928
  %digit = getelementptr inbounds [768 x i8], [768 x i8]* %31, i64 0, i64 0, !dbg !928
  store i8* %digit, i8** %digit.dbg.spill, align 8, !dbg !928
  call void @llvm.dbg.declare(metadata i8** %digit.dbg.spill, metadata !879, metadata !DIExpression()), !dbg !929
  %_38 = load i8, i8* %digit, align 1, !dbg !930
  %_37 = icmp uge i8 %_38, 5, !dbg !930
  br i1 %_37, label %bb22, label %bb23, !dbg !930

bb26:                                             ; preds = %bb19
  %32 = getelementptr inbounds %"core::num::dec2flt::decimal::Decimal", %"core::num::dec2flt::decimal::Decimal"* %d, i32 0, i32 1, !dbg !931
  %_44 = load i32, i32* %32, align 8, !dbg !931
  %_43 = sub i32 0, %_44, !dbg !932
  %_42 = sext i32 %_43 to i64, !dbg !932
  store i64 %_42, i64* %_40, align 8, !dbg !933
  %33 = load i64, i64* %_40, align 8, !dbg !933
; call core::num::dec2flt::slow::parse_long_mantissa::{{closure}}
  %34 = call i64 @"_ZN4core3num7dec2flt4slow19parse_long_mantissa28_$u7b$$u7b$closure$u7d$$u7d$17hbfed245ebaebca70E"(%"[closure@core::num::dec2flt::slow::parse_long_mantissa<f64>::{closure#0}]"* nonnull align 1 %get_shift, i64 %33), !dbg !933
  store i64 %34, i64* %shift, align 8, !dbg !933
  br label %bb27, !dbg !933

bb27:                                             ; preds = %bb26
  br label %bb28, !dbg !934

bb28:                                             ; preds = %bb25, %bb27
  %_47 = load i64, i64* %shift, align 8, !dbg !935
; call core::num::dec2flt::decimal::Decimal::left_shift
  call void @_ZN4core3num7dec2flt7decimal7Decimal10left_shift17h1fb9a5e7afe46baaE(%"core::num::dec2flt::decimal::Decimal"* align 8 dereferenceable(784) %d, i64 %_47), !dbg !936
  br label %bb29, !dbg !936

bb23:                                             ; preds = %bb20
  %35 = getelementptr inbounds %"core::num::dec2flt::decimal::Decimal", %"core::num::dec2flt::decimal::Decimal"* %d, i32 0, i32 3, !dbg !937
  %36 = getelementptr inbounds [768 x i8], [768 x i8]* %35, i64 0, i64 0, !dbg !937
  %37 = load i8, i8* %36, align 1, !dbg !937
  switch i8 %37, label %bb21 [
    i8 0, label %bb24
    i8 1, label %bb24
  ], !dbg !937

bb22:                                             ; preds = %bb20
  %38 = getelementptr inbounds %"core::num::dec2flt::decimal::Decimal", %"core::num::dec2flt::decimal::Decimal"* %d, i32 0, i32 3, !dbg !928
  %39 = getelementptr inbounds [768 x i8], [768 x i8]* %38, i64 0, i64 0, !dbg !928
  %digit3 = load i8, i8* %39, align 1, !dbg !928
  store i8 %digit3, i8* %digit.dbg.spill4, align 1, !dbg !928
  call void @llvm.dbg.declare(metadata i8* %digit.dbg.spill4, metadata !877, metadata !DIExpression()), !dbg !929
  br label %bb33, !dbg !924

bb33:                                             ; preds = %bb32, %bb22
  %40 = load i32, i32* %exp2, align 4, !dbg !938
  %41 = sub i32 %40, 1, !dbg !938
  store i32 %41, i32* %exp2, align 4, !dbg !938
  br label %bb34, !dbg !939

bb21:                                             ; preds = %bb23
  store i64 1, i64* %shift, align 8, !dbg !940
  br label %bb25, !dbg !940

bb24:                                             ; preds = %bb23, %bb23
  store i64 2, i64* %shift, align 8, !dbg !941
  br label %bb25, !dbg !941

bb25:                                             ; preds = %bb24, %bb21
  br label %bb28, !dbg !934

bb29:                                             ; preds = %bb28
  %42 = getelementptr inbounds %"core::num::dec2flt::decimal::Decimal", %"core::num::dec2flt::decimal::Decimal"* %d, i32 0, i32 1, !dbg !942
  %_49 = load i32, i32* %42, align 8, !dbg !942
  %_48 = icmp sgt i32 %_49, 2047, !dbg !942
  br i1 %_48, label %bb30, label %bb31, !dbg !942

bb31:                                             ; preds = %bb29
  %_51 = load i64, i64* %shift, align 8, !dbg !943
  %_50 = trunc i64 %_51 to i32, !dbg !943
  %43 = load i32, i32* %exp2, align 4, !dbg !944
  %44 = sub i32 %43, %_50, !dbg !944
  store i32 %44, i32* %exp2, align 4, !dbg !944
  br label %bb18, !dbg !914

bb30:                                             ; preds = %bb29
  %45 = getelementptr inbounds { i64, i32 }, { i64, i32 }* %0, i32 0, i32 0, !dbg !945
  store i64 %fp_inf.0, i64* %45, align 8, !dbg !945
  %46 = getelementptr inbounds { i64, i32 }, { i64, i32 }* %0, i32 0, i32 1, !dbg !945
  store i32 %fp_inf.1, i32* %46, align 8, !dbg !945
  br label %bb52, !dbg !924

bb34:                                             ; preds = %bb38, %bb33
  %_54 = load i32, i32* %exp2, align 4, !dbg !946
  %_52 = icmp sgt i32 -1022, %_54, !dbg !947
  br i1 %_52, label %bb35, label %bb39, !dbg !947

bb39:                                             ; preds = %bb34
  %_68 = load i32, i32* %exp2, align 4, !dbg !948
  %_67 = sub i32 %_68, -1023, !dbg !949
  %_66 = icmp sge i32 %_67, 2047, !dbg !949
  br i1 %_66, label %bb40, label %bb41, !dbg !949

bb35:                                             ; preds = %bb34
  %_58 = load i32, i32* %exp2, align 4, !dbg !950
  %_56 = sub i32 -1022, %_58, !dbg !951
  %47 = sext i32 %_56 to i64, !dbg !951
  store i64 %47, i64* %n, align 8, !dbg !951
  %_60 = load i64, i64* %n, align 8, !dbg !952
  %_59 = icmp ugt i64 %_60, 60, !dbg !952
  br i1 %_59, label %bb36, label %bb37, !dbg !952

bb37:                                             ; preds = %bb36, %bb35
  %_63 = load i64, i64* %n, align 8, !dbg !953
; call core::num::dec2flt::decimal::Decimal::right_shift
  call void @_ZN4core3num7dec2flt7decimal7Decimal11right_shift17h186ba9707dffccb9E(%"core::num::dec2flt::decimal::Decimal"* align 8 dereferenceable(784) %d, i64 %_63), !dbg !954
  br label %bb38, !dbg !954

bb36:                                             ; preds = %bb35
  store i64 60, i64* %n, align 8, !dbg !955
  br label %bb37, !dbg !956

bb38:                                             ; preds = %bb37
  %_65 = load i64, i64* %n, align 8, !dbg !957
  %_64 = trunc i64 %_65 to i32, !dbg !957
  %48 = load i32, i32* %exp2, align 4, !dbg !958
  %49 = add i32 %48, %_64, !dbg !958
  store i32 %49, i32* %exp2, align 4, !dbg !958
  br label %bb34, !dbg !939

bb41:                                             ; preds = %bb39
; call core::num::dec2flt::decimal::Decimal::left_shift
  call void @_ZN4core3num7dec2flt7decimal7Decimal10left_shift17h1fb9a5e7afe46baaE(%"core::num::dec2flt::decimal::Decimal"* align 8 dereferenceable(784) %d, i64 53), !dbg !959
  br label %bb42, !dbg !959

bb40:                                             ; preds = %bb39
  %50 = getelementptr inbounds { i64, i32 }, { i64, i32 }* %0, i32 0, i32 0, !dbg !960
  store i64 %fp_inf.0, i64* %50, align 8, !dbg !960
  %51 = getelementptr inbounds { i64, i32 }, { i64, i32 }* %0, i32 0, i32 1, !dbg !960
  store i32 %fp_inf.1, i32* %51, align 8, !dbg !960
  br label %bb52, !dbg !924

bb42:                                             ; preds = %bb41
; call core::num::dec2flt::decimal::Decimal::round
  %52 = call i64 @_ZN4core3num7dec2flt7decimal7Decimal5round17h43feb4dd3873aaa7E(%"core::num::dec2flt::decimal::Decimal"* align 8 dereferenceable(784) %d), !dbg !961
  store i64 %52, i64* %mantissa, align 8, !dbg !961
  br label %bb43, !dbg !961

bb43:                                             ; preds = %bb42
  %_75 = load i64, i64* %mantissa, align 8, !dbg !962
  %_74 = icmp uge i64 %_75, 9007199254740992, !dbg !962
  br i1 %_74, label %bb44, label %bb49, !dbg !962

bb49:                                             ; preds = %bb48, %bb43
  %_86 = load i32, i32* %exp2, align 4, !dbg !963
  %53 = sub i32 %_86, -1023, !dbg !963
  store i32 %53, i32* %power2, align 4, !dbg !963
  %_88 = load i64, i64* %mantissa, align 8, !dbg !964
  %_87 = icmp ult i64 %_88, 4503599627370496, !dbg !964
  br i1 %_87, label %bb50, label %bb51, !dbg !964

bb44:                                             ; preds = %bb43
; call core::num::dec2flt::decimal::Decimal::right_shift
  call void @_ZN4core3num7dec2flt7decimal7Decimal11right_shift17h186ba9707dffccb9E(%"core::num::dec2flt::decimal::Decimal"* align 8 dereferenceable(784) %d, i64 1), !dbg !965
  br label %bb45, !dbg !965

bb45:                                             ; preds = %bb44
  %54 = load i32, i32* %exp2, align 4, !dbg !966
  %55 = add i32 %54, 1, !dbg !966
  store i32 %55, i32* %exp2, align 4, !dbg !966
; call core::num::dec2flt::decimal::Decimal::round
  %_80 = call i64 @_ZN4core3num7dec2flt7decimal7Decimal5round17h43feb4dd3873aaa7E(%"core::num::dec2flt::decimal::Decimal"* align 8 dereferenceable(784) %d), !dbg !967
  br label %bb46, !dbg !967

bb46:                                             ; preds = %bb45
  store i64 %_80, i64* %mantissa, align 8, !dbg !968
  %_84 = load i32, i32* %exp2, align 4, !dbg !969
  %_83 = sub i32 %_84, -1023, !dbg !970
  %_82 = icmp sge i32 %_83, 2047, !dbg !970
  br i1 %_82, label %bb47, label %bb48, !dbg !970

bb48:                                             ; preds = %bb46
  br label %bb49, !dbg !971

bb47:                                             ; preds = %bb46
  %56 = getelementptr inbounds { i64, i32 }, { i64, i32 }* %0, i32 0, i32 0, !dbg !972
  store i64 %fp_inf.0, i64* %56, align 8, !dbg !972
  %57 = getelementptr inbounds { i64, i32 }, { i64, i32 }* %0, i32 0, i32 1, !dbg !972
  store i32 %fp_inf.1, i32* %57, align 8, !dbg !972
  br label %bb52, !dbg !924

bb55:                                             ; preds = %bb51, %bb54
  %58 = getelementptr inbounds { i64, i32 }, { i64, i32 }* %0, i32 0, i32 0, !dbg !912
  %59 = load i64, i64* %58, align 8, !dbg !912
  %60 = getelementptr inbounds { i64, i32 }, { i64, i32 }* %0, i32 0, i32 1, !dbg !912
  %61 = load i32, i32* %60, align 8, !dbg !912
  %62 = insertvalue { i64, i32 } undef, i64 %59, 0, !dbg !912
  %63 = insertvalue { i64, i32 } %62, i32 %61, 1, !dbg !912
  ret { i64, i32 } %63, !dbg !912

bb51:                                             ; preds = %bb50, %bb49
  %64 = load i64, i64* %mantissa, align 8, !dbg !973
  %65 = and i64 %64, 4503599627370495, !dbg !973
  store i64 %65, i64* %mantissa, align 8, !dbg !973
  %_92 = load i64, i64* %mantissa, align 8, !dbg !974
  %_93 = load i32, i32* %power2, align 4, !dbg !975
  %66 = bitcast { i64, i32 }* %0 to i64*, !dbg !976
  store i64 %_92, i64* %66, align 8, !dbg !976
  %67 = getelementptr inbounds { i64, i32 }, { i64, i32 }* %0, i32 0, i32 1, !dbg !976
  store i32 %_93, i32* %67, align 8, !dbg !976
  br label %bb55, !dbg !912

bb50:                                             ; preds = %bb49
  %68 = load i32, i32* %power2, align 4, !dbg !977
  %69 = sub i32 %68, 1, !dbg !977
  store i32 %69, i32* %power2, align 4, !dbg !977
  br label %bb51, !dbg !978
}

; core::num::dec2flt::slow::parse_long_mantissa
; Function Attrs: nounwind
define { i64, i32 } @_ZN4core3num7dec2flt4slow19parse_long_mantissa17h62bb7aad644caa2fE([0 x i8]* nonnull align 1 %s.0, i64 %s.1) unnamed_addr #1 !dbg !979 {
start:
  %digit.dbg.spill4 = alloca i8, align 1
  %digit.dbg.spill = alloca i8*, align 8
  %shift.dbg.spill = alloca i64, align 8
  %n.dbg.spill = alloca i64, align 8
  %fp_inf.dbg.spill = alloca { i64, i32 }, align 8
  %fp_zero.dbg.spill = alloca { i64, i32 }, align 8
  %s.dbg.spill = alloca { [0 x i8]*, i64 }, align 8
  %power2 = alloca i32, align 4
  %mantissa = alloca i64, align 8
  %n = alloca i64, align 8
  %_40 = alloca i64, align 8
  %shift = alloca i64, align 8
  %_20 = alloca i64, align 8
  %exp2 = alloca i32, align 4
  %_7 = alloca i8, align 1
  %d = alloca %"core::num::dec2flt::decimal::Decimal", align 8
  %get_shift = alloca %"[closure@core::num::dec2flt::slow::parse_long_mantissa<f32>::{closure#0}]", align 1
  %0 = alloca { i64, i32 }, align 8
  %1 = getelementptr inbounds { [0 x i8]*, i64 }, { [0 x i8]*, i64 }* %s.dbg.spill, i32 0, i32 0
  store [0 x i8]* %s.0, [0 x i8]** %1, align 8
  %2 = getelementptr inbounds { [0 x i8]*, i64 }, { [0 x i8]*, i64 }* %s.dbg.spill, i32 0, i32 1
  store i64 %s.1, i64* %2, align 8
  call void @llvm.dbg.declare(metadata { [0 x i8]*, i64 }* %s.dbg.spill, metadata !981, metadata !DIExpression()), !dbg !1010
  call void @llvm.dbg.declare(metadata %"[closure@core::num::dec2flt::slow::parse_long_mantissa<f32>::{closure#0}]"* %get_shift, metadata !982, metadata !DIExpression()), !dbg !1011
  call void @llvm.dbg.declare(metadata %"core::num::dec2flt::decimal::Decimal"* %d, metadata !989, metadata !DIExpression()), !dbg !1012
  call void @llvm.dbg.declare(metadata i32* %exp2, metadata !991, metadata !DIExpression()), !dbg !1013
  call void @llvm.dbg.declare(metadata i64* %shift, metadata !997, metadata !DIExpression()), !dbg !1014
  call void @llvm.dbg.declare(metadata i64* %n, metadata !1002, metadata !DIExpression()), !dbg !1015
  call void @llvm.dbg.declare(metadata i64* %mantissa, metadata !1004, metadata !DIExpression()), !dbg !1016
  call void @llvm.dbg.declare(metadata i32* %power2, metadata !1006, metadata !DIExpression()), !dbg !1017
; call core::num::dec2flt::common::BiasedFp::zero_pow2
  %3 = call { i64, i32 } @_ZN4core3num7dec2flt6common8BiasedFp9zero_pow217h27f36e273a7655ddE(i32 0), !dbg !1018
  %fp_zero.0 = extractvalue { i64, i32 } %3, 0, !dbg !1018
  %fp_zero.1 = extractvalue { i64, i32 } %3, 1, !dbg !1018
  %4 = getelementptr inbounds { i64, i32 }, { i64, i32 }* %fp_zero.dbg.spill, i32 0, i32 0, !dbg !1018
  store i64 %fp_zero.0, i64* %4, align 8, !dbg !1018
  %5 = getelementptr inbounds { i64, i32 }, { i64, i32 }* %fp_zero.dbg.spill, i32 0, i32 1, !dbg !1018
  store i32 %fp_zero.1, i32* %5, align 8, !dbg !1018
  call void @llvm.dbg.declare(metadata { i64, i32 }* %fp_zero.dbg.spill, metadata !985, metadata !DIExpression()), !dbg !1019
  br label %bb1, !dbg !1018

bb1:                                              ; preds = %start
; call core::num::dec2flt::common::BiasedFp::zero_pow2
  %6 = call { i64, i32 } @_ZN4core3num7dec2flt6common8BiasedFp9zero_pow217h27f36e273a7655ddE(i32 255), !dbg !1020
  %fp_inf.0 = extractvalue { i64, i32 } %6, 0, !dbg !1020
  %fp_inf.1 = extractvalue { i64, i32 } %6, 1, !dbg !1020
  %7 = getelementptr inbounds { i64, i32 }, { i64, i32 }* %fp_inf.dbg.spill, i32 0, i32 0, !dbg !1020
  store i64 %fp_inf.0, i64* %7, align 8, !dbg !1020
  %8 = getelementptr inbounds { i64, i32 }, { i64, i32 }* %fp_inf.dbg.spill, i32 0, i32 1, !dbg !1020
  store i32 %fp_inf.1, i32* %8, align 8, !dbg !1020
  call void @llvm.dbg.declare(metadata { i64, i32 }* %fp_inf.dbg.spill, metadata !987, metadata !DIExpression()), !dbg !1021
  br label %bb2, !dbg !1020

bb2:                                              ; preds = %bb1
; call core::num::dec2flt::decimal::parse_decimal
  call void @_ZN4core3num7dec2flt7decimal13parse_decimal17h6f1c7f033d9ec072E(%"core::num::dec2flt::decimal::Decimal"* noalias nocapture sret(%"core::num::dec2flt::decimal::Decimal") dereferenceable(784) %d, [0 x i8]* nonnull align 1 %s.0, i64 %s.1), !dbg !1022
  br label %bb3, !dbg !1022

bb3:                                              ; preds = %bb2
  %9 = bitcast %"core::num::dec2flt::decimal::Decimal"* %d to i64*, !dbg !1023
  %_8 = load i64, i64* %9, align 8, !dbg !1023
  %10 = icmp eq i64 %_8, 0, !dbg !1023
  br i1 %10, label %bb4, label %bb5, !dbg !1023

bb4:                                              ; preds = %bb3
  store i8 1, i8* %_7, align 1, !dbg !1023
  br label %bb6, !dbg !1023

bb5:                                              ; preds = %bb3
  %11 = getelementptr inbounds %"core::num::dec2flt::decimal::Decimal", %"core::num::dec2flt::decimal::Decimal"* %d, i32 0, i32 1, !dbg !1024
  %_10 = load i32, i32* %11, align 8, !dbg !1024
  %_9 = icmp slt i32 %_10, -324, !dbg !1024
  %12 = zext i1 %_9 to i8, !dbg !1023
  store i8 %12, i8* %_7, align 1, !dbg !1023
  br label %bb6, !dbg !1023

bb6:                                              ; preds = %bb4, %bb5
  %13 = load i8, i8* %_7, align 1, !dbg !1023, !range !238
  %14 = trunc i8 %13 to i1, !dbg !1023
  br i1 %14, label %bb7, label %bb8, !dbg !1023

bb8:                                              ; preds = %bb6
  %15 = getelementptr inbounds %"core::num::dec2flt::decimal::Decimal", %"core::num::dec2flt::decimal::Decimal"* %d, i32 0, i32 1, !dbg !1025
  %_12 = load i32, i32* %15, align 8, !dbg !1025
  %_11 = icmp sge i32 %_12, 310, !dbg !1025
  br i1 %_11, label %bb9, label %bb10, !dbg !1025

bb7:                                              ; preds = %bb6
  %16 = getelementptr inbounds { i64, i32 }, { i64, i32 }* %0, i32 0, i32 0, !dbg !1026
  store i64 %fp_zero.0, i64* %16, align 8, !dbg !1026
  %17 = getelementptr inbounds { i64, i32 }, { i64, i32 }* %0, i32 0, i32 1, !dbg !1026
  store i32 %fp_zero.1, i32* %17, align 8, !dbg !1026
  br label %bb53, !dbg !1027

bb53:                                             ; preds = %bb9, %bb7
  br label %bb54, !dbg !1028

bb10:                                             ; preds = %bb8
  store i32 0, i32* %exp2, align 4, !dbg !1030
  br label %bb11, !dbg !1031

bb9:                                              ; preds = %bb8
  %18 = getelementptr inbounds { i64, i32 }, { i64, i32 }* %0, i32 0, i32 0, !dbg !1032
  store i64 %fp_inf.0, i64* %18, align 8, !dbg !1032
  %19 = getelementptr inbounds { i64, i32 }, { i64, i32 }* %0, i32 0, i32 1, !dbg !1032
  store i32 %fp_inf.1, i32* %19, align 8, !dbg !1032
  br label %bb53, !dbg !1028

bb54:                                             ; preds = %bb52, %bb53
  br label %bb55, !dbg !1033

bb11:                                             ; preds = %bb16, %bb10
  %20 = getelementptr inbounds %"core::num::dec2flt::decimal::Decimal", %"core::num::dec2flt::decimal::Decimal"* %d, i32 0, i32 1, !dbg !1034
  %_15 = load i32, i32* %20, align 8, !dbg !1034
  %_14 = icmp sgt i32 %_15, 0, !dbg !1034
  br i1 %_14, label %bb12, label %bb17, !dbg !1034

bb17:                                             ; preds = %bb11
  br label %bb18, !dbg !1035

bb12:                                             ; preds = %bb11
  %21 = getelementptr inbounds %"core::num::dec2flt::decimal::Decimal", %"core::num::dec2flt::decimal::Decimal"* %d, i32 0, i32 1, !dbg !1036
  %_17 = load i32, i32* %21, align 8, !dbg !1036
  %n1 = sext i32 %_17 to i64, !dbg !1036
  store i64 %n1, i64* %n.dbg.spill, align 8, !dbg !1036
  call void @llvm.dbg.declare(metadata i64* %n.dbg.spill, metadata !993, metadata !DIExpression()), !dbg !1037
  store i64 %n1, i64* %_20, align 8, !dbg !1038
  %22 = load i64, i64* %_20, align 8, !dbg !1038
; call core::num::dec2flt::slow::parse_long_mantissa::{{closure}}
  %shift2 = call i64 @"_ZN4core3num7dec2flt4slow19parse_long_mantissa28_$u7b$$u7b$closure$u7d$$u7d$17hacbee32165cf28c3E"(%"[closure@core::num::dec2flt::slow::parse_long_mantissa<f32>::{closure#0}]"* nonnull align 1 %get_shift, i64 %22), !dbg !1038
  store i64 %shift2, i64* %shift.dbg.spill, align 8, !dbg !1038
  call void @llvm.dbg.declare(metadata i64* %shift.dbg.spill, metadata !995, metadata !DIExpression()), !dbg !1039
  br label %bb13, !dbg !1038

bb13:                                             ; preds = %bb12
; call core::num::dec2flt::decimal::Decimal::right_shift
  call void @_ZN4core3num7dec2flt7decimal7Decimal11right_shift17h186ba9707dffccb9E(%"core::num::dec2flt::decimal::Decimal"* align 8 dereferenceable(784) %d, i64 %shift2), !dbg !1040
  br label %bb14, !dbg !1040

bb14:                                             ; preds = %bb13
  %23 = getelementptr inbounds %"core::num::dec2flt::decimal::Decimal", %"core::num::dec2flt::decimal::Decimal"* %d, i32 0, i32 1, !dbg !1041
  %_26 = load i32, i32* %23, align 8, !dbg !1041
  %_25 = icmp slt i32 %_26, -2047, !dbg !1041
  br i1 %_25, label %bb15, label %bb16, !dbg !1041

bb16:                                             ; preds = %bb14
  %_28 = trunc i64 %shift2 to i32, !dbg !1042
  %24 = load i32, i32* %exp2, align 4, !dbg !1043
  %25 = add i32 %24, %_28, !dbg !1043
  store i32 %25, i32* %exp2, align 4, !dbg !1043
  br label %bb11, !dbg !1031

bb15:                                             ; preds = %bb14
  %26 = getelementptr inbounds { i64, i32 }, { i64, i32 }* %0, i32 0, i32 0, !dbg !1044
  store i64 %fp_zero.0, i64* %26, align 8, !dbg !1044
  %27 = getelementptr inbounds { i64, i32 }, { i64, i32 }* %0, i32 0, i32 1, !dbg !1044
  store i32 %fp_zero.1, i32* %27, align 8, !dbg !1044
  br label %bb52, !dbg !1045

bb52:                                             ; preds = %bb47, %bb40, %bb30, %bb15
  br label %bb54, !dbg !1028

bb18:                                             ; preds = %bb31, %bb17
  %28 = getelementptr inbounds %"core::num::dec2flt::decimal::Decimal", %"core::num::dec2flt::decimal::Decimal"* %d, i32 0, i32 1, !dbg !1047
  %_31 = load i32, i32* %28, align 8, !dbg !1047
  %_30 = icmp sle i32 %_31, 0, !dbg !1047
  br i1 %_30, label %bb19, label %bb32, !dbg !1047

bb32:                                             ; preds = %bb18
  br label %bb33, !dbg !1045

bb19:                                             ; preds = %bb18
  %29 = getelementptr inbounds %"core::num::dec2flt::decimal::Decimal", %"core::num::dec2flt::decimal::Decimal"* %d, i32 0, i32 1, !dbg !1048
  %_33 = load i32, i32* %29, align 8, !dbg !1048
  %30 = icmp eq i32 %_33, 0, !dbg !1048
  br i1 %30, label %bb20, label %bb26, !dbg !1048

bb20:                                             ; preds = %bb19
  %31 = getelementptr inbounds %"core::num::dec2flt::decimal::Decimal", %"core::num::dec2flt::decimal::Decimal"* %d, i32 0, i32 3, !dbg !1049
  %digit = getelementptr inbounds [768 x i8], [768 x i8]* %31, i64 0, i64 0, !dbg !1049
  store i8* %digit, i8** %digit.dbg.spill, align 8, !dbg !1049
  call void @llvm.dbg.declare(metadata i8** %digit.dbg.spill, metadata !1001, metadata !DIExpression()), !dbg !1050
  %_38 = load i8, i8* %digit, align 1, !dbg !1051
  %_37 = icmp uge i8 %_38, 5, !dbg !1051
  br i1 %_37, label %bb22, label %bb23, !dbg !1051

bb26:                                             ; preds = %bb19
  %32 = getelementptr inbounds %"core::num::dec2flt::decimal::Decimal", %"core::num::dec2flt::decimal::Decimal"* %d, i32 0, i32 1, !dbg !1052
  %_44 = load i32, i32* %32, align 8, !dbg !1052
  %_43 = sub i32 0, %_44, !dbg !1053
  %_42 = sext i32 %_43 to i64, !dbg !1053
  store i64 %_42, i64* %_40, align 8, !dbg !1054
  %33 = load i64, i64* %_40, align 8, !dbg !1054
; call core::num::dec2flt::slow::parse_long_mantissa::{{closure}}
  %34 = call i64 @"_ZN4core3num7dec2flt4slow19parse_long_mantissa28_$u7b$$u7b$closure$u7d$$u7d$17hacbee32165cf28c3E"(%"[closure@core::num::dec2flt::slow::parse_long_mantissa<f32>::{closure#0}]"* nonnull align 1 %get_shift, i64 %33), !dbg !1054
  store i64 %34, i64* %shift, align 8, !dbg !1054
  br label %bb27, !dbg !1054

bb27:                                             ; preds = %bb26
  br label %bb28, !dbg !1055

bb28:                                             ; preds = %bb25, %bb27
  %_47 = load i64, i64* %shift, align 8, !dbg !1056
; call core::num::dec2flt::decimal::Decimal::left_shift
  call void @_ZN4core3num7dec2flt7decimal7Decimal10left_shift17h1fb9a5e7afe46baaE(%"core::num::dec2flt::decimal::Decimal"* align 8 dereferenceable(784) %d, i64 %_47), !dbg !1057
  br label %bb29, !dbg !1057

bb23:                                             ; preds = %bb20
  %35 = getelementptr inbounds %"core::num::dec2flt::decimal::Decimal", %"core::num::dec2flt::decimal::Decimal"* %d, i32 0, i32 3, !dbg !1058
  %36 = getelementptr inbounds [768 x i8], [768 x i8]* %35, i64 0, i64 0, !dbg !1058
  %37 = load i8, i8* %36, align 1, !dbg !1058
  switch i8 %37, label %bb21 [
    i8 0, label %bb24
    i8 1, label %bb24
  ], !dbg !1058

bb22:                                             ; preds = %bb20
  %38 = getelementptr inbounds %"core::num::dec2flt::decimal::Decimal", %"core::num::dec2flt::decimal::Decimal"* %d, i32 0, i32 3, !dbg !1049
  %39 = getelementptr inbounds [768 x i8], [768 x i8]* %38, i64 0, i64 0, !dbg !1049
  %digit3 = load i8, i8* %39, align 1, !dbg !1049
  store i8 %digit3, i8* %digit.dbg.spill4, align 1, !dbg !1049
  call void @llvm.dbg.declare(metadata i8* %digit.dbg.spill4, metadata !999, metadata !DIExpression()), !dbg !1050
  br label %bb33, !dbg !1045

bb33:                                             ; preds = %bb32, %bb22
  %40 = load i32, i32* %exp2, align 4, !dbg !1059
  %41 = sub i32 %40, 1, !dbg !1059
  store i32 %41, i32* %exp2, align 4, !dbg !1059
  br label %bb34, !dbg !1060

bb21:                                             ; preds = %bb23
  store i64 1, i64* %shift, align 8, !dbg !1061
  br label %bb25, !dbg !1061

bb24:                                             ; preds = %bb23, %bb23
  store i64 2, i64* %shift, align 8, !dbg !1062
  br label %bb25, !dbg !1062

bb25:                                             ; preds = %bb24, %bb21
  br label %bb28, !dbg !1055

bb29:                                             ; preds = %bb28
  %42 = getelementptr inbounds %"core::num::dec2flt::decimal::Decimal", %"core::num::dec2flt::decimal::Decimal"* %d, i32 0, i32 1, !dbg !1063
  %_49 = load i32, i32* %42, align 8, !dbg !1063
  %_48 = icmp sgt i32 %_49, 2047, !dbg !1063
  br i1 %_48, label %bb30, label %bb31, !dbg !1063

bb31:                                             ; preds = %bb29
  %_51 = load i64, i64* %shift, align 8, !dbg !1064
  %_50 = trunc i64 %_51 to i32, !dbg !1064
  %43 = load i32, i32* %exp2, align 4, !dbg !1065
  %44 = sub i32 %43, %_50, !dbg !1065
  store i32 %44, i32* %exp2, align 4, !dbg !1065
  br label %bb18, !dbg !1035

bb30:                                             ; preds = %bb29
  %45 = getelementptr inbounds { i64, i32 }, { i64, i32 }* %0, i32 0, i32 0, !dbg !1066
  store i64 %fp_inf.0, i64* %45, align 8, !dbg !1066
  %46 = getelementptr inbounds { i64, i32 }, { i64, i32 }* %0, i32 0, i32 1, !dbg !1066
  store i32 %fp_inf.1, i32* %46, align 8, !dbg !1066
  br label %bb52, !dbg !1045

bb34:                                             ; preds = %bb38, %bb33
  %_54 = load i32, i32* %exp2, align 4, !dbg !1067
  %_52 = icmp sgt i32 -126, %_54, !dbg !1068
  br i1 %_52, label %bb35, label %bb39, !dbg !1068

bb39:                                             ; preds = %bb34
  %_68 = load i32, i32* %exp2, align 4, !dbg !1069
  %_67 = sub i32 %_68, -127, !dbg !1070
  %_66 = icmp sge i32 %_67, 255, !dbg !1070
  br i1 %_66, label %bb40, label %bb41, !dbg !1070

bb35:                                             ; preds = %bb34
  %_58 = load i32, i32* %exp2, align 4, !dbg !1071
  %_56 = sub i32 -126, %_58, !dbg !1072
  %47 = sext i32 %_56 to i64, !dbg !1072
  store i64 %47, i64* %n, align 8, !dbg !1072
  %_60 = load i64, i64* %n, align 8, !dbg !1073
  %_59 = icmp ugt i64 %_60, 60, !dbg !1073
  br i1 %_59, label %bb36, label %bb37, !dbg !1073

bb37:                                             ; preds = %bb36, %bb35
  %_63 = load i64, i64* %n, align 8, !dbg !1074
; call core::num::dec2flt::decimal::Decimal::right_shift
  call void @_ZN4core3num7dec2flt7decimal7Decimal11right_shift17h186ba9707dffccb9E(%"core::num::dec2flt::decimal::Decimal"* align 8 dereferenceable(784) %d, i64 %_63), !dbg !1075
  br label %bb38, !dbg !1075

bb36:                                             ; preds = %bb35
  store i64 60, i64* %n, align 8, !dbg !1076
  br label %bb37, !dbg !1077

bb38:                                             ; preds = %bb37
  %_65 = load i64, i64* %n, align 8, !dbg !1078
  %_64 = trunc i64 %_65 to i32, !dbg !1078
  %48 = load i32, i32* %exp2, align 4, !dbg !1079
  %49 = add i32 %48, %_64, !dbg !1079
  store i32 %49, i32* %exp2, align 4, !dbg !1079
  br label %bb34, !dbg !1060

bb41:                                             ; preds = %bb39
; call core::num::dec2flt::decimal::Decimal::left_shift
  call void @_ZN4core3num7dec2flt7decimal7Decimal10left_shift17h1fb9a5e7afe46baaE(%"core::num::dec2flt::decimal::Decimal"* align 8 dereferenceable(784) %d, i64 24), !dbg !1080
  br label %bb42, !dbg !1080

bb40:                                             ; preds = %bb39
  %50 = getelementptr inbounds { i64, i32 }, { i64, i32 }* %0, i32 0, i32 0, !dbg !1081
  store i64 %fp_inf.0, i64* %50, align 8, !dbg !1081
  %51 = getelementptr inbounds { i64, i32 }, { i64, i32 }* %0, i32 0, i32 1, !dbg !1081
  store i32 %fp_inf.1, i32* %51, align 8, !dbg !1081
  br label %bb52, !dbg !1045

bb42:                                             ; preds = %bb41
; call core::num::dec2flt::decimal::Decimal::round
  %52 = call i64 @_ZN4core3num7dec2flt7decimal7Decimal5round17h43feb4dd3873aaa7E(%"core::num::dec2flt::decimal::Decimal"* align 8 dereferenceable(784) %d), !dbg !1082
  store i64 %52, i64* %mantissa, align 8, !dbg !1082
  br label %bb43, !dbg !1082

bb43:                                             ; preds = %bb42
  %_75 = load i64, i64* %mantissa, align 8, !dbg !1083
  %_74 = icmp uge i64 %_75, 16777216, !dbg !1083
  br i1 %_74, label %bb44, label %bb49, !dbg !1083

bb49:                                             ; preds = %bb48, %bb43
  %_86 = load i32, i32* %exp2, align 4, !dbg !1084
  %53 = sub i32 %_86, -127, !dbg !1084
  store i32 %53, i32* %power2, align 4, !dbg !1084
  %_88 = load i64, i64* %mantissa, align 8, !dbg !1085
  %_87 = icmp ult i64 %_88, 8388608, !dbg !1085
  br i1 %_87, label %bb50, label %bb51, !dbg !1085

bb44:                                             ; preds = %bb43
; call core::num::dec2flt::decimal::Decimal::right_shift
  call void @_ZN4core3num7dec2flt7decimal7Decimal11right_shift17h186ba9707dffccb9E(%"core::num::dec2flt::decimal::Decimal"* align 8 dereferenceable(784) %d, i64 1), !dbg !1086
  br label %bb45, !dbg !1086

bb45:                                             ; preds = %bb44
  %54 = load i32, i32* %exp2, align 4, !dbg !1087
  %55 = add i32 %54, 1, !dbg !1087
  store i32 %55, i32* %exp2, align 4, !dbg !1087
; call core::num::dec2flt::decimal::Decimal::round
  %_80 = call i64 @_ZN4core3num7dec2flt7decimal7Decimal5round17h43feb4dd3873aaa7E(%"core::num::dec2flt::decimal::Decimal"* align 8 dereferenceable(784) %d), !dbg !1088
  br label %bb46, !dbg !1088

bb46:                                             ; preds = %bb45
  store i64 %_80, i64* %mantissa, align 8, !dbg !1089
  %_84 = load i32, i32* %exp2, align 4, !dbg !1090
  %_83 = sub i32 %_84, -127, !dbg !1091
  %_82 = icmp sge i32 %_83, 255, !dbg !1091
  br i1 %_82, label %bb47, label %bb48, !dbg !1091

bb48:                                             ; preds = %bb46
  br label %bb49, !dbg !1092

bb47:                                             ; preds = %bb46
  %56 = getelementptr inbounds { i64, i32 }, { i64, i32 }* %0, i32 0, i32 0, !dbg !1093
  store i64 %fp_inf.0, i64* %56, align 8, !dbg !1093
  %57 = getelementptr inbounds { i64, i32 }, { i64, i32 }* %0, i32 0, i32 1, !dbg !1093
  store i32 %fp_inf.1, i32* %57, align 8, !dbg !1093
  br label %bb52, !dbg !1045

bb55:                                             ; preds = %bb51, %bb54
  %58 = getelementptr inbounds { i64, i32 }, { i64, i32 }* %0, i32 0, i32 0, !dbg !1033
  %59 = load i64, i64* %58, align 8, !dbg !1033
  %60 = getelementptr inbounds { i64, i32 }, { i64, i32 }* %0, i32 0, i32 1, !dbg !1033
  %61 = load i32, i32* %60, align 8, !dbg !1033
  %62 = insertvalue { i64, i32 } undef, i64 %59, 0, !dbg !1033
  %63 = insertvalue { i64, i32 } %62, i32 %61, 1, !dbg !1033
  ret { i64, i32 } %63, !dbg !1033

bb51:                                             ; preds = %bb50, %bb49
  %64 = load i64, i64* %mantissa, align 8, !dbg !1094
  %65 = and i64 %64, 8388607, !dbg !1094
  store i64 %65, i64* %mantissa, align 8, !dbg !1094
  %_92 = load i64, i64* %mantissa, align 8, !dbg !1095
  %_93 = load i32, i32* %power2, align 4, !dbg !1096
  %66 = bitcast { i64, i32 }* %0 to i64*, !dbg !1097
  store i64 %_92, i64* %66, align 8, !dbg !1097
  %67 = getelementptr inbounds { i64, i32 }, { i64, i32 }* %0, i32 0, i32 1, !dbg !1097
  store i32 %_93, i32* %67, align 8, !dbg !1097
  br label %bb55, !dbg !1033

bb50:                                             ; preds = %bb49
  %68 = load i32, i32* %power2, align 4, !dbg !1098
  %69 = sub i32 %68, 1, !dbg !1098
  store i32 %69, i32* %power2, align 4, !dbg !1098
  br label %bb51, !dbg !1099
}

; core::num::dec2flt::slow::parse_long_mantissa::{{closure}}
; Function Attrs: inlinehint nounwind
define i64 @"_ZN4core3num7dec2flt4slow19parse_long_mantissa28_$u7b$$u7b$closure$u7d$$u7d$17hacbee32165cf28c3E"(%"[closure@core::num::dec2flt::slow::parse_long_mantissa<f32>::{closure#0}]"* nonnull align 1 %_1, i64 %n) unnamed_addr #0 !dbg !1100 {
start:
  %n.dbg.spill = alloca i64, align 8
  %_1.dbg.spill = alloca %"[closure@core::num::dec2flt::slow::parse_long_mantissa<f32>::{closure#0}]"*, align 8
  %_6 = alloca [19 x i8], align 1
  %0 = alloca i64, align 8
  store %"[closure@core::num::dec2flt::slow::parse_long_mantissa<f32>::{closure#0}]"* %_1, %"[closure@core::num::dec2flt::slow::parse_long_mantissa<f32>::{closure#0}]"** %_1.dbg.spill, align 8
  call void @llvm.dbg.declare(metadata %"[closure@core::num::dec2flt::slow::parse_long_mantissa<f32>::{closure#0}]"** %_1.dbg.spill, metadata !1106, metadata !DIExpression()), !dbg !1107
  store i64 %n, i64* %n.dbg.spill, align 8
  call void @llvm.dbg.declare(metadata i64* %n.dbg.spill, metadata !1105, metadata !DIExpression()), !dbg !1108
  %_3 = icmp ult i64 %n, 19, !dbg !1109
  br i1 %_3, label %bb1, label %bb3, !dbg !1109

bb3:                                              ; preds = %start
  store i64 60, i64* %0, align 8, !dbg !1110
  br label %bb4, !dbg !1111

bb1:                                              ; preds = %start
  %1 = bitcast [19 x i8]* %_6 to i8*, !dbg !1112
  call void @llvm.memcpy.p0i8.p0i8.i64(i8* align 1 %1, i8* align 1 getelementptr inbounds (<{ [19 x i8] }>, <{ [19 x i8] }>* @0, i32 0, i32 0, i32 0), i64 19, i1 false), !dbg !1112
  %_9 = icmp ult i64 %n, 19, !dbg !1112
  %2 = call i1 @llvm.expect.i1(i1 %_9, i1 true), !dbg !1112
  br i1 %2, label %bb2, label %panic, !dbg !1112

bb2:                                              ; preds = %bb1
  %3 = getelementptr inbounds [19 x i8], [19 x i8]* %_6, i64 0, i64 %n, !dbg !1112
  %_5 = load i8, i8* %3, align 1, !dbg !1112
  %4 = zext i8 %_5 to i64, !dbg !1112
  store i64 %4, i64* %0, align 8, !dbg !1112
  br label %bb4, !dbg !1111

panic:                                            ; preds = %bb1
; call core::panicking::panic_bounds_check
  call void @_ZN4core9panicking18panic_bounds_check17h865b4c1c7f870517E(i64 %n, i64 19, %"core::panic::Location"* align 8 dereferenceable(24) bitcast (<{ i8*, [16 x i8] }>* @alloc2946 to %"core::panic::Location"*)), !dbg !1112
  unreachable, !dbg !1112

bb4:                                              ; preds = %bb3, %bb2
  %5 = load i64, i64* %0, align 8, !dbg !1113
  ret i64 %5, !dbg !1113
}

; core::num::dec2flt::slow::parse_long_mantissa::{{closure}}
; Function Attrs: inlinehint nounwind
define i64 @"_ZN4core3num7dec2flt4slow19parse_long_mantissa28_$u7b$$u7b$closure$u7d$$u7d$17hbfed245ebaebca70E"(%"[closure@core::num::dec2flt::slow::parse_long_mantissa<f64>::{closure#0}]"* nonnull align 1 %_1, i64 %n) unnamed_addr #0 !dbg !1114 {
start:
  %n.dbg.spill = alloca i64, align 8
  %_1.dbg.spill = alloca %"[closure@core::num::dec2flt::slow::parse_long_mantissa<f64>::{closure#0}]"*, align 8
  %_6 = alloca [19 x i8], align 1
  %0 = alloca i64, align 8
  store %"[closure@core::num::dec2flt::slow::parse_long_mantissa<f64>::{closure#0}]"* %_1, %"[closure@core::num::dec2flt::slow::parse_long_mantissa<f64>::{closure#0}]"** %_1.dbg.spill, align 8
  call void @llvm.dbg.declare(metadata %"[closure@core::num::dec2flt::slow::parse_long_mantissa<f64>::{closure#0}]"** %_1.dbg.spill, metadata !1120, metadata !DIExpression()), !dbg !1121
  store i64 %n, i64* %n.dbg.spill, align 8
  call void @llvm.dbg.declare(metadata i64* %n.dbg.spill, metadata !1119, metadata !DIExpression()), !dbg !1122
  %_3 = icmp ult i64 %n, 19, !dbg !1123
  br i1 %_3, label %bb1, label %bb3, !dbg !1123

bb3:                                              ; preds = %start
  store i64 60, i64* %0, align 8, !dbg !1124
  br label %bb4, !dbg !1125

bb1:                                              ; preds = %start
  %1 = bitcast [19 x i8]* %_6 to i8*, !dbg !1126
  call void @llvm.memcpy.p0i8.p0i8.i64(i8* align 1 %1, i8* align 1 getelementptr inbounds (<{ [19 x i8] }>, <{ [19 x i8] }>* @0, i32 0, i32 0, i32 0), i64 19, i1 false), !dbg !1126
  %_9 = icmp ult i64 %n, 19, !dbg !1126
  %2 = call i1 @llvm.expect.i1(i1 %_9, i1 true), !dbg !1126
  br i1 %2, label %bb2, label %panic, !dbg !1126

bb2:                                              ; preds = %bb1
  %3 = getelementptr inbounds [19 x i8], [19 x i8]* %_6, i64 0, i64 %n, !dbg !1126
  %_5 = load i8, i8* %3, align 1, !dbg !1126
  %4 = zext i8 %_5 to i64, !dbg !1126
  store i64 %4, i64* %0, align 8, !dbg !1126
  br label %bb4, !dbg !1125

panic:                                            ; preds = %bb1
; call core::panicking::panic_bounds_check
  call void @_ZN4core9panicking18panic_bounds_check17h865b4c1c7f870517E(i64 %n, i64 19, %"core::panic::Location"* align 8 dereferenceable(24) bitcast (<{ i8*, [16 x i8] }>* @alloc2946 to %"core::panic::Location"*)), !dbg !1126
  unreachable, !dbg !1126

bb4:                                              ; preds = %bb3, %bb2
  %5 = load i64, i64* %0, align 8, !dbg !1127
  ret i64 %5, !dbg !1127
}

; core::num::dec2flt::parse::parse_inf_nan
; Function Attrs: nounwind
define { i64, double } @_ZN4core3num7dec2flt5parse13parse_inf_nan17h2ed54d37b5155d4fE([0 x i8]* nonnull align 1 %s.0, i64 %s.1, i1 zeroext %negative) unnamed_addr #1 !dbg !1128 {
start:
  %rest.dbg.spill = alloca i64, align 8
  %negative.dbg.spill = alloca i8, align 1
  %s.dbg.spill = alloca { [0 x i8]*, i64 }, align 8
  %float = alloca double, align 8
  %_3 = alloca %"core::option::Option<(f64, usize)>", align 8
  %0 = alloca { i64, double }, align 8
  %1 = getelementptr inbounds { [0 x i8]*, i64 }, { [0 x i8]*, i64 }* %s.dbg.spill, i32 0, i32 0
  store [0 x i8]* %s.0, [0 x i8]** %1, align 8
  %2 = getelementptr inbounds { [0 x i8]*, i64 }, { [0 x i8]*, i64 }* %s.dbg.spill, i32 0, i32 1
  store i64 %s.1, i64* %2, align 8
  call void @llvm.dbg.declare(metadata { [0 x i8]*, i64 }* %s.dbg.spill, metadata !1144, metadata !DIExpression()), !dbg !1149
  %3 = zext i1 %negative to i8
  store i8 %3, i8* %negative.dbg.spill, align 1
  call void @llvm.dbg.declare(metadata i8* %negative.dbg.spill, metadata !1145, metadata !DIExpression()), !dbg !1150
  call void @llvm.dbg.declare(metadata double* %float, metadata !1146, metadata !DIExpression()), !dbg !1151
; call core::num::dec2flt::parse::parse_partial_inf_nan
  call void @_ZN4core3num7dec2flt5parse21parse_partial_inf_nan17hb063fb5513d5f9f2E(%"core::option::Option<(f64, usize)>"* noalias nocapture sret(%"core::option::Option<(f64, usize)>") dereferenceable(24) %_3, [0 x i8]* nonnull align 1 %s.0, i64 %s.1), !dbg !1152
  br label %bb1, !dbg !1152

bb1:                                              ; preds = %start
  %4 = bitcast %"core::option::Option<(f64, usize)>"* %_3 to i64*, !dbg !1153
  %_5 = load i64, i64* %4, align 8, !dbg !1153, !range !792
  %5 = icmp eq i64 %_5, 1, !dbg !1153
  br i1 %5, label %bb2, label %bb8, !dbg !1153

bb2:                                              ; preds = %bb1
  %6 = bitcast %"core::option::Option<(f64, usize)>"* %_3 to %"core::option::Option<(f64, usize)>::Some"*, !dbg !1154
  %7 = getelementptr inbounds %"core::option::Option<(f64, usize)>::Some", %"core::option::Option<(f64, usize)>::Some"* %6, i32 0, i32 1, !dbg !1154
  %8 = bitcast { double, i64 }* %7 to double*, !dbg !1154
  %9 = load double, double* %8, align 8, !dbg !1154
  store double %9, double* %float, align 8, !dbg !1154
  %10 = bitcast %"core::option::Option<(f64, usize)>"* %_3 to %"core::option::Option<(f64, usize)>::Some"*, !dbg !1155
  %11 = getelementptr inbounds %"core::option::Option<(f64, usize)>::Some", %"core::option::Option<(f64, usize)>::Some"* %10, i32 0, i32 1, !dbg !1155
  %12 = getelementptr inbounds { double, i64 }, { double, i64 }* %11, i32 0, i32 1, !dbg !1155
  %rest = load i64, i64* %12, align 8, !dbg !1155
  store i64 %rest, i64* %rest.dbg.spill, align 8, !dbg !1155
  call void @llvm.dbg.declare(metadata i64* %rest.dbg.spill, metadata !1148, metadata !DIExpression()), !dbg !1156
  %_8 = icmp eq i64 %rest, %s.1, !dbg !1157
  br i1 %_8, label %bb3, label %bb7, !dbg !1157

bb8:                                              ; preds = %bb7, %bb1
  %13 = bitcast { i64, double }* %0 to i64*, !dbg !1158
  store i64 0, i64* %13, align 8, !dbg !1158
  br label %bb9, !dbg !1159

bb7:                                              ; preds = %bb2
  br label %bb8, !dbg !1160

bb3:                                              ; preds = %bb2
  br i1 %negative, label %bb4, label %bb6, !dbg !1161

bb6:                                              ; preds = %bb5, %bb3
  %_15 = load double, double* %float, align 8, !dbg !1162
  %14 = bitcast { i64, double }* %0 to %"core::option::Option<f64>::Some"*, !dbg !1163
  %15 = getelementptr inbounds %"core::option::Option<f64>::Some", %"core::option::Option<f64>::Some"* %14, i32 0, i32 1, !dbg !1163
  store double %_15, double* %15, align 8, !dbg !1163
  %16 = bitcast { i64, double }* %0 to i64*, !dbg !1163
  store i64 1, i64* %16, align 8, !dbg !1163
  br label %bb9, !dbg !1159

bb4:                                              ; preds = %bb3
  %_14 = load double, double* %float, align 8, !dbg !1164
; call <f64 as core::ops::arith::Neg>::neg
  %_13 = call double @"_ZN45_$LT$f64$u20$as$u20$core..ops..arith..Neg$GT$3neg17h725e8e59798aaf5fE"(double %_14), !dbg !1165
  br label %bb5, !dbg !1165

bb5:                                              ; preds = %bb4
  store double %_13, double* %float, align 8, !dbg !1166
  br label %bb6, !dbg !1167

bb9:                                              ; preds = %bb8, %bb6
  %17 = getelementptr inbounds { i64, double }, { i64, double }* %0, i32 0, i32 0, !dbg !1159
  %18 = load i64, i64* %17, align 8, !dbg !1159, !range !792
  %19 = getelementptr inbounds { i64, double }, { i64, double }* %0, i32 0, i32 1, !dbg !1159
  %20 = load double, double* %19, align 8, !dbg !1159
  %21 = insertvalue { i64, double } undef, i64 %18, 0, !dbg !1159
  %22 = insertvalue { i64, double } %21, double %20, 1, !dbg !1159
  ret { i64, double } %22, !dbg !1159
}

; core::num::dec2flt::parse::parse_inf_nan
; Function Attrs: nounwind
define { i32, float } @_ZN4core3num7dec2flt5parse13parse_inf_nan17h96bd8654992402f6E([0 x i8]* nonnull align 1 %s.0, i64 %s.1, i1 zeroext %negative) unnamed_addr #1 !dbg !1168 {
start:
  %rest.dbg.spill = alloca i64, align 8
  %negative.dbg.spill = alloca i8, align 1
  %s.dbg.spill = alloca { [0 x i8]*, i64 }, align 8
  %float = alloca float, align 4
  %_3 = alloca %"core::option::Option<(f32, usize)>", align 8
  %0 = alloca { i32, float }, align 4
  %1 = getelementptr inbounds { [0 x i8]*, i64 }, { [0 x i8]*, i64 }* %s.dbg.spill, i32 0, i32 0
  store [0 x i8]* %s.0, [0 x i8]** %1, align 8
  %2 = getelementptr inbounds { [0 x i8]*, i64 }, { [0 x i8]*, i64 }* %s.dbg.spill, i32 0, i32 1
  store i64 %s.1, i64* %2, align 8
  call void @llvm.dbg.declare(metadata { [0 x i8]*, i64 }* %s.dbg.spill, metadata !1183, metadata !DIExpression()), !dbg !1188
  %3 = zext i1 %negative to i8
  store i8 %3, i8* %negative.dbg.spill, align 1
  call void @llvm.dbg.declare(metadata i8* %negative.dbg.spill, metadata !1184, metadata !DIExpression()), !dbg !1189
  call void @llvm.dbg.declare(metadata float* %float, metadata !1185, metadata !DIExpression()), !dbg !1190
; call core::num::dec2flt::parse::parse_partial_inf_nan
  call void @_ZN4core3num7dec2flt5parse21parse_partial_inf_nan17ha92addea830f1984E(%"core::option::Option<(f32, usize)>"* noalias nocapture sret(%"core::option::Option<(f32, usize)>") dereferenceable(24) %_3, [0 x i8]* nonnull align 1 %s.0, i64 %s.1), !dbg !1191
  br label %bb1, !dbg !1191

bb1:                                              ; preds = %start
  %4 = bitcast %"core::option::Option<(f32, usize)>"* %_3 to i64*, !dbg !1192
  %_5 = load i64, i64* %4, align 8, !dbg !1192, !range !792
  %5 = icmp eq i64 %_5, 1, !dbg !1192
  br i1 %5, label %bb2, label %bb8, !dbg !1192

bb2:                                              ; preds = %bb1
  %6 = bitcast %"core::option::Option<(f32, usize)>"* %_3 to %"core::option::Option<(f32, usize)>::Some"*, !dbg !1193
  %7 = getelementptr inbounds %"core::option::Option<(f32, usize)>::Some", %"core::option::Option<(f32, usize)>::Some"* %6, i32 0, i32 1, !dbg !1193
  %8 = bitcast { float, i64 }* %7 to float*, !dbg !1193
  %9 = load float, float* %8, align 8, !dbg !1193
  store float %9, float* %float, align 4, !dbg !1193
  %10 = bitcast %"core::option::Option<(f32, usize)>"* %_3 to %"core::option::Option<(f32, usize)>::Some"*, !dbg !1194
  %11 = getelementptr inbounds %"core::option::Option<(f32, usize)>::Some", %"core::option::Option<(f32, usize)>::Some"* %10, i32 0, i32 1, !dbg !1194
  %12 = getelementptr inbounds { float, i64 }, { float, i64 }* %11, i32 0, i32 1, !dbg !1194
  %rest = load i64, i64* %12, align 8, !dbg !1194
  store i64 %rest, i64* %rest.dbg.spill, align 8, !dbg !1194
  call void @llvm.dbg.declare(metadata i64* %rest.dbg.spill, metadata !1187, metadata !DIExpression()), !dbg !1195
  %_8 = icmp eq i64 %rest, %s.1, !dbg !1196
  br i1 %_8, label %bb3, label %bb7, !dbg !1196

bb8:                                              ; preds = %bb7, %bb1
  %13 = bitcast { i32, float }* %0 to i32*, !dbg !1197
  store i32 0, i32* %13, align 4, !dbg !1197
  br label %bb9, !dbg !1198

bb7:                                              ; preds = %bb2
  br label %bb8, !dbg !1199

bb3:                                              ; preds = %bb2
  br i1 %negative, label %bb4, label %bb6, !dbg !1200

bb6:                                              ; preds = %bb5, %bb3
  %_15 = load float, float* %float, align 4, !dbg !1201
  %14 = bitcast { i32, float }* %0 to %"core::option::Option<f32>::Some"*, !dbg !1202
  %15 = getelementptr inbounds %"core::option::Option<f32>::Some", %"core::option::Option<f32>::Some"* %14, i32 0, i32 1, !dbg !1202
  store float %_15, float* %15, align 4, !dbg !1202
  %16 = bitcast { i32, float }* %0 to i32*, !dbg !1202
  store i32 1, i32* %16, align 4, !dbg !1202
  br label %bb9, !dbg !1198

bb4:                                              ; preds = %bb3
  %_14 = load float, float* %float, align 4, !dbg !1203
; call <f32 as core::ops::arith::Neg>::neg
  %_13 = call float @"_ZN45_$LT$f32$u20$as$u20$core..ops..arith..Neg$GT$3neg17h57e55d56d9e42651E"(float %_14), !dbg !1204
  br label %bb5, !dbg !1204

bb5:                                              ; preds = %bb4
  store float %_13, float* %float, align 4, !dbg !1205
  br label %bb6, !dbg !1206

bb9:                                              ; preds = %bb8, %bb6
  %17 = getelementptr inbounds { i32, float }, { i32, float }* %0, i32 0, i32 0, !dbg !1198
  %18 = load i32, i32* %17, align 4, !dbg !1198, !range !1207
  %19 = getelementptr inbounds { i32, float }, { i32, float }* %0, i32 0, i32 1, !dbg !1198
  %20 = load float, float* %19, align 4, !dbg !1198
  %21 = insertvalue { i32, float } undef, i32 %18, 0, !dbg !1198
  %22 = insertvalue { i32, float } %21, float %20, 1, !dbg !1198
  ret { i32, float } %22, !dbg !1198
}

; core::num::dec2flt::parse::parse_partial_inf_nan
; Function Attrs: nounwind
define void @_ZN4core3num7dec2flt5parse21parse_partial_inf_nan17ha92addea830f1984E(%"core::option::Option<(f32, usize)>"* noalias nocapture sret(%"core::option::Option<(f32, usize)>") dereferenceable(24) %0, [0 x i8]* nonnull align 1 %s.0, i64 %s.1) unnamed_addr #1 !dbg !1208 {
start:
  %s.dbg.spill = alloca { [0 x i8]*, i64 }, align 8
  %_16 = alloca { float, i64 }, align 8
  %_10 = alloca { float, i64 }, align 8
  %1 = getelementptr inbounds { [0 x i8]*, i64 }, { [0 x i8]*, i64 }* %s.dbg.spill, i32 0, i32 0
  store [0 x i8]* %s.0, [0 x i8]** %1, align 8
  %2 = getelementptr inbounds { [0 x i8]*, i64 }, { [0 x i8]*, i64 }* %s.dbg.spill, i32 0, i32 1
  store i64 %s.1, i64* %2, align 8
  call void @llvm.dbg.declare(metadata { [0 x i8]*, i64 }* %s.dbg.spill, metadata !1228, metadata !DIExpression()), !dbg !1229
  %_2 = icmp uge i64 %s.1, 3, !dbg !1230
  br i1 %_2, label %bb1, label %bb9, !dbg !1230

bb9:                                              ; preds = %bb8, %start
  %3 = bitcast %"core::option::Option<(f32, usize)>"* %0 to i64*, !dbg !1231
  store i64 0, i64* %3, align 8, !dbg !1231
  br label %bb11, !dbg !1232

bb1:                                              ; preds = %start
; call core::num::dec2flt::common::ByteSlice::eq_ignore_case
  %_5 = call zeroext i1 @_ZN4core3num7dec2flt6common9ByteSlice14eq_ignore_case17h95e7e3dde44852dbE([0 x i8]* nonnull align 1 %s.0, i64 %s.1, [0 x i8]* nonnull align 1 bitcast (<{ [3 x i8] }>* @alloc2980 to [0 x i8]*), i64 3), !dbg !1233
  br label %bb2, !dbg !1233

bb2:                                              ; preds = %bb1
  br i1 %_5, label %bb3, label %bb4, !dbg !1233

bb4:                                              ; preds = %bb2
; call core::num::dec2flt::common::ByteSlice::eq_ignore_case
  %_11 = call zeroext i1 @_ZN4core3num7dec2flt6common9ByteSlice14eq_ignore_case17h95e7e3dde44852dbE([0 x i8]* nonnull align 1 %s.0, i64 %s.1, [0 x i8]* nonnull align 1 bitcast (<{ [3 x i8] }>* @alloc2976 to [0 x i8]*), i64 3), !dbg !1234
  br label %bb5, !dbg !1234

bb3:                                              ; preds = %bb2
  %4 = bitcast { float, i64 }* %_10 to float*, !dbg !1235
  store float 0x7FF8000000000000, float* %4, align 8, !dbg !1235
  %5 = getelementptr inbounds { float, i64 }, { float, i64 }* %_10, i32 0, i32 1, !dbg !1235
  store i64 3, i64* %5, align 8, !dbg !1235
  %6 = bitcast %"core::option::Option<(f32, usize)>"* %0 to %"core::option::Option<(f32, usize)>::Some"*, !dbg !1236
  %7 = getelementptr inbounds %"core::option::Option<(f32, usize)>::Some", %"core::option::Option<(f32, usize)>::Some"* %6, i32 0, i32 1, !dbg !1236
  %8 = getelementptr inbounds { float, i64 }, { float, i64 }* %_10, i32 0, i32 0, !dbg !1236
  %9 = load float, float* %8, align 8, !dbg !1236
  %10 = getelementptr inbounds { float, i64 }, { float, i64 }* %_10, i32 0, i32 1, !dbg !1236
  %11 = load i64, i64* %10, align 8, !dbg !1236
  %12 = getelementptr inbounds { float, i64 }, { float, i64 }* %7, i32 0, i32 0, !dbg !1236
  store float %9, float* %12, align 8, !dbg !1236
  %13 = getelementptr inbounds { float, i64 }, { float, i64 }* %7, i32 0, i32 1, !dbg !1236
  store i64 %11, i64* %13, align 8, !dbg !1236
  %14 = bitcast %"core::option::Option<(f32, usize)>"* %0 to i64*, !dbg !1236
  store i64 1, i64* %14, align 8, !dbg !1236
  br label %bb10, !dbg !1237

bb10:                                             ; preds = %bb7, %bb3
  br label %bb11, !dbg !1232

bb5:                                              ; preds = %bb4
  br i1 %_11, label %bb6, label %bb8, !dbg !1234

bb8:                                              ; preds = %bb5
  br label %bb9, !dbg !1238

bb6:                                              ; preds = %bb5
; call core::num::dec2flt::parse::parse_partial_inf_nan::parse_inf_rest
  %_17 = call i64 @_ZN4core3num7dec2flt5parse21parse_partial_inf_nan14parse_inf_rest17ha83298bc484b1119E([0 x i8]* nonnull align 1 %s.0, i64 %s.1), !dbg !1239
  br label %bb7, !dbg !1239

bb7:                                              ; preds = %bb6
  %15 = bitcast { float, i64 }* %_16 to float*, !dbg !1240
  store float 0x7FF0000000000000, float* %15, align 8, !dbg !1240
  %16 = getelementptr inbounds { float, i64 }, { float, i64 }* %_16, i32 0, i32 1, !dbg !1240
  store i64 %_17, i64* %16, align 8, !dbg !1240
  %17 = bitcast %"core::option::Option<(f32, usize)>"* %0 to %"core::option::Option<(f32, usize)>::Some"*, !dbg !1241
  %18 = getelementptr inbounds %"core::option::Option<(f32, usize)>::Some", %"core::option::Option<(f32, usize)>::Some"* %17, i32 0, i32 1, !dbg !1241
  %19 = getelementptr inbounds { float, i64 }, { float, i64 }* %_16, i32 0, i32 0, !dbg !1241
  %20 = load float, float* %19, align 8, !dbg !1241
  %21 = getelementptr inbounds { float, i64 }, { float, i64 }* %_16, i32 0, i32 1, !dbg !1241
  %22 = load i64, i64* %21, align 8, !dbg !1241
  %23 = getelementptr inbounds { float, i64 }, { float, i64 }* %18, i32 0, i32 0, !dbg !1241
  store float %20, float* %23, align 8, !dbg !1241
  %24 = getelementptr inbounds { float, i64 }, { float, i64 }* %18, i32 0, i32 1, !dbg !1241
  store i64 %22, i64* %24, align 8, !dbg !1241
  %25 = bitcast %"core::option::Option<(f32, usize)>"* %0 to i64*, !dbg !1241
  store i64 1, i64* %25, align 8, !dbg !1241
  br label %bb10, !dbg !1242

bb11:                                             ; preds = %bb9, %bb10
  ret void, !dbg !1232
}

; core::num::dec2flt::parse::parse_partial_inf_nan
; Function Attrs: nounwind
define void @_ZN4core3num7dec2flt5parse21parse_partial_inf_nan17hb063fb5513d5f9f2E(%"core::option::Option<(f64, usize)>"* noalias nocapture sret(%"core::option::Option<(f64, usize)>") dereferenceable(24) %0, [0 x i8]* nonnull align 1 %s.0, i64 %s.1) unnamed_addr #1 !dbg !1244 {
start:
  %s.dbg.spill = alloca { [0 x i8]*, i64 }, align 8
  %_16 = alloca { double, i64 }, align 8
  %_10 = alloca { double, i64 }, align 8
  %1 = getelementptr inbounds { [0 x i8]*, i64 }, { [0 x i8]*, i64 }* %s.dbg.spill, i32 0, i32 0
  store [0 x i8]* %s.0, [0 x i8]** %1, align 8
  %2 = getelementptr inbounds { [0 x i8]*, i64 }, { [0 x i8]*, i64 }* %s.dbg.spill, i32 0, i32 1
  store i64 %s.1, i64* %2, align 8
  call void @llvm.dbg.declare(metadata { [0 x i8]*, i64 }* %s.dbg.spill, metadata !1264, metadata !DIExpression()), !dbg !1265
  %_2 = icmp uge i64 %s.1, 3, !dbg !1266
  br i1 %_2, label %bb1, label %bb9, !dbg !1266

bb9:                                              ; preds = %bb8, %start
  %3 = bitcast %"core::option::Option<(f64, usize)>"* %0 to i64*, !dbg !1267
  store i64 0, i64* %3, align 8, !dbg !1267
  br label %bb11, !dbg !1268

bb1:                                              ; preds = %start
; call core::num::dec2flt::common::ByteSlice::eq_ignore_case
  %_5 = call zeroext i1 @_ZN4core3num7dec2flt6common9ByteSlice14eq_ignore_case17h95e7e3dde44852dbE([0 x i8]* nonnull align 1 %s.0, i64 %s.1, [0 x i8]* nonnull align 1 bitcast (<{ [3 x i8] }>* @alloc2980 to [0 x i8]*), i64 3), !dbg !1269
  br label %bb2, !dbg !1269

bb2:                                              ; preds = %bb1
  br i1 %_5, label %bb3, label %bb4, !dbg !1269

bb4:                                              ; preds = %bb2
; call core::num::dec2flt::common::ByteSlice::eq_ignore_case
  %_11 = call zeroext i1 @_ZN4core3num7dec2flt6common9ByteSlice14eq_ignore_case17h95e7e3dde44852dbE([0 x i8]* nonnull align 1 %s.0, i64 %s.1, [0 x i8]* nonnull align 1 bitcast (<{ [3 x i8] }>* @alloc2976 to [0 x i8]*), i64 3), !dbg !1270
  br label %bb5, !dbg !1270

bb3:                                              ; preds = %bb2
  %4 = bitcast { double, i64 }* %_10 to double*, !dbg !1271
  store double 0x7FF8000000000000, double* %4, align 8, !dbg !1271
  %5 = getelementptr inbounds { double, i64 }, { double, i64 }* %_10, i32 0, i32 1, !dbg !1271
  store i64 3, i64* %5, align 8, !dbg !1271
  %6 = bitcast %"core::option::Option<(f64, usize)>"* %0 to %"core::option::Option<(f64, usize)>::Some"*, !dbg !1272
  %7 = getelementptr inbounds %"core::option::Option<(f64, usize)>::Some", %"core::option::Option<(f64, usize)>::Some"* %6, i32 0, i32 1, !dbg !1272
  %8 = getelementptr inbounds { double, i64 }, { double, i64 }* %_10, i32 0, i32 0, !dbg !1272
  %9 = load double, double* %8, align 8, !dbg !1272
  %10 = getelementptr inbounds { double, i64 }, { double, i64 }* %_10, i32 0, i32 1, !dbg !1272
  %11 = load i64, i64* %10, align 8, !dbg !1272
  %12 = getelementptr inbounds { double, i64 }, { double, i64 }* %7, i32 0, i32 0, !dbg !1272
  store double %9, double* %12, align 8, !dbg !1272
  %13 = getelementptr inbounds { double, i64 }, { double, i64 }* %7, i32 0, i32 1, !dbg !1272
  store i64 %11, i64* %13, align 8, !dbg !1272
  %14 = bitcast %"core::option::Option<(f64, usize)>"* %0 to i64*, !dbg !1272
  store i64 1, i64* %14, align 8, !dbg !1272
  br label %bb10, !dbg !1273

bb10:                                             ; preds = %bb7, %bb3
  br label %bb11, !dbg !1268

bb5:                                              ; preds = %bb4
  br i1 %_11, label %bb6, label %bb8, !dbg !1270

bb8:                                              ; preds = %bb5
  br label %bb9, !dbg !1274

bb6:                                              ; preds = %bb5
; call core::num::dec2flt::parse::parse_partial_inf_nan::parse_inf_rest
  %_17 = call i64 @_ZN4core3num7dec2flt5parse21parse_partial_inf_nan14parse_inf_rest17ha83298bc484b1119E([0 x i8]* nonnull align 1 %s.0, i64 %s.1), !dbg !1275
  br label %bb7, !dbg !1275

bb7:                                              ; preds = %bb6
  %15 = bitcast { double, i64 }* %_16 to double*, !dbg !1276
  store double 0x7FF0000000000000, double* %15, align 8, !dbg !1276
  %16 = getelementptr inbounds { double, i64 }, { double, i64 }* %_16, i32 0, i32 1, !dbg !1276
  store i64 %_17, i64* %16, align 8, !dbg !1276
  %17 = bitcast %"core::option::Option<(f64, usize)>"* %0 to %"core::option::Option<(f64, usize)>::Some"*, !dbg !1277
  %18 = getelementptr inbounds %"core::option::Option<(f64, usize)>::Some", %"core::option::Option<(f64, usize)>::Some"* %17, i32 0, i32 1, !dbg !1277
  %19 = getelementptr inbounds { double, i64 }, { double, i64 }* %_16, i32 0, i32 0, !dbg !1277
  %20 = load double, double* %19, align 8, !dbg !1277
  %21 = getelementptr inbounds { double, i64 }, { double, i64 }* %_16, i32 0, i32 1, !dbg !1277
  %22 = load i64, i64* %21, align 8, !dbg !1277
  %23 = getelementptr inbounds { double, i64 }, { double, i64 }* %18, i32 0, i32 0, !dbg !1277
  store double %20, double* %23, align 8, !dbg !1277
  %24 = getelementptr inbounds { double, i64 }, { double, i64 }* %18, i32 0, i32 1, !dbg !1277
  store i64 %22, i64* %24, align 8, !dbg !1277
  %25 = bitcast %"core::option::Option<(f64, usize)>"* %0 to i64*, !dbg !1277
  store i64 1, i64* %25, align 8, !dbg !1277
  br label %bb10, !dbg !1278

bb11:                                             ; preds = %bb9, %bb10
  ret void, !dbg !1268
}

; core::num::dec2flt::<impl core::str::traits::FromStr for f32>::from_str
; Function Attrs: inlinehint nounwind
define internal i64 @"_ZN4core3num7dec2flt60_$LT$impl$u20$core..str..traits..FromStr$u20$for$u20$f32$GT$8from_str17hfddf7cf9edc5ca06E"([0 x i8]* nonnull align 1 %src.0, i64 %src.1) unnamed_addr #0 !dbg !1280 {
start:
  %0 = alloca i64, align 8
  %src.dbg.spill = alloca { [0 x i8]*, i64 }, align 8
  %1 = alloca %"core::result::Result<f32, core::num::ParseFloatError>", align 4
  %2 = getelementptr inbounds { [0 x i8]*, i64 }, { [0 x i8]*, i64 }* %src.dbg.spill, i32 0, i32 0
  store [0 x i8]* %src.0, [0 x i8]** %2, align 8
  %3 = getelementptr inbounds { [0 x i8]*, i64 }, { [0 x i8]*, i64 }* %src.dbg.spill, i32 0, i32 1
  store i64 %src.1, i64* %3, align 8
  call void @llvm.dbg.declare(metadata { [0 x i8]*, i64 }* %src.dbg.spill, metadata !1303, metadata !DIExpression()), !dbg !1304
; call core::num::dec2flt::dec2flt
  %4 = call i64 @_ZN4core3num7dec2flt7dec2flt17h193ae62556cd86b5E([0 x i8]* nonnull align 1 %src.0, i64 %src.1), !dbg !1305
  store i64 %4, i64* %0, align 8, !dbg !1305
  %5 = bitcast %"core::result::Result<f32, core::num::ParseFloatError>"* %1 to i8*, !dbg !1305
  %6 = bitcast i64* %0 to i8*, !dbg !1305
  call void @llvm.memcpy.p0i8.p0i8.i64(i8* align 4 %5, i8* align 8 %6, i64 8, i1 false), !dbg !1305
  br label %bb1, !dbg !1305

bb1:                                              ; preds = %start
  %7 = bitcast %"core::result::Result<f32, core::num::ParseFloatError>"* %1 to i64*, !dbg !1306
  %8 = load i64, i64* %7, align 4, !dbg !1306
  ret i64 %8, !dbg !1306
}

; core::num::dec2flt::<impl core::str::traits::FromStr for f64>::from_str
; Function Attrs: inlinehint nounwind
define internal i128 @"_ZN4core3num7dec2flt60_$LT$impl$u20$core..str..traits..FromStr$u20$for$u20$f64$GT$8from_str17h91e473d99ed96614E"([0 x i8]* nonnull align 1 %src.0, i64 %src.1) unnamed_addr #0 !dbg !1307 {
start:
  %0 = alloca i128, align 8
  %src.dbg.spill = alloca { [0 x i8]*, i64 }, align 8
  %1 = alloca %"core::result::Result<f64, core::num::ParseFloatError>", align 8
  %2 = getelementptr inbounds { [0 x i8]*, i64 }, { [0 x i8]*, i64 }* %src.dbg.spill, i32 0, i32 0
  store [0 x i8]* %src.0, [0 x i8]** %2, align 8
  %3 = getelementptr inbounds { [0 x i8]*, i64 }, { [0 x i8]*, i64 }* %src.dbg.spill, i32 0, i32 1
  store i64 %src.1, i64* %3, align 8
  call void @llvm.dbg.declare(metadata { [0 x i8]*, i64 }* %src.dbg.spill, metadata !1325, metadata !DIExpression()), !dbg !1326
; call core::num::dec2flt::dec2flt
  %4 = call i128 @_ZN4core3num7dec2flt7dec2flt17he47d22f84eb69cc7E([0 x i8]* nonnull align 1 %src.0, i64 %src.1), !dbg !1327
  store i128 %4, i128* %0, align 8, !dbg !1327
  %5 = bitcast %"core::result::Result<f64, core::num::ParseFloatError>"* %1 to i8*, !dbg !1327
  %6 = bitcast i128* %0 to i8*, !dbg !1327
  call void @llvm.memcpy.p0i8.p0i8.i64(i8* align 8 %5, i8* align 8 %6, i64 16, i1 false), !dbg !1327
  br label %bb1, !dbg !1327

bb1:                                              ; preds = %start
  %7 = bitcast %"core::result::Result<f64, core::num::ParseFloatError>"* %1 to i128*, !dbg !1328
  %8 = load i128, i128* %7, align 8, !dbg !1328
  ret i128 %8, !dbg !1328
}

; core::num::dec2flt::common::ByteSlice::eq_ignore_case
; Function Attrs: nounwind
define zeroext i1 @_ZN4core3num7dec2flt6common9ByteSlice14eq_ignore_case17h95e7e3dde44852dbE([0 x i8]* nonnull align 1 %self.0, i64 %self.1, [0 x i8]* nonnull align 1 %u.0, i64 %u.1) unnamed_addr #1 !dbg !1329 {
start:
  %d.dbg.spill = alloca i8, align 1
  %u.dbg.spill = alloca { [0 x i8]*, i64 }, align 8
  %self.dbg.spill = alloca { [0 x i8]*, i64 }, align 8
  %_11 = alloca %"core::iter::Zip<core::slice::Iter<u8>, core::slice::Iter<u8>>", align 8
  %iter = alloca %"core::iter::Zip<core::slice::Iter<u8>, core::slice::Iter<u8>>", align 8
  %0 = alloca i8, align 1
  %1 = getelementptr inbounds { [0 x i8]*, i64 }, { [0 x i8]*, i64 }* %self.dbg.spill, i32 0, i32 0
  store [0 x i8]* %self.0, [0 x i8]** %1, align 8
  %2 = getelementptr inbounds { [0 x i8]*, i64 }, { [0 x i8]*, i64 }* %self.dbg.spill, i32 0, i32 1
  store i64 %self.1, i64* %2, align 8
  call void @llvm.dbg.declare(metadata { [0 x i8]*, i64 }* %self.dbg.spill, metadata !1335, metadata !DIExpression()), !dbg !1343
  %3 = getelementptr inbounds { [0 x i8]*, i64 }, { [0 x i8]*, i64 }* %u.dbg.spill, i32 0, i32 0
  store [0 x i8]* %u.0, [0 x i8]** %3, align 8
  %4 = getelementptr inbounds { [0 x i8]*, i64 }, { [0 x i8]*, i64 }* %u.dbg.spill, i32 0, i32 1
  store i64 %u.1, i64* %4, align 8
  call void @llvm.dbg.declare(metadata { [0 x i8]*, i64 }* %u.dbg.spill, metadata !1336, metadata !DIExpression()), !dbg !1344
  call void @llvm.dbg.declare(metadata %"core::iter::Zip<core::slice::Iter<u8>, core::slice::Iter<u8>>"* %iter, metadata !1337, metadata !DIExpression()), !dbg !1345
; call <[T] as core::convert::AsRef<[T]>>::as_ref
  %5 = call { [0 x i8]*, i64 } @"_ZN71_$LT$$u5b$T$u5d$$u20$as$u20$core..convert..AsRef$LT$$u5b$T$u5d$$GT$$GT$6as_ref17hf8157f5f8be10685E"([0 x i8]* nonnull align 1 %self.0, i64 %self.1), !dbg !1346
  %_6.0 = extractvalue { [0 x i8]*, i64 } %5, 0, !dbg !1346
  %_6.1 = extractvalue { [0 x i8]*, i64 } %5, 1, !dbg !1346
  br label %bb1, !dbg !1346

bb1:                                              ; preds = %start
; call core::slice::<impl [T]>::iter
  %6 = call { i8*, i8* } @"_ZN4core5slice29_$LT$impl$u20$$u5b$T$u5d$$GT$4iter17h1aa6c32d2b116661E"([0 x i8]* nonnull align 1 %_6.0, i64 %_6.1), !dbg !1346
  %_4.0 = extractvalue { i8*, i8* } %6, 0, !dbg !1346
  %_4.1 = extractvalue { i8*, i8* } %6, 1, !dbg !1346
  br label %bb2, !dbg !1346

bb2:                                              ; preds = %bb1
; call core::slice::<impl [T]>::iter
  %7 = call { i8*, i8* } @"_ZN4core5slice29_$LT$impl$u20$$u5b$T$u5d$$GT$4iter17h1aa6c32d2b116661E"([0 x i8]* nonnull align 1 %u.0, i64 %u.1), !dbg !1347
  %_8.0 = extractvalue { i8*, i8* } %7, 0, !dbg !1347
  %_8.1 = extractvalue { i8*, i8* } %7, 1, !dbg !1347
  br label %bb3, !dbg !1347

bb3:                                              ; preds = %bb2
; call core::iter::traits::iterator::Iterator::zip
  call void @_ZN4core4iter6traits8iterator8Iterator3zip17h91c254db5300b4f5E(%"core::iter::Zip<core::slice::Iter<u8>, core::slice::Iter<u8>>"* noalias nocapture sret(%"core::iter::Zip<core::slice::Iter<u8>, core::slice::Iter<u8>>") dereferenceable(56) %iter, i8* nonnull %_4.0, i8* %_4.1, i8* nonnull %_8.0, i8* %_8.1), !dbg !1346
  br label %bb4, !dbg !1346

bb4:                                              ; preds = %bb3
  %8 = bitcast %"core::iter::Zip<core::slice::Iter<u8>, core::slice::Iter<u8>>"* %_11 to i8*, !dbg !1348
  %9 = bitcast %"core::iter::Zip<core::slice::Iter<u8>, core::slice::Iter<u8>>"* %iter to i8*, !dbg !1348
  call void @llvm.memcpy.p0i8.p0i8.i64(i8* align 8 %8, i8* align 8 %9, i64 56, i1 false), !dbg !1348
; call core::iter::traits::iterator::Iterator::fold
  %d = call i8 @_ZN4core4iter6traits8iterator8Iterator4fold17h692432889ff703a6E(%"core::iter::Zip<core::slice::Iter<u8>, core::slice::Iter<u8>>"* noalias nocapture dereferenceable(56) %_11, i8 0), !dbg !1348
  store i8 %d, i8* %d.dbg.spill, align 1, !dbg !1348
  call void @llvm.dbg.declare(metadata i8* %d.dbg.spill, metadata !1339, metadata !DIExpression()), !dbg !1349
  br label %bb5, !dbg !1348

bb5:                                              ; preds = %bb4
  %10 = icmp eq i8 %d, 0, !dbg !1350
  br i1 %10, label %bb6, label %bb7, !dbg !1350

bb6:                                              ; preds = %bb5
  store i8 1, i8* %0, align 1, !dbg !1350
  br label %bb8, !dbg !1350

bb7:                                              ; preds = %bb5
  %_14 = icmp eq i8 %d, 32, !dbg !1351
  %11 = zext i1 %_14 to i8, !dbg !1350
  store i8 %11, i8* %0, align 1, !dbg !1350
  br label %bb8, !dbg !1350

bb8:                                              ; preds = %bb6, %bb7
  %12 = load i8, i8* %0, align 1, !dbg !1352, !range !238
  %13 = trunc i8 %12 to i1, !dbg !1352
  ret i1 %13, !dbg !1352
}

; core::num::dec2flt::common::ByteSlice::eq_ignore_case::{{closure}}
; Function Attrs: inlinehint nounwind
define i8 @"_ZN4core3num7dec2flt6common9ByteSlice14eq_ignore_case28_$u7b$$u7b$closure$u7d$$u7d$17h284a14bbaae9f77bE"(%"[closure@<[u8] as core::num::dec2flt::common::ByteSlice>::eq_ignore_case::{closure#0}]"* nonnull align 1 %_1, i8 %i, i8* align 1 dereferenceable(1) %_3.0, i8* align 1 dereferenceable(1) %_3.1) unnamed_addr #0 !dbg !1353 {
start:
  %y.dbg.spill = alloca i8, align 1
  %x.dbg.spill = alloca i8, align 1
  %_3.dbg.spill = alloca { i8*, i8* }, align 8
  %i.dbg.spill = alloca i8, align 1
  %_1.dbg.spill = alloca %"[closure@<[u8] as core::num::dec2flt::common::ByteSlice>::eq_ignore_case::{closure#0}]"*, align 8
  store %"[closure@<[u8] as core::num::dec2flt::common::ByteSlice>::eq_ignore_case::{closure#0}]"* %_1, %"[closure@<[u8] as core::num::dec2flt::common::ByteSlice>::eq_ignore_case::{closure#0}]"** %_1.dbg.spill, align 8
  call void @llvm.dbg.declare(metadata %"[closure@<[u8] as core::num::dec2flt::common::ByteSlice>::eq_ignore_case::{closure#0}]"** %_1.dbg.spill, metadata !1364, metadata !DIExpression()), !dbg !1366
  store i8 %i, i8* %i.dbg.spill, align 1
  call void @llvm.dbg.declare(metadata i8* %i.dbg.spill, metadata !1360, metadata !DIExpression()), !dbg !1367
  %0 = getelementptr inbounds { i8*, i8* }, { i8*, i8* }* %_3.dbg.spill, i32 0, i32 0
  store i8* %_3.0, i8** %0, align 8
  %1 = getelementptr inbounds { i8*, i8* }, { i8*, i8* }* %_3.dbg.spill, i32 0, i32 1
  store i8* %_3.1, i8** %1, align 8
  call void @llvm.dbg.declare(metadata { i8*, i8* }* %_3.dbg.spill, metadata !1365, metadata !DIExpression()), !dbg !1368
  %x = load i8, i8* %_3.0, align 1, !dbg !1369
  store i8 %x, i8* %x.dbg.spill, align 1, !dbg !1369
  call void @llvm.dbg.declare(metadata i8* %x.dbg.spill, metadata !1361, metadata !DIExpression()), !dbg !1370
  %y = load i8, i8* %_3.1, align 1, !dbg !1371
  store i8 %y, i8* %y.dbg.spill, align 1, !dbg !1371
  call void @llvm.dbg.declare(metadata i8* %y.dbg.spill, metadata !1363, metadata !DIExpression()), !dbg !1372
  %_7 = xor i8 %x, %y, !dbg !1373
  %2 = or i8 %i, %_7, !dbg !1374
  ret i8 %2, !dbg !1375
}

; core::num::dec2flt::common::ByteSlice::advance
; Function Attrs: nounwind
define { [0 x i8]*, i64 } @_ZN4core3num7dec2flt6common9ByteSlice7advance17hec4a59ca6211db3bE([0 x i8]* nonnull align 1 %self.0, i64 %self.1, i64 %n) unnamed_addr #1 !dbg !1376 {
start:
  %n.dbg.spill = alloca i64, align 8
  %self.dbg.spill = alloca { [0 x i8]*, i64 }, align 8
  %_7 = alloca i64, align 8
  %0 = getelementptr inbounds { [0 x i8]*, i64 }, { [0 x i8]*, i64 }* %self.dbg.spill, i32 0, i32 0
  store [0 x i8]* %self.0, [0 x i8]** %0, align 8
  %1 = getelementptr inbounds { [0 x i8]*, i64 }, { [0 x i8]*, i64 }* %self.dbg.spill, i32 0, i32 1
  store i64 %self.1, i64* %1, align 8
  call void @llvm.dbg.declare(metadata { [0 x i8]*, i64 }* %self.dbg.spill, metadata !1380, metadata !DIExpression()), !dbg !1382
  store i64 %n, i64* %n.dbg.spill, align 8
  call void @llvm.dbg.declare(metadata i64* %n.dbg.spill, metadata !1381, metadata !DIExpression()), !dbg !1383
; call <[T] as core::convert::AsRef<[T]>>::as_ref
  %2 = call { [0 x i8]*, i64 } @"_ZN71_$LT$$u5b$T$u5d$$u20$as$u20$core..convert..AsRef$LT$$u5b$T$u5d$$GT$$GT$6as_ref17hf8157f5f8be10685E"([0 x i8]* nonnull align 1 %self.0, i64 %self.1), !dbg !1384
  %_5.0 = extractvalue { [0 x i8]*, i64 } %2, 0, !dbg !1384
  %_5.1 = extractvalue { [0 x i8]*, i64 } %2, 1, !dbg !1384
  br label %bb1, !dbg !1384

bb1:                                              ; preds = %start
  store i64 %n, i64* %_7, align 8, !dbg !1385
  %3 = load i64, i64* %_7, align 8, !dbg !1384
; call core::slice::index::<impl core::ops::index::Index<I> for [T]>::index
  %4 = call { [0 x i8]*, i64 } @"_ZN4core5slice5index74_$LT$impl$u20$core..ops..index..Index$LT$I$GT$$u20$for$u20$$u5b$T$u5d$$GT$5index17h85cbd218e682b1adE"([0 x i8]* nonnull align 1 %_5.0, i64 %_5.1, i64 %3, %"core::panic::Location"* align 8 dereferenceable(24) bitcast (<{ i8*, [16 x i8] }>* @alloc2948 to %"core::panic::Location"*)), !dbg !1384
  %_3.0 = extractvalue { [0 x i8]*, i64 } %4, 0, !dbg !1384
  %_3.1 = extractvalue { [0 x i8]*, i64 } %4, 1, !dbg !1384
  br label %bb2, !dbg !1384

bb2:                                              ; preds = %bb1
  %5 = insertvalue { [0 x i8]*, i64 } undef, [0 x i8]* %_3.0, 0, !dbg !1386
  %6 = insertvalue { [0 x i8]*, i64 } %5, i64 %_3.1, 1, !dbg !1386
  ret { [0 x i8]*, i64 } %6, !dbg !1386
}

; core::num::dec2flt::lemire::compute_float
; Function Attrs: nounwind
define { i64, i32 } @_ZN4core3num7dec2flt6lemire13compute_float17hc8859f166756fda8E(i64 %q, i64 %0) unnamed_addr #1 !dbg !1387 {
start:
  %1 = alloca i64, align 8
  %self.dbg.spill.i = alloca i64, align 8
  %upperbit.dbg.spill = alloca i32, align 4
  %hi.dbg.spill = alloca i64, align 8
  %lo.dbg.spill = alloca i64, align 8
  %lz.dbg.spill = alloca i32, align 4
  %fp_error.dbg.spill = alloca { i64, i32 }, align 8
  %fp_inf.dbg.spill = alloca { i64, i32 }, align 8
  %fp_zero.dbg.spill = alloca { i64, i32 }, align 8
  %q.dbg.spill = alloca i64, align 8
  %_69 = alloca i8, align 1
  %_68 = alloca i8, align 1
  %_67 = alloca i8, align 1
  %_66 = alloca i8, align 1
  %power2 = alloca i32, align 4
  %mantissa = alloca i64, align 8
  %inside_safe_exponent = alloca i8, align 1
  %_6 = alloca i8, align 1
  %2 = alloca { i64, i32 }, align 8
  %w = alloca i64, align 8
  store i64 %0, i64* %w, align 8
  store i64 %q, i64* %q.dbg.spill, align 8
  call void @llvm.dbg.declare(metadata i64* %q.dbg.spill, metadata !1394, metadata !DIExpression()), !dbg !1415
  call void @llvm.dbg.declare(metadata i64* %w, metadata !1395, metadata !DIExpression()), !dbg !1416
  call void @llvm.dbg.declare(metadata i8* %inside_safe_exponent, metadata !1407, metadata !DIExpression()), !dbg !1417
  call void @llvm.dbg.declare(metadata i64* %mantissa, metadata !1411, metadata !DIExpression()), !dbg !1418
  call void @llvm.dbg.declare(metadata i32* %power2, metadata !1413, metadata !DIExpression()), !dbg !1419
; call core::num::dec2flt::common::BiasedFp::zero_pow2
  %3 = call { i64, i32 } @_ZN4core3num7dec2flt6common8BiasedFp9zero_pow217h27f36e273a7655ddE(i32 0), !dbg !1420
  %fp_zero.0 = extractvalue { i64, i32 } %3, 0, !dbg !1420
  %fp_zero.1 = extractvalue { i64, i32 } %3, 1, !dbg !1420
  %4 = getelementptr inbounds { i64, i32 }, { i64, i32 }* %fp_zero.dbg.spill, i32 0, i32 0, !dbg !1420
  store i64 %fp_zero.0, i64* %4, align 8, !dbg !1420
  %5 = getelementptr inbounds { i64, i32 }, { i64, i32 }* %fp_zero.dbg.spill, i32 0, i32 1, !dbg !1420
  store i32 %fp_zero.1, i32* %5, align 8, !dbg !1420
  call void @llvm.dbg.declare(metadata { i64, i32 }* %fp_zero.dbg.spill, metadata !1396, metadata !DIExpression()), !dbg !1421
  br label %bb1, !dbg !1420

bb1:                                              ; preds = %start
; call core::num::dec2flt::common::BiasedFp::zero_pow2
  %6 = call { i64, i32 } @_ZN4core3num7dec2flt6common8BiasedFp9zero_pow217h27f36e273a7655ddE(i32 2047), !dbg !1422
  %fp_inf.0 = extractvalue { i64, i32 } %6, 0, !dbg !1422
  %fp_inf.1 = extractvalue { i64, i32 } %6, 1, !dbg !1422
  %7 = getelementptr inbounds { i64, i32 }, { i64, i32 }* %fp_inf.dbg.spill, i32 0, i32 0, !dbg !1422
  store i64 %fp_inf.0, i64* %7, align 8, !dbg !1422
  %8 = getelementptr inbounds { i64, i32 }, { i64, i32 }* %fp_inf.dbg.spill, i32 0, i32 1, !dbg !1422
  store i32 %fp_inf.1, i32* %8, align 8, !dbg !1422
  call void @llvm.dbg.declare(metadata { i64, i32 }* %fp_inf.dbg.spill, metadata !1398, metadata !DIExpression()), !dbg !1423
  br label %bb2, !dbg !1422

bb2:                                              ; preds = %bb1
; call core::num::dec2flt::common::BiasedFp::zero_pow2
  %9 = call { i64, i32 } @_ZN4core3num7dec2flt6common8BiasedFp9zero_pow217h27f36e273a7655ddE(i32 -1), !dbg !1424
  %fp_error.0 = extractvalue { i64, i32 } %9, 0, !dbg !1424
  %fp_error.1 = extractvalue { i64, i32 } %9, 1, !dbg !1424
  %10 = getelementptr inbounds { i64, i32 }, { i64, i32 }* %fp_error.dbg.spill, i32 0, i32 0, !dbg !1424
  store i64 %fp_error.0, i64* %10, align 8, !dbg !1424
  %11 = getelementptr inbounds { i64, i32 }, { i64, i32 }* %fp_error.dbg.spill, i32 0, i32 1, !dbg !1424
  store i32 %fp_error.1, i32* %11, align 8, !dbg !1424
  call void @llvm.dbg.declare(metadata { i64, i32 }* %fp_error.dbg.spill, metadata !1400, metadata !DIExpression()), !dbg !1425
  br label %bb3, !dbg !1424

bb3:                                              ; preds = %bb2
  %_7 = load i64, i64* %w, align 8, !dbg !1426
  %12 = icmp eq i64 %_7, 0, !dbg !1426
  br i1 %12, label %bb4, label %bb5, !dbg !1426

bb4:                                              ; preds = %bb3
  store i8 1, i8* %_6, align 1, !dbg !1426
  br label %bb6, !dbg !1426

bb5:                                              ; preds = %bb3
  %_8 = icmp slt i64 %q, -342, !dbg !1427
  %13 = zext i1 %_8 to i8, !dbg !1426
  store i8 %13, i8* %_6, align 1, !dbg !1426
  br label %bb6, !dbg !1426

bb6:                                              ; preds = %bb4, %bb5
  %14 = load i8, i8* %_6, align 1, !dbg !1426, !range !238
  %15 = trunc i8 %14 to i1, !dbg !1426
  br i1 %15, label %bb7, label %bb8, !dbg !1426

bb8:                                              ; preds = %bb6
  %_11 = icmp sgt i64 %q, 308, !dbg !1428
  br i1 %_11, label %bb9, label %bb10, !dbg !1428

bb7:                                              ; preds = %bb6
  %16 = getelementptr inbounds { i64, i32 }, { i64, i32 }* %2, i32 0, i32 0, !dbg !1429
  store i64 %fp_zero.0, i64* %16, align 8, !dbg !1429
  %17 = getelementptr inbounds { i64, i32 }, { i64, i32 }* %2, i32 0, i32 1, !dbg !1429
  store i32 %fp_zero.1, i32* %17, align 8, !dbg !1429
  br label %bb47, !dbg !1430

bb47:                                             ; preds = %bb9, %bb7
  br label %bb48, !dbg !1431

bb10:                                             ; preds = %bb8
  %_15 = load i64, i64* %w, align 8, !dbg !1433
  store i64 %_15, i64* %self.dbg.spill.i, align 8
  call void @llvm.dbg.declare(metadata i64* %self.dbg.spill.i, metadata !1434, metadata !DIExpression()) #7, !dbg !1439
  %18 = call i64 @llvm.ctlz.i64(i64 %_15, i1 false) #7, !dbg !1441
  store i64 %18, i64* %1, align 8, !dbg !1441
  %_2.i = load i64, i64* %1, align 8, !dbg !1441
  %19 = trunc i64 %_2.i to i32, !dbg !1441
  store i32 %19, i32* %lz.dbg.spill, align 4, !dbg !1433
  call void @llvm.dbg.declare(metadata i32* %lz.dbg.spill, metadata !1402, metadata !DIExpression()), !dbg !1442
  br label %bb11, !dbg !1433

bb9:                                              ; preds = %bb8
  %20 = getelementptr inbounds { i64, i32 }, { i64, i32 }* %2, i32 0, i32 0, !dbg !1443
  store i64 %fp_inf.0, i64* %20, align 8, !dbg !1443
  %21 = getelementptr inbounds { i64, i32 }, { i64, i32 }* %2, i32 0, i32 1, !dbg !1443
  store i32 %fp_inf.1, i32* %21, align 8, !dbg !1443
  br label %bb47, !dbg !1431

bb48:                                             ; preds = %bb46, %bb47
  br label %bb49, !dbg !1444

bb11:                                             ; preds = %bb10
  %22 = load i64, i64* %w, align 8, !dbg !1445
  %23 = zext i32 %19 to i64, !dbg !1445
  %24 = and i64 %23, 63, !dbg !1445
  %25 = shl i64 %22, %24, !dbg !1445
  store i64 %25, i64* %w, align 8, !dbg !1445
  %_21 = load i64, i64* %w, align 8, !dbg !1446
; call core::num::dec2flt::lemire::compute_product_approx
  %26 = call { i64, i64 } @_ZN4core3num7dec2flt6lemire22compute_product_approx17hab3e1a80d6151252E(i64 %q, i64 %_21, i64 55), !dbg !1447
  %_19.0 = extractvalue { i64, i64 } %26, 0, !dbg !1447
  %_19.1 = extractvalue { i64, i64 } %26, 1, !dbg !1447
  br label %bb12, !dbg !1447

bb12:                                             ; preds = %bb11
  store i64 %_19.0, i64* %lo.dbg.spill, align 8, !dbg !1448
  call void @llvm.dbg.declare(metadata i64* %lo.dbg.spill, metadata !1404, metadata !DIExpression()), !dbg !1449
  store i64 %_19.1, i64* %hi.dbg.spill, align 8, !dbg !1450
  call void @llvm.dbg.declare(metadata i64* %hi.dbg.spill, metadata !1406, metadata !DIExpression()), !dbg !1451
  %27 = icmp eq i64 %_19.0, -1, !dbg !1452
  br i1 %27, label %bb13, label %bb19, !dbg !1452

bb13:                                             ; preds = %bb12
  %_25 = icmp sge i64 %q, -27, !dbg !1453
  br i1 %_25, label %bb15, label %bb14, !dbg !1453

bb19:                                             ; preds = %bb12
  br label %bb20, !dbg !1454

bb20:                                             ; preds = %bb18, %bb19
  %_32 = lshr i64 %_19.1, 63, !dbg !1455
  %upperbit = trunc i64 %_32 to i32, !dbg !1455
  store i32 %upperbit, i32* %upperbit.dbg.spill, align 4, !dbg !1455
  call void @llvm.dbg.declare(metadata i32* %upperbit.dbg.spill, metadata !1409, metadata !DIExpression()), !dbg !1456
  %_38 = add i32 %upperbit, 64, !dbg !1457
  %_37 = sub i32 %_38, 52, !dbg !1457
  %_36 = sub i32 %_37, 3, !dbg !1458
  %28 = zext i32 %_36 to i64, !dbg !1459
  %29 = and i64 %28, 63, !dbg !1459
  %30 = lshr i64 %_19.1, %29, !dbg !1459
  store i64 %30, i64* %mantissa, align 8, !dbg !1459
  %_45 = trunc i64 %q to i32, !dbg !1460
; call core::num::dec2flt::lemire::power
  %_44 = call i32 @_ZN4core3num7dec2flt6lemire5power17he088a00dd9fef92cE(i32 %_45), !dbg !1461
  br label %bb21, !dbg !1461

bb14:                                             ; preds = %bb13
  store i8 0, i8* %inside_safe_exponent, align 1, !dbg !1453
  br label %bb16, !dbg !1453

bb15:                                             ; preds = %bb13
  %_27 = icmp sle i64 %q, 55, !dbg !1462
  %31 = zext i1 %_27 to i8, !dbg !1453
  store i8 %31, i8* %inside_safe_exponent, align 1, !dbg !1453
  br label %bb16, !dbg !1453

bb16:                                             ; preds = %bb14, %bb15
  %32 = load i8, i8* %inside_safe_exponent, align 1, !dbg !1463, !range !238
  %_30 = trunc i8 %32 to i1, !dbg !1463
  %_29 = xor i1 %_30, true, !dbg !1464
  br i1 %_29, label %bb17, label %bb18, !dbg !1464

bb18:                                             ; preds = %bb16
  br label %bb20, !dbg !1454

bb17:                                             ; preds = %bb16
  %33 = getelementptr inbounds { i64, i32 }, { i64, i32 }* %2, i32 0, i32 0, !dbg !1465
  store i64 %fp_error.0, i64* %33, align 8, !dbg !1465
  %34 = getelementptr inbounds { i64, i32 }, { i64, i32 }* %2, i32 0, i32 1, !dbg !1465
  store i32 %fp_error.1, i32* %34, align 8, !dbg !1465
  br label %bb46, !dbg !1466

bb46:                                             ; preds = %bb45, %bb17
  br label %bb48, !dbg !1431

bb21:                                             ; preds = %bb20
  %_43 = add i32 %_44, %upperbit, !dbg !1461
  %_42 = sub i32 %_43, %19, !dbg !1461
  %35 = sub i32 %_42, -1023, !dbg !1461
  store i32 %35, i32* %power2, align 4, !dbg !1461
  %_51 = load i32, i32* %power2, align 4, !dbg !1468
  %_50 = icmp sle i32 %_51, 0, !dbg !1468
  br i1 %_50, label %bb22, label %bb25, !dbg !1468

bb25:                                             ; preds = %bb21
  %_70 = icmp ule i64 %_19.0, 1, !dbg !1469
  br i1 %_70, label %bb36, label %bb35, !dbg !1469

bb22:                                             ; preds = %bb21
  %_55 = load i32, i32* %power2, align 4, !dbg !1470
  %_54 = sub i32 0, %_55, !dbg !1471
  %_53 = add i32 %_54, 1, !dbg !1471
  %_52 = icmp sge i32 %_53, 64, !dbg !1471
  br i1 %_52, label %bb23, label %bb24, !dbg !1471

bb24:                                             ; preds = %bb22
  %_58 = load i32, i32* %power2, align 4, !dbg !1472
  %_57 = sub i32 0, %_58, !dbg !1473
  %_56 = add i32 %_57, 1, !dbg !1473
  %36 = load i64, i64* %mantissa, align 8, !dbg !1474
  %37 = zext i32 %_56 to i64, !dbg !1474
  %38 = and i64 %37, 63, !dbg !1474
  %39 = lshr i64 %36, %38, !dbg !1474
  store i64 %39, i64* %mantissa, align 8, !dbg !1474
  %_60 = load i64, i64* %mantissa, align 8, !dbg !1475
  %_59 = and i64 %_60, 1, !dbg !1475
  %40 = load i64, i64* %mantissa, align 8, !dbg !1476
  %41 = add i64 %40, %_59, !dbg !1476
  store i64 %41, i64* %mantissa, align 8, !dbg !1476
  %42 = load i64, i64* %mantissa, align 8, !dbg !1477
  %43 = lshr i64 %42, 1, !dbg !1477
  store i64 %43, i64* %mantissa, align 8, !dbg !1477
  %_62 = load i64, i64* %mantissa, align 8, !dbg !1478
  %_61 = icmp uge i64 %_62, 4503599627370496, !dbg !1479
  %44 = icmp ule i1 %_61, true, !dbg !1480
  call void @llvm.assume(i1 %44), !dbg !1480
  %45 = zext i1 %_61 to i32, !dbg !1480
  store i32 %45, i32* %power2, align 4, !dbg !1480
  %_64 = load i64, i64* %mantissa, align 8, !dbg !1481
  %_65 = load i32, i32* %power2, align 4, !dbg !1482
  %46 = bitcast { i64, i32 }* %2 to i64*, !dbg !1483
  store i64 %_64, i64* %46, align 8, !dbg !1483
  %47 = getelementptr inbounds { i64, i32 }, { i64, i32 }* %2, i32 0, i32 1, !dbg !1483
  store i32 %_65, i32* %47, align 8, !dbg !1483
  br label %bb44, !dbg !1484

bb23:                                             ; preds = %bb22
  %48 = getelementptr inbounds { i64, i32 }, { i64, i32 }* %2, i32 0, i32 0, !dbg !1485
  store i64 %fp_zero.0, i64* %48, align 8, !dbg !1485
  %49 = getelementptr inbounds { i64, i32 }, { i64, i32 }* %2, i32 0, i32 1, !dbg !1485
  store i32 %fp_zero.1, i32* %49, align 8, !dbg !1485
  br label %bb44, !dbg !1486

bb44:                                             ; preds = %bb24, %bb23
  br label %bb45, !dbg !1486

bb45:                                             ; preds = %bb42, %bb44
  br label %bb46, !dbg !1466

bb35:                                             ; preds = %bb25
  store i8 0, i8* %_69, align 1, !dbg !1469
  br label %bb37, !dbg !1469

bb36:                                             ; preds = %bb25
  %_72 = icmp sge i64 %q, -4, !dbg !1488
  %50 = zext i1 %_72 to i8, !dbg !1469
  store i8 %50, i8* %_69, align 1, !dbg !1469
  br label %bb37, !dbg !1469

bb37:                                             ; preds = %bb35, %bb36
  %51 = load i8, i8* %_69, align 1, !dbg !1469, !range !238
  %52 = trunc i8 %51 to i1, !dbg !1469
  br i1 %52, label %bb33, label %bb32, !dbg !1469

bb32:                                             ; preds = %bb37
  store i8 0, i8* %_68, align 1, !dbg !1469
  br label %bb34, !dbg !1469

bb33:                                             ; preds = %bb37
  %_75 = icmp sle i64 %q, 23, !dbg !1489
  %53 = zext i1 %_75 to i8, !dbg !1469
  store i8 %53, i8* %_68, align 1, !dbg !1469
  br label %bb34, !dbg !1469

bb34:                                             ; preds = %bb32, %bb33
  %54 = load i8, i8* %_68, align 1, !dbg !1469, !range !238
  %55 = trunc i8 %54 to i1, !dbg !1469
  br i1 %55, label %bb30, label %bb29, !dbg !1469

bb29:                                             ; preds = %bb34
  store i8 0, i8* %_67, align 1, !dbg !1469
  br label %bb31, !dbg !1469

bb30:                                             ; preds = %bb34
  %_80 = load i64, i64* %mantissa, align 8, !dbg !1490
  %_79 = and i64 %_80, 3, !dbg !1490
  %_78 = icmp eq i64 %_79, 1, !dbg !1490
  %56 = zext i1 %_78 to i8, !dbg !1469
  store i8 %56, i8* %_67, align 1, !dbg !1469
  br label %bb31, !dbg !1469

bb31:                                             ; preds = %bb29, %bb30
  %57 = load i8, i8* %_67, align 1, !dbg !1469, !range !238
  %58 = trunc i8 %57 to i1, !dbg !1469
  br i1 %58, label %bb27, label %bb26, !dbg !1469

bb26:                                             ; preds = %bb31
  store i8 0, i8* %_66, align 1, !dbg !1469
  br label %bb28, !dbg !1469

bb27:                                             ; preds = %bb31
  %_83 = load i64, i64* %mantissa, align 8, !dbg !1491
  %_86 = add i32 %upperbit, 64, !dbg !1492
  %_85 = sub i32 %_86, 52, !dbg !1492
  %_84 = sub i32 %_85, 3, !dbg !1493
  %59 = zext i32 %_84 to i64, !dbg !1494
  %60 = and i64 %59, 63, !dbg !1494
  %_82 = shl i64 %_83, %60, !dbg !1494
  %_81 = icmp eq i64 %_82, %_19.1, !dbg !1494
  %61 = zext i1 %_81 to i8, !dbg !1469
  store i8 %61, i8* %_66, align 1, !dbg !1469
  br label %bb28, !dbg !1469

bb28:                                             ; preds = %bb26, %bb27
  %62 = load i8, i8* %_66, align 1, !dbg !1469, !range !238
  %63 = trunc i8 %62 to i1, !dbg !1469
  br i1 %63, label %bb38, label %bb39, !dbg !1469

bb39:                                             ; preds = %bb38, %bb28
  %_92 = load i64, i64* %mantissa, align 8, !dbg !1495
  %_91 = and i64 %_92, 1, !dbg !1495
  %64 = load i64, i64* %mantissa, align 8, !dbg !1496
  %65 = add i64 %64, %_91, !dbg !1496
  store i64 %65, i64* %mantissa, align 8, !dbg !1496
  %66 = load i64, i64* %mantissa, align 8, !dbg !1497
  %67 = lshr i64 %66, 1, !dbg !1497
  store i64 %67, i64* %mantissa, align 8, !dbg !1497
  %_94 = load i64, i64* %mantissa, align 8, !dbg !1498
  %_93 = icmp uge i64 %_94, 9007199254740992, !dbg !1498
  br i1 %_93, label %bb40, label %bb41, !dbg !1498

bb38:                                             ; preds = %bb28
  %68 = load i64, i64* %mantissa, align 8, !dbg !1499
  %69 = and i64 %68, -2, !dbg !1499
  store i64 %69, i64* %mantissa, align 8, !dbg !1499
  br label %bb39, !dbg !1500

bb41:                                             ; preds = %bb40, %bb39
  %70 = load i64, i64* %mantissa, align 8, !dbg !1501
  %71 = and i64 %70, -4503599627370497, !dbg !1501
  store i64 %71, i64* %mantissa, align 8, !dbg !1501
  %_99 = load i32, i32* %power2, align 4, !dbg !1502
  %_98 = icmp sge i32 %_99, 2047, !dbg !1502
  br i1 %_98, label %bb42, label %bb43, !dbg !1502

bb40:                                             ; preds = %bb39
  store i64 4503599627370496, i64* %mantissa, align 8, !dbg !1503
  %72 = load i32, i32* %power2, align 4, !dbg !1504
  %73 = add i32 %72, 1, !dbg !1504
  store i32 %73, i32* %power2, align 4, !dbg !1504
  br label %bb41, !dbg !1505

bb43:                                             ; preds = %bb41
  %_100 = load i64, i64* %mantissa, align 8, !dbg !1506
  %_101 = load i32, i32* %power2, align 4, !dbg !1507
  %74 = bitcast { i64, i32 }* %2 to i64*, !dbg !1508
  store i64 %_100, i64* %74, align 8, !dbg !1508
  %75 = getelementptr inbounds { i64, i32 }, { i64, i32 }* %2, i32 0, i32 1, !dbg !1508
  store i32 %_101, i32* %75, align 8, !dbg !1508
  br label %bb49, !dbg !1444

bb42:                                             ; preds = %bb41
  %76 = getelementptr inbounds { i64, i32 }, { i64, i32 }* %2, i32 0, i32 0, !dbg !1509
  store i64 %fp_inf.0, i64* %76, align 8, !dbg !1509
  %77 = getelementptr inbounds { i64, i32 }, { i64, i32 }* %2, i32 0, i32 1, !dbg !1509
  store i32 %fp_inf.1, i32* %77, align 8, !dbg !1509
  br label %bb45, !dbg !1486

bb49:                                             ; preds = %bb43, %bb48
  %78 = getelementptr inbounds { i64, i32 }, { i64, i32 }* %2, i32 0, i32 0, !dbg !1444
  %79 = load i64, i64* %78, align 8, !dbg !1444
  %80 = getelementptr inbounds { i64, i32 }, { i64, i32 }* %2, i32 0, i32 1, !dbg !1444
  %81 = load i32, i32* %80, align 8, !dbg !1444
  %82 = insertvalue { i64, i32 } undef, i64 %79, 0, !dbg !1444
  %83 = insertvalue { i64, i32 } %82, i32 %81, 1, !dbg !1444
  ret { i64, i32 } %83, !dbg !1444
}

; core::num::dec2flt::lemire::compute_float
; Function Attrs: nounwind
define { i64, i32 } @_ZN4core3num7dec2flt6lemire13compute_float17hd5e10d6c3cf83fd3E(i64 %q, i64 %0) unnamed_addr #1 !dbg !1510 {
start:
  %1 = alloca i64, align 8
  %self.dbg.spill.i = alloca i64, align 8
  %upperbit.dbg.spill = alloca i32, align 4
  %hi.dbg.spill = alloca i64, align 8
  %lo.dbg.spill = alloca i64, align 8
  %lz.dbg.spill = alloca i32, align 4
  %fp_error.dbg.spill = alloca { i64, i32 }, align 8
  %fp_inf.dbg.spill = alloca { i64, i32 }, align 8
  %fp_zero.dbg.spill = alloca { i64, i32 }, align 8
  %q.dbg.spill = alloca i64, align 8
  %_69 = alloca i8, align 1
  %_68 = alloca i8, align 1
  %_67 = alloca i8, align 1
  %_66 = alloca i8, align 1
  %power2 = alloca i32, align 4
  %mantissa = alloca i64, align 8
  %inside_safe_exponent = alloca i8, align 1
  %_6 = alloca i8, align 1
  %2 = alloca { i64, i32 }, align 8
  %w = alloca i64, align 8
  store i64 %0, i64* %w, align 8
  store i64 %q, i64* %q.dbg.spill, align 8
  call void @llvm.dbg.declare(metadata i64* %q.dbg.spill, metadata !1512, metadata !DIExpression()), !dbg !1533
  call void @llvm.dbg.declare(metadata i64* %w, metadata !1513, metadata !DIExpression()), !dbg !1534
  call void @llvm.dbg.declare(metadata i8* %inside_safe_exponent, metadata !1525, metadata !DIExpression()), !dbg !1535
  call void @llvm.dbg.declare(metadata i64* %mantissa, metadata !1529, metadata !DIExpression()), !dbg !1536
  call void @llvm.dbg.declare(metadata i32* %power2, metadata !1531, metadata !DIExpression()), !dbg !1537
; call core::num::dec2flt::common::BiasedFp::zero_pow2
  %3 = call { i64, i32 } @_ZN4core3num7dec2flt6common8BiasedFp9zero_pow217h27f36e273a7655ddE(i32 0), !dbg !1538
  %fp_zero.0 = extractvalue { i64, i32 } %3, 0, !dbg !1538
  %fp_zero.1 = extractvalue { i64, i32 } %3, 1, !dbg !1538
  %4 = getelementptr inbounds { i64, i32 }, { i64, i32 }* %fp_zero.dbg.spill, i32 0, i32 0, !dbg !1538
  store i64 %fp_zero.0, i64* %4, align 8, !dbg !1538
  %5 = getelementptr inbounds { i64, i32 }, { i64, i32 }* %fp_zero.dbg.spill, i32 0, i32 1, !dbg !1538
  store i32 %fp_zero.1, i32* %5, align 8, !dbg !1538
  call void @llvm.dbg.declare(metadata { i64, i32 }* %fp_zero.dbg.spill, metadata !1514, metadata !DIExpression()), !dbg !1539
  br label %bb1, !dbg !1538

bb1:                                              ; preds = %start
; call core::num::dec2flt::common::BiasedFp::zero_pow2
  %6 = call { i64, i32 } @_ZN4core3num7dec2flt6common8BiasedFp9zero_pow217h27f36e273a7655ddE(i32 255), !dbg !1540
  %fp_inf.0 = extractvalue { i64, i32 } %6, 0, !dbg !1540
  %fp_inf.1 = extractvalue { i64, i32 } %6, 1, !dbg !1540
  %7 = getelementptr inbounds { i64, i32 }, { i64, i32 }* %fp_inf.dbg.spill, i32 0, i32 0, !dbg !1540
  store i64 %fp_inf.0, i64* %7, align 8, !dbg !1540
  %8 = getelementptr inbounds { i64, i32 }, { i64, i32 }* %fp_inf.dbg.spill, i32 0, i32 1, !dbg !1540
  store i32 %fp_inf.1, i32* %8, align 8, !dbg !1540
  call void @llvm.dbg.declare(metadata { i64, i32 }* %fp_inf.dbg.spill, metadata !1516, metadata !DIExpression()), !dbg !1541
  br label %bb2, !dbg !1540

bb2:                                              ; preds = %bb1
; call core::num::dec2flt::common::BiasedFp::zero_pow2
  %9 = call { i64, i32 } @_ZN4core3num7dec2flt6common8BiasedFp9zero_pow217h27f36e273a7655ddE(i32 -1), !dbg !1542
  %fp_error.0 = extractvalue { i64, i32 } %9, 0, !dbg !1542
  %fp_error.1 = extractvalue { i64, i32 } %9, 1, !dbg !1542
  %10 = getelementptr inbounds { i64, i32 }, { i64, i32 }* %fp_error.dbg.spill, i32 0, i32 0, !dbg !1542
  store i64 %fp_error.0, i64* %10, align 8, !dbg !1542
  %11 = getelementptr inbounds { i64, i32 }, { i64, i32 }* %fp_error.dbg.spill, i32 0, i32 1, !dbg !1542
  store i32 %fp_error.1, i32* %11, align 8, !dbg !1542
  call void @llvm.dbg.declare(metadata { i64, i32 }* %fp_error.dbg.spill, metadata !1518, metadata !DIExpression()), !dbg !1543
  br label %bb3, !dbg !1542

bb3:                                              ; preds = %bb2
  %_7 = load i64, i64* %w, align 8, !dbg !1544
  %12 = icmp eq i64 %_7, 0, !dbg !1544
  br i1 %12, label %bb4, label %bb5, !dbg !1544

bb4:                                              ; preds = %bb3
  store i8 1, i8* %_6, align 1, !dbg !1544
  br label %bb6, !dbg !1544

bb5:                                              ; preds = %bb3
  %_8 = icmp slt i64 %q, -65, !dbg !1545
  %13 = zext i1 %_8 to i8, !dbg !1544
  store i8 %13, i8* %_6, align 1, !dbg !1544
  br label %bb6, !dbg !1544

bb6:                                              ; preds = %bb4, %bb5
  %14 = load i8, i8* %_6, align 1, !dbg !1544, !range !238
  %15 = trunc i8 %14 to i1, !dbg !1544
  br i1 %15, label %bb7, label %bb8, !dbg !1544

bb8:                                              ; preds = %bb6
  %_11 = icmp sgt i64 %q, 38, !dbg !1546
  br i1 %_11, label %bb9, label %bb10, !dbg !1546

bb7:                                              ; preds = %bb6
  %16 = getelementptr inbounds { i64, i32 }, { i64, i32 }* %2, i32 0, i32 0, !dbg !1547
  store i64 %fp_zero.0, i64* %16, align 8, !dbg !1547
  %17 = getelementptr inbounds { i64, i32 }, { i64, i32 }* %2, i32 0, i32 1, !dbg !1547
  store i32 %fp_zero.1, i32* %17, align 8, !dbg !1547
  br label %bb47, !dbg !1548

bb47:                                             ; preds = %bb9, %bb7
  br label %bb48, !dbg !1549

bb10:                                             ; preds = %bb8
  %_15 = load i64, i64* %w, align 8, !dbg !1551
  store i64 %_15, i64* %self.dbg.spill.i, align 8
  call void @llvm.dbg.declare(metadata i64* %self.dbg.spill.i, metadata !1434, metadata !DIExpression()) #7, !dbg !1552
  %18 = call i64 @llvm.ctlz.i64(i64 %_15, i1 false) #7, !dbg !1554
  store i64 %18, i64* %1, align 8, !dbg !1554
  %_2.i = load i64, i64* %1, align 8, !dbg !1554
  %19 = trunc i64 %_2.i to i32, !dbg !1554
  store i32 %19, i32* %lz.dbg.spill, align 4, !dbg !1551
  call void @llvm.dbg.declare(metadata i32* %lz.dbg.spill, metadata !1520, metadata !DIExpression()), !dbg !1555
  br label %bb11, !dbg !1551

bb9:                                              ; preds = %bb8
  %20 = getelementptr inbounds { i64, i32 }, { i64, i32 }* %2, i32 0, i32 0, !dbg !1556
  store i64 %fp_inf.0, i64* %20, align 8, !dbg !1556
  %21 = getelementptr inbounds { i64, i32 }, { i64, i32 }* %2, i32 0, i32 1, !dbg !1556
  store i32 %fp_inf.1, i32* %21, align 8, !dbg !1556
  br label %bb47, !dbg !1549

bb48:                                             ; preds = %bb46, %bb47
  br label %bb49, !dbg !1557

bb11:                                             ; preds = %bb10
  %22 = load i64, i64* %w, align 8, !dbg !1558
  %23 = zext i32 %19 to i64, !dbg !1558
  %24 = and i64 %23, 63, !dbg !1558
  %25 = shl i64 %22, %24, !dbg !1558
  store i64 %25, i64* %w, align 8, !dbg !1558
  %_21 = load i64, i64* %w, align 8, !dbg !1559
; call core::num::dec2flt::lemire::compute_product_approx
  %26 = call { i64, i64 } @_ZN4core3num7dec2flt6lemire22compute_product_approx17hab3e1a80d6151252E(i64 %q, i64 %_21, i64 26), !dbg !1560
  %_19.0 = extractvalue { i64, i64 } %26, 0, !dbg !1560
  %_19.1 = extractvalue { i64, i64 } %26, 1, !dbg !1560
  br label %bb12, !dbg !1560

bb12:                                             ; preds = %bb11
  store i64 %_19.0, i64* %lo.dbg.spill, align 8, !dbg !1561
  call void @llvm.dbg.declare(metadata i64* %lo.dbg.spill, metadata !1522, metadata !DIExpression()), !dbg !1562
  store i64 %_19.1, i64* %hi.dbg.spill, align 8, !dbg !1563
  call void @llvm.dbg.declare(metadata i64* %hi.dbg.spill, metadata !1524, metadata !DIExpression()), !dbg !1564
  %27 = icmp eq i64 %_19.0, -1, !dbg !1565
  br i1 %27, label %bb13, label %bb19, !dbg !1565

bb13:                                             ; preds = %bb12
  %_25 = icmp sge i64 %q, -27, !dbg !1566
  br i1 %_25, label %bb15, label %bb14, !dbg !1566

bb19:                                             ; preds = %bb12
  br label %bb20, !dbg !1567

bb20:                                             ; preds = %bb18, %bb19
  %_32 = lshr i64 %_19.1, 63, !dbg !1568
  %upperbit = trunc i64 %_32 to i32, !dbg !1568
  store i32 %upperbit, i32* %upperbit.dbg.spill, align 4, !dbg !1568
  call void @llvm.dbg.declare(metadata i32* %upperbit.dbg.spill, metadata !1527, metadata !DIExpression()), !dbg !1569
  %_38 = add i32 %upperbit, 64, !dbg !1570
  %_37 = sub i32 %_38, 23, !dbg !1570
  %_36 = sub i32 %_37, 3, !dbg !1571
  %28 = zext i32 %_36 to i64, !dbg !1572
  %29 = and i64 %28, 63, !dbg !1572
  %30 = lshr i64 %_19.1, %29, !dbg !1572
  store i64 %30, i64* %mantissa, align 8, !dbg !1572
  %_45 = trunc i64 %q to i32, !dbg !1573
; call core::num::dec2flt::lemire::power
  %_44 = call i32 @_ZN4core3num7dec2flt6lemire5power17he088a00dd9fef92cE(i32 %_45), !dbg !1574
  br label %bb21, !dbg !1574

bb14:                                             ; preds = %bb13
  store i8 0, i8* %inside_safe_exponent, align 1, !dbg !1566
  br label %bb16, !dbg !1566

bb15:                                             ; preds = %bb13
  %_27 = icmp sle i64 %q, 55, !dbg !1575
  %31 = zext i1 %_27 to i8, !dbg !1566
  store i8 %31, i8* %inside_safe_exponent, align 1, !dbg !1566
  br label %bb16, !dbg !1566

bb16:                                             ; preds = %bb14, %bb15
  %32 = load i8, i8* %inside_safe_exponent, align 1, !dbg !1576, !range !238
  %_30 = trunc i8 %32 to i1, !dbg !1576
  %_29 = xor i1 %_30, true, !dbg !1577
  br i1 %_29, label %bb17, label %bb18, !dbg !1577

bb18:                                             ; preds = %bb16
  br label %bb20, !dbg !1567

bb17:                                             ; preds = %bb16
  %33 = getelementptr inbounds { i64, i32 }, { i64, i32 }* %2, i32 0, i32 0, !dbg !1578
  store i64 %fp_error.0, i64* %33, align 8, !dbg !1578
  %34 = getelementptr inbounds { i64, i32 }, { i64, i32 }* %2, i32 0, i32 1, !dbg !1578
  store i32 %fp_error.1, i32* %34, align 8, !dbg !1578
  br label %bb46, !dbg !1579

bb46:                                             ; preds = %bb45, %bb17
  br label %bb48, !dbg !1549

bb21:                                             ; preds = %bb20
  %_43 = add i32 %_44, %upperbit, !dbg !1574
  %_42 = sub i32 %_43, %19, !dbg !1574
  %35 = sub i32 %_42, -127, !dbg !1574
  store i32 %35, i32* %power2, align 4, !dbg !1574
  %_51 = load i32, i32* %power2, align 4, !dbg !1581
  %_50 = icmp sle i32 %_51, 0, !dbg !1581
  br i1 %_50, label %bb22, label %bb25, !dbg !1581

bb25:                                             ; preds = %bb21
  %_70 = icmp ule i64 %_19.0, 1, !dbg !1582
  br i1 %_70, label %bb36, label %bb35, !dbg !1582

bb22:                                             ; preds = %bb21
  %_55 = load i32, i32* %power2, align 4, !dbg !1583
  %_54 = sub i32 0, %_55, !dbg !1584
  %_53 = add i32 %_54, 1, !dbg !1584
  %_52 = icmp sge i32 %_53, 64, !dbg !1584
  br i1 %_52, label %bb23, label %bb24, !dbg !1584

bb24:                                             ; preds = %bb22
  %_58 = load i32, i32* %power2, align 4, !dbg !1585
  %_57 = sub i32 0, %_58, !dbg !1586
  %_56 = add i32 %_57, 1, !dbg !1586
  %36 = load i64, i64* %mantissa, align 8, !dbg !1587
  %37 = zext i32 %_56 to i64, !dbg !1587
  %38 = and i64 %37, 63, !dbg !1587
  %39 = lshr i64 %36, %38, !dbg !1587
  store i64 %39, i64* %mantissa, align 8, !dbg !1587
  %_60 = load i64, i64* %mantissa, align 8, !dbg !1588
  %_59 = and i64 %_60, 1, !dbg !1588
  %40 = load i64, i64* %mantissa, align 8, !dbg !1589
  %41 = add i64 %40, %_59, !dbg !1589
  store i64 %41, i64* %mantissa, align 8, !dbg !1589
  %42 = load i64, i64* %mantissa, align 8, !dbg !1590
  %43 = lshr i64 %42, 1, !dbg !1590
  store i64 %43, i64* %mantissa, align 8, !dbg !1590
  %_62 = load i64, i64* %mantissa, align 8, !dbg !1591
  %_61 = icmp uge i64 %_62, 8388608, !dbg !1592
  %44 = icmp ule i1 %_61, true, !dbg !1593
  call void @llvm.assume(i1 %44), !dbg !1593
  %45 = zext i1 %_61 to i32, !dbg !1593
  store i32 %45, i32* %power2, align 4, !dbg !1593
  %_64 = load i64, i64* %mantissa, align 8, !dbg !1594
  %_65 = load i32, i32* %power2, align 4, !dbg !1595
  %46 = bitcast { i64, i32 }* %2 to i64*, !dbg !1596
  store i64 %_64, i64* %46, align 8, !dbg !1596
  %47 = getelementptr inbounds { i64, i32 }, { i64, i32 }* %2, i32 0, i32 1, !dbg !1596
  store i32 %_65, i32* %47, align 8, !dbg !1596
  br label %bb44, !dbg !1597

bb23:                                             ; preds = %bb22
  %48 = getelementptr inbounds { i64, i32 }, { i64, i32 }* %2, i32 0, i32 0, !dbg !1598
  store i64 %fp_zero.0, i64* %48, align 8, !dbg !1598
  %49 = getelementptr inbounds { i64, i32 }, { i64, i32 }* %2, i32 0, i32 1, !dbg !1598
  store i32 %fp_zero.1, i32* %49, align 8, !dbg !1598
  br label %bb44, !dbg !1599

bb44:                                             ; preds = %bb24, %bb23
  br label %bb45, !dbg !1599

bb45:                                             ; preds = %bb42, %bb44
  br label %bb46, !dbg !1579

bb35:                                             ; preds = %bb25
  store i8 0, i8* %_69, align 1, !dbg !1582
  br label %bb37, !dbg !1582

bb36:                                             ; preds = %bb25
  %_72 = icmp sge i64 %q, -17, !dbg !1601
  %50 = zext i1 %_72 to i8, !dbg !1582
  store i8 %50, i8* %_69, align 1, !dbg !1582
  br label %bb37, !dbg !1582

bb37:                                             ; preds = %bb35, %bb36
  %51 = load i8, i8* %_69, align 1, !dbg !1582, !range !238
  %52 = trunc i8 %51 to i1, !dbg !1582
  br i1 %52, label %bb33, label %bb32, !dbg !1582

bb32:                                             ; preds = %bb37
  store i8 0, i8* %_68, align 1, !dbg !1582
  br label %bb34, !dbg !1582

bb33:                                             ; preds = %bb37
  %_75 = icmp sle i64 %q, 10, !dbg !1602
  %53 = zext i1 %_75 to i8, !dbg !1582
  store i8 %53, i8* %_68, align 1, !dbg !1582
  br label %bb34, !dbg !1582

bb34:                                             ; preds = %bb32, %bb33
  %54 = load i8, i8* %_68, align 1, !dbg !1582, !range !238
  %55 = trunc i8 %54 to i1, !dbg !1582
  br i1 %55, label %bb30, label %bb29, !dbg !1582

bb29:                                             ; preds = %bb34
  store i8 0, i8* %_67, align 1, !dbg !1582
  br label %bb31, !dbg !1582

bb30:                                             ; preds = %bb34
  %_80 = load i64, i64* %mantissa, align 8, !dbg !1603
  %_79 = and i64 %_80, 3, !dbg !1603
  %_78 = icmp eq i64 %_79, 1, !dbg !1603
  %56 = zext i1 %_78 to i8, !dbg !1582
  store i8 %56, i8* %_67, align 1, !dbg !1582
  br label %bb31, !dbg !1582

bb31:                                             ; preds = %bb29, %bb30
  %57 = load i8, i8* %_67, align 1, !dbg !1582, !range !238
  %58 = trunc i8 %57 to i1, !dbg !1582
  br i1 %58, label %bb27, label %bb26, !dbg !1582

bb26:                                             ; preds = %bb31
  store i8 0, i8* %_66, align 1, !dbg !1582
  br label %bb28, !dbg !1582

bb27:                                             ; preds = %bb31
  %_83 = load i64, i64* %mantissa, align 8, !dbg !1604
  %_86 = add i32 %upperbit, 64, !dbg !1605
  %_85 = sub i32 %_86, 23, !dbg !1605
  %_84 = sub i32 %_85, 3, !dbg !1606
  %59 = zext i32 %_84 to i64, !dbg !1607
  %60 = and i64 %59, 63, !dbg !1607
  %_82 = shl i64 %_83, %60, !dbg !1607
  %_81 = icmp eq i64 %_82, %_19.1, !dbg !1607
  %61 = zext i1 %_81 to i8, !dbg !1582
  store i8 %61, i8* %_66, align 1, !dbg !1582
  br label %bb28, !dbg !1582

bb28:                                             ; preds = %bb26, %bb27
  %62 = load i8, i8* %_66, align 1, !dbg !1582, !range !238
  %63 = trunc i8 %62 to i1, !dbg !1582
  br i1 %63, label %bb38, label %bb39, !dbg !1582

bb39:                                             ; preds = %bb38, %bb28
  %_92 = load i64, i64* %mantissa, align 8, !dbg !1608
  %_91 = and i64 %_92, 1, !dbg !1608
  %64 = load i64, i64* %mantissa, align 8, !dbg !1609
  %65 = add i64 %64, %_91, !dbg !1609
  store i64 %65, i64* %mantissa, align 8, !dbg !1609
  %66 = load i64, i64* %mantissa, align 8, !dbg !1610
  %67 = lshr i64 %66, 1, !dbg !1610
  store i64 %67, i64* %mantissa, align 8, !dbg !1610
  %_94 = load i64, i64* %mantissa, align 8, !dbg !1611
  %_93 = icmp uge i64 %_94, 16777216, !dbg !1611
  br i1 %_93, label %bb40, label %bb41, !dbg !1611

bb38:                                             ; preds = %bb28
  %68 = load i64, i64* %mantissa, align 8, !dbg !1612
  %69 = and i64 %68, -2, !dbg !1612
  store i64 %69, i64* %mantissa, align 8, !dbg !1612
  br label %bb39, !dbg !1613

bb41:                                             ; preds = %bb40, %bb39
  %70 = load i64, i64* %mantissa, align 8, !dbg !1614
  %71 = and i64 %70, -8388609, !dbg !1614
  store i64 %71, i64* %mantissa, align 8, !dbg !1614
  %_99 = load i32, i32* %power2, align 4, !dbg !1615
  %_98 = icmp sge i32 %_99, 255, !dbg !1615
  br i1 %_98, label %bb42, label %bb43, !dbg !1615

bb40:                                             ; preds = %bb39
  store i64 8388608, i64* %mantissa, align 8, !dbg !1616
  %72 = load i32, i32* %power2, align 4, !dbg !1617
  %73 = add i32 %72, 1, !dbg !1617
  store i32 %73, i32* %power2, align 4, !dbg !1617
  br label %bb41, !dbg !1618

bb43:                                             ; preds = %bb41
  %_100 = load i64, i64* %mantissa, align 8, !dbg !1619
  %_101 = load i32, i32* %power2, align 4, !dbg !1620
  %74 = bitcast { i64, i32 }* %2 to i64*, !dbg !1621
  store i64 %_100, i64* %74, align 8, !dbg !1621
  %75 = getelementptr inbounds { i64, i32 }, { i64, i32 }* %2, i32 0, i32 1, !dbg !1621
  store i32 %_101, i32* %75, align 8, !dbg !1621
  br label %bb49, !dbg !1557

bb42:                                             ; preds = %bb41
  %76 = getelementptr inbounds { i64, i32 }, { i64, i32 }* %2, i32 0, i32 0, !dbg !1622
  store i64 %fp_inf.0, i64* %76, align 8, !dbg !1622
  %77 = getelementptr inbounds { i64, i32 }, { i64, i32 }* %2, i32 0, i32 1, !dbg !1622
  store i32 %fp_inf.1, i32* %77, align 8, !dbg !1622
  br label %bb45, !dbg !1599

bb49:                                             ; preds = %bb43, %bb48
  %78 = getelementptr inbounds { i64, i32 }, { i64, i32 }* %2, i32 0, i32 0, !dbg !1557
  %79 = load i64, i64* %78, align 8, !dbg !1557
  %80 = getelementptr inbounds { i64, i32 }, { i64, i32 }* %2, i32 0, i32 1, !dbg !1557
  %81 = load i32, i32* %80, align 8, !dbg !1557
  %82 = insertvalue { i64, i32 } undef, i64 %79, 0, !dbg !1557
  %83 = insertvalue { i64, i32 } %82, i32 %81, 1, !dbg !1557
  ret { i64, i32 } %83, !dbg !1557
}

; core::num::dec2flt::number::Number::is_fast_path
; Function Attrs: nounwind
define zeroext i1 @_ZN4core3num7dec2flt6number6Number12is_fast_path17h8016bb15f1584968E(%"core::num::dec2flt::number::Number"* align 8 dereferenceable(24) %self) unnamed_addr #1 !dbg !1623 {
start:
  %self.dbg.spill = alloca %"core::num::dec2flt::number::Number"*, align 8
  %_3 = alloca i8, align 1
  %_2 = alloca i8, align 1
  %0 = alloca i8, align 1
  store %"core::num::dec2flt::number::Number"* %self, %"core::num::dec2flt::number::Number"** %self.dbg.spill, align 8
  call void @llvm.dbg.declare(metadata %"core::num::dec2flt::number::Number"** %self.dbg.spill, metadata !1636, metadata !DIExpression()), !dbg !1637
  %1 = bitcast %"core::num::dec2flt::number::Number"* %self to i64*, !dbg !1638
  %_5 = load i64, i64* %1, align 8, !dbg !1638
  %_4 = icmp sle i64 -10, %_5, !dbg !1639
  br i1 %_4, label %bb8, label %bb7, !dbg !1639

bb7:                                              ; preds = %start
  store i8 0, i8* %_3, align 1, !dbg !1639
  br label %bb9, !dbg !1639

bb8:                                              ; preds = %start
  %2 = bitcast %"core::num::dec2flt::number::Number"* %self to i64*, !dbg !1640
  %_7 = load i64, i64* %2, align 8, !dbg !1640
  %_6 = icmp sle i64 %_7, 17, !dbg !1640
  %3 = zext i1 %_6 to i8, !dbg !1639
  store i8 %3, i8* %_3, align 1, !dbg !1639
  br label %bb9, !dbg !1639

bb9:                                              ; preds = %bb7, %bb8
  %4 = load i8, i8* %_3, align 1, !dbg !1639, !range !238
  %5 = trunc i8 %4 to i1, !dbg !1639
  br i1 %5, label %bb5, label %bb4, !dbg !1639

bb4:                                              ; preds = %bb9
  store i8 0, i8* %_2, align 1, !dbg !1639
  br label %bb6, !dbg !1639

bb5:                                              ; preds = %bb9
  %6 = getelementptr inbounds %"core::num::dec2flt::number::Number", %"core::num::dec2flt::number::Number"* %self, i32 0, i32 1, !dbg !1641
  %_9 = load i64, i64* %6, align 8, !dbg !1641
  %_8 = icmp ule i64 %_9, 16777216, !dbg !1641
  %7 = zext i1 %_8 to i8, !dbg !1639
  store i8 %7, i8* %_2, align 1, !dbg !1639
  br label %bb6, !dbg !1639

bb6:                                              ; preds = %bb4, %bb5
  %8 = load i8, i8* %_2, align 1, !dbg !1639, !range !238
  %9 = trunc i8 %8 to i1, !dbg !1639
  br i1 %9, label %bb2, label %bb1, !dbg !1639

bb1:                                              ; preds = %bb6
  store i8 0, i8* %0, align 1, !dbg !1639
  br label %bb3, !dbg !1639

bb2:                                              ; preds = %bb6
  %10 = getelementptr inbounds %"core::num::dec2flt::number::Number", %"core::num::dec2flt::number::Number"* %self, i32 0, i32 3, !dbg !1642
  %11 = load i8, i8* %10, align 1, !dbg !1642, !range !238
  %_11 = trunc i8 %11 to i1, !dbg !1642
  %_10 = xor i1 %_11, true, !dbg !1643
  %12 = zext i1 %_10 to i8, !dbg !1639
  store i8 %12, i8* %0, align 1, !dbg !1639
  br label %bb3, !dbg !1639

bb3:                                              ; preds = %bb1, %bb2
  %13 = load i8, i8* %0, align 1, !dbg !1644, !range !238
  %14 = trunc i8 %13 to i1, !dbg !1644
  ret i1 %14, !dbg !1644
}

; core::num::dec2flt::number::Number::is_fast_path
; Function Attrs: nounwind
define zeroext i1 @_ZN4core3num7dec2flt6number6Number12is_fast_path17hacbc41360462ff4eE(%"core::num::dec2flt::number::Number"* align 8 dereferenceable(24) %self) unnamed_addr #1 !dbg !1645 {
start:
  %self.dbg.spill = alloca %"core::num::dec2flt::number::Number"*, align 8
  %_3 = alloca i8, align 1
  %_2 = alloca i8, align 1
  %0 = alloca i8, align 1
  store %"core::num::dec2flt::number::Number"* %self, %"core::num::dec2flt::number::Number"** %self.dbg.spill, align 8
  call void @llvm.dbg.declare(metadata %"core::num::dec2flt::number::Number"** %self.dbg.spill, metadata !1647, metadata !DIExpression()), !dbg !1648
  %1 = bitcast %"core::num::dec2flt::number::Number"* %self to i64*, !dbg !1649
  %_5 = load i64, i64* %1, align 8, !dbg !1649
  %_4 = icmp sle i64 -22, %_5, !dbg !1650
  br i1 %_4, label %bb8, label %bb7, !dbg !1650

bb7:                                              ; preds = %start
  store i8 0, i8* %_3, align 1, !dbg !1650
  br label %bb9, !dbg !1650

bb8:                                              ; preds = %start
  %2 = bitcast %"core::num::dec2flt::number::Number"* %self to i64*, !dbg !1651
  %_7 = load i64, i64* %2, align 8, !dbg !1651
  %_6 = icmp sle i64 %_7, 37, !dbg !1651
  %3 = zext i1 %_6 to i8, !dbg !1650
  store i8 %3, i8* %_3, align 1, !dbg !1650
  br label %bb9, !dbg !1650

bb9:                                              ; preds = %bb7, %bb8
  %4 = load i8, i8* %_3, align 1, !dbg !1650, !range !238
  %5 = trunc i8 %4 to i1, !dbg !1650
  br i1 %5, label %bb5, label %bb4, !dbg !1650

bb4:                                              ; preds = %bb9
  store i8 0, i8* %_2, align 1, !dbg !1650
  br label %bb6, !dbg !1650

bb5:                                              ; preds = %bb9
  %6 = getelementptr inbounds %"core::num::dec2flt::number::Number", %"core::num::dec2flt::number::Number"* %self, i32 0, i32 1, !dbg !1652
  %_9 = load i64, i64* %6, align 8, !dbg !1652
  %_8 = icmp ule i64 %_9, 9007199254740992, !dbg !1652
  %7 = zext i1 %_8 to i8, !dbg !1650
  store i8 %7, i8* %_2, align 1, !dbg !1650
  br label %bb6, !dbg !1650

bb6:                                              ; preds = %bb4, %bb5
  %8 = load i8, i8* %_2, align 1, !dbg !1650, !range !238
  %9 = trunc i8 %8 to i1, !dbg !1650
  br i1 %9, label %bb2, label %bb1, !dbg !1650

bb1:                                              ; preds = %bb6
  store i8 0, i8* %0, align 1, !dbg !1650
  br label %bb3, !dbg !1650

bb2:                                              ; preds = %bb6
  %10 = getelementptr inbounds %"core::num::dec2flt::number::Number", %"core::num::dec2flt::number::Number"* %self, i32 0, i32 3, !dbg !1653
  %11 = load i8, i8* %10, align 1, !dbg !1653, !range !238
  %_11 = trunc i8 %11 to i1, !dbg !1653
  %_10 = xor i1 %_11, true, !dbg !1654
  %12 = zext i1 %_10 to i8, !dbg !1650
  store i8 %12, i8* %0, align 1, !dbg !1650
  br label %bb3, !dbg !1650

bb3:                                              ; preds = %bb1, %bb2
  %13 = load i8, i8* %0, align 1, !dbg !1655, !range !238
  %14 = trunc i8 %13 to i1, !dbg !1655
  ret i1 %14, !dbg !1655
}

; core::num::dec2flt::number::Number::try_fast_path
; Function Attrs: nounwind
define { i64, double } @_ZN4core3num7dec2flt6number6Number13try_fast_path17hbd6181af72375dd5E(%"core::num::dec2flt::number::Number"* align 8 dereferenceable(24) %self) unnamed_addr #1 !dbg !1656 {
start:
  %mantissa.dbg.spill = alloca i64, align 8
  %val.dbg.spill = alloca i64, align 8
  %shift.dbg.spill = alloca i64, align 8
  %value.dbg.spill = alloca double, align 8
  %residual.dbg.spill = alloca %"core::option::Option<core::convert::Infallible>::None", align 1
  %_cw.dbg.spill = alloca {}, align 1
  %self.dbg.spill = alloca %"core::num::dec2flt::number::Number"*, align 8
  %_30 = alloca [16 x i64], align 8
  %_26 = alloca { i64, i64 }, align 8
  %value = alloca double, align 8
  %0 = alloca { i64, double }, align 8
  store %"core::num::dec2flt::number::Number"* %self, %"core::num::dec2flt::number::Number"** %self.dbg.spill, align 8
  call void @llvm.dbg.declare(metadata %"core::num::dec2flt::number::Number"** %self.dbg.spill, metadata !1660, metadata !DIExpression()), !dbg !1675
  call void @llvm.dbg.declare(metadata {}* %_cw.dbg.spill, metadata !1661, metadata !DIExpression()), !dbg !1676
  call void @llvm.dbg.declare(metadata double* %value, metadata !1663, metadata !DIExpression()), !dbg !1677
  call void @llvm.dbg.declare(metadata %"core::option::Option<core::convert::Infallible>::None"* %residual.dbg.spill, metadata !1671, metadata !DIExpression()), !dbg !1678
; call core::num::dec2flt::fpu::fpu_precision::set_precision
  call void @_ZN4core3num7dec2flt3fpu13fpu_precision13set_precision17h678315491519b81dE(), !dbg !1679
  br label %bb1, !dbg !1679

bb1:                                              ; preds = %start
; call core::num::dec2flt::number::Number::is_fast_path
  %_3 = call zeroext i1 @_ZN4core3num7dec2flt6number6Number12is_fast_path17hacbc41360462ff4eE(%"core::num::dec2flt::number::Number"* align 8 dereferenceable(24) %self), !dbg !1680
  br label %bb2, !dbg !1680

bb2:                                              ; preds = %bb1
  br i1 %_3, label %bb3, label %bb30, !dbg !1680

bb30:                                             ; preds = %bb2
  %1 = bitcast { i64, double }* %0 to i64*, !dbg !1681
  store i64 0, i64* %1, align 8, !dbg !1681
  br label %bb31, !dbg !1682

bb3:                                              ; preds = %bb2
  %2 = bitcast %"core::num::dec2flt::number::Number"* %self to i64*, !dbg !1683
  %_7 = load i64, i64* %2, align 8, !dbg !1683
  %_6 = icmp sle i64 %_7, 22, !dbg !1683
  br i1 %_6, label %bb4, label %bb13, !dbg !1683

bb13:                                             ; preds = %bb3
  %3 = bitcast %"core::num::dec2flt::number::Number"* %self to i64*, !dbg !1684
  %_24 = load i64, i64* %3, align 8, !dbg !1684
  %shift = sub i64 %_24, 22, !dbg !1684
  store i64 %shift, i64* %shift.dbg.spill, align 8, !dbg !1684
  call void @llvm.dbg.declare(metadata i64* %shift.dbg.spill, metadata !1667, metadata !DIExpression()), !dbg !1685
  %4 = getelementptr inbounds %"core::num::dec2flt::number::Number", %"core::num::dec2flt::number::Number"* %self, i32 0, i32 1, !dbg !1686
  %_28 = load i64, i64* %4, align 8, !dbg !1686
  %5 = bitcast [16 x i64]* %_30 to i8*, !dbg !1687
  call void @llvm.memcpy.p0i8.p0i8.i64(i8* align 8 %5, i8* align 8 getelementptr inbounds (<{ [128 x i8] }>, <{ [128 x i8] }>* @1, i32 0, i32 0, i32 0), i64 128, i1 false), !dbg !1687
  %_34 = icmp ult i64 %shift, 16, !dbg !1687
  %6 = call i1 @llvm.expect.i1(i1 %_34, i1 true), !dbg !1687
  br i1 %6, label %bb14, label %panic, !dbg !1687

bb4:                                              ; preds = %bb3
  %7 = getelementptr inbounds %"core::num::dec2flt::number::Number", %"core::num::dec2flt::number::Number"* %self, i32 0, i32 1, !dbg !1688
  %_9 = load i64, i64* %7, align 8, !dbg !1688
; call <f64 as core::num::dec2flt::float::RawFloat>::from_u64
  %value1 = call double @"_ZN59_$LT$f64$u20$as$u20$core..num..dec2flt..float..RawFloat$GT$8from_u6417h4be8590774404ca3E"(i64 %_9), !dbg !1689
  store double %value1, double* %value.dbg.spill, align 8, !dbg !1689
  call void @llvm.dbg.declare(metadata double* %value.dbg.spill, metadata !1665, metadata !DIExpression()), !dbg !1690
  br label %bb5, !dbg !1689

bb5:                                              ; preds = %bb4
  %8 = bitcast %"core::num::dec2flt::number::Number"* %self to i64*, !dbg !1691
  %_11 = load i64, i64* %8, align 8, !dbg !1691
  %_10 = icmp slt i64 %_11, 0, !dbg !1691
  br i1 %_10, label %bb6, label %bb9, !dbg !1691

bb9:                                              ; preds = %bb5
  %9 = bitcast %"core::num::dec2flt::number::Number"* %self to i64*, !dbg !1692
  %_22 = load i64, i64* %9, align 8, !dbg !1692
; call <f64 as core::num::dec2flt::float::RawFloat>::pow10_fast_path
  %_19 = call double @"_ZN59_$LT$f64$u20$as$u20$core..num..dec2flt..float..RawFloat$GT$15pow10_fast_path17h02354e6c97ec916bE"(i64 %_22), !dbg !1693
  br label %bb10, !dbg !1693

bb6:                                              ; preds = %bb5
  %10 = bitcast %"core::num::dec2flt::number::Number"* %self to i64*, !dbg !1694
  %_17 = load i64, i64* %10, align 8, !dbg !1694
  %_16 = sub i64 0, %_17, !dbg !1695
; call <f64 as core::num::dec2flt::float::RawFloat>::pow10_fast_path
  %_13 = call double @"_ZN59_$LT$f64$u20$as$u20$core..num..dec2flt..float..RawFloat$GT$15pow10_fast_path17h02354e6c97ec916bE"(i64 %_16), !dbg !1696
  br label %bb7, !dbg !1696

bb7:                                              ; preds = %bb6
; call <f64 as core::ops::arith::Div>::div
  %11 = call double @"_ZN45_$LT$f64$u20$as$u20$core..ops..arith..Div$GT$3div17h3f3cf0a934854f68E"(double %value1, double %_13), !dbg !1697
  store double %11, double* %value, align 8, !dbg !1697
  br label %bb8, !dbg !1697

bb8:                                              ; preds = %bb7
  br label %bb12, !dbg !1698

bb12:                                             ; preds = %bb11, %bb8
  br label %bb26, !dbg !1699

bb10:                                             ; preds = %bb9
; call <f64 as core::ops::arith::Mul>::mul
  %12 = call double @"_ZN45_$LT$f64$u20$as$u20$core..ops..arith..Mul$GT$3mul17hbd1481c8bcbc57e1E"(double %value1, double %_19), !dbg !1700
  store double %12, double* %value, align 8, !dbg !1700
  br label %bb11, !dbg !1700

bb11:                                             ; preds = %bb10
  br label %bb12, !dbg !1698

bb26:                                             ; preds = %bb25, %bb12
  %13 = getelementptr inbounds %"core::num::dec2flt::number::Number", %"core::num::dec2flt::number::Number"* %self, i32 0, i32 2, !dbg !1701
  %14 = load i8, i8* %13, align 8, !dbg !1701, !range !238
  %_46 = trunc i8 %14 to i1, !dbg !1701
  br i1 %_46, label %bb27, label %bb29, !dbg !1701

bb14:                                             ; preds = %bb13
  %15 = getelementptr inbounds [16 x i64], [16 x i64]* %_30, i64 0, i64 %shift, !dbg !1687
  %_29 = load i64, i64* %15, align 8, !dbg !1687
; call core::num::<impl u64>::checked_mul
  %16 = call { i64, i64 } @"_ZN4core3num21_$LT$impl$u20$u64$GT$11checked_mul17h4cf3e0f6afebc40eE"(i64 %_28, i64 %_29), !dbg !1686
  %_27.0 = extractvalue { i64, i64 } %16, 0, !dbg !1686
  %_27.1 = extractvalue { i64, i64 } %16, 1, !dbg !1686
  br label %bb15, !dbg !1686

panic:                                            ; preds = %bb13
; call core::panicking::panic_bounds_check
  call void @_ZN4core9panicking18panic_bounds_check17h865b4c1c7f870517E(i64 %shift, i64 16, %"core::panic::Location"* align 8 dereferenceable(24) bitcast (<{ i8*, [16 x i8] }>* @alloc2950 to %"core::panic::Location"*)), !dbg !1687
  unreachable, !dbg !1687

bb15:                                             ; preds = %bb14
; call <core::option::Option<T> as core::ops::try_trait::Try>::branch
  %17 = call { i64, i64 } @"_ZN75_$LT$core..option..Option$LT$T$GT$$u20$as$u20$core..ops..try_trait..Try$GT$6branch17h833feb00c42a4ac7E"(i64 %_27.0, i64 %_27.1), !dbg !1686
  store { i64, i64 } %17, { i64, i64 }* %_26, align 8, !dbg !1686
  br label %bb16, !dbg !1686

bb16:                                             ; preds = %bb15
  %18 = bitcast { i64, i64 }* %_26 to i64*, !dbg !1686
  %_35 = load i64, i64* %18, align 8, !dbg !1686, !range !792
  switch i64 %_35, label %bb18 [
    i64 0, label %bb17
    i64 1, label %bb19
  ], !dbg !1686

bb18:                                             ; preds = %bb16
  unreachable, !dbg !1686

bb17:                                             ; preds = %bb16
  %19 = bitcast { i64, i64 }* %_26 to %"core::ops::ControlFlow<core::option::Option<core::convert::Infallible>, u64>::Continue"*, !dbg !1686
  %20 = getelementptr inbounds %"core::ops::ControlFlow<core::option::Option<core::convert::Infallible>, u64>::Continue", %"core::ops::ControlFlow<core::option::Option<core::convert::Infallible>, u64>::Continue"* %19, i32 0, i32 1, !dbg !1686
  %val = load i64, i64* %20, align 8, !dbg !1686
  store i64 %val, i64* %val.dbg.spill, align 8, !dbg !1686
  call void @llvm.dbg.declare(metadata i64* %val.dbg.spill, metadata !1673, metadata !DIExpression()), !dbg !1702
  store i64 %val, i64* %mantissa.dbg.spill, align 8, !dbg !1702
  call void @llvm.dbg.declare(metadata i64* %mantissa.dbg.spill, metadata !1669, metadata !DIExpression()), !dbg !1703
  %_39 = icmp ugt i64 %val, 9007199254740992, !dbg !1704
  br i1 %_39, label %bb21, label %bb22, !dbg !1704

bb19:                                             ; preds = %bb16
; call <core::option::Option<T> as core::ops::try_trait::FromResidual>::from_residual
  %21 = call { i64, double } @"_ZN84_$LT$core..option..Option$LT$T$GT$$u20$as$u20$core..ops..try_trait..FromResidual$GT$13from_residual17hcd31cae4291415daE"(), !dbg !1705
  store { i64, double } %21, { i64, double }* %0, align 8, !dbg !1705
  br label %bb20, !dbg !1705

bb20:                                             ; preds = %bb19
  br label %bb32, !dbg !1706

bb32:                                             ; preds = %bb21, %bb20
  br label %bb33, !dbg !1708

bb22:                                             ; preds = %bb17
; call <f64 as core::num::dec2flt::float::RawFloat>::from_u64
  %_41 = call double @"_ZN59_$LT$f64$u20$as$u20$core..num..dec2flt..float..RawFloat$GT$8from_u6417h4be8590774404ca3E"(i64 %val), !dbg !1709
  br label %bb23, !dbg !1709

bb21:                                             ; preds = %bb17
  %22 = bitcast { i64, double }* %0 to i64*, !dbg !1710
  store i64 0, i64* %22, align 8, !dbg !1710
  br label %bb32, !dbg !1711

bb33:                                             ; preds = %bb31, %bb32
  %23 = getelementptr inbounds { i64, double }, { i64, double }* %0, i32 0, i32 0, !dbg !1708
  %24 = load i64, i64* %23, align 8, !dbg !1708, !range !792
  %25 = getelementptr inbounds { i64, double }, { i64, double }* %0, i32 0, i32 1, !dbg !1708
  %26 = load double, double* %25, align 8, !dbg !1708
  %27 = insertvalue { i64, double } undef, i64 %24, 0, !dbg !1708
  %28 = insertvalue { i64, double } %27, double %26, 1, !dbg !1708
  ret { i64, double } %28, !dbg !1708

bb23:                                             ; preds = %bb22
; call <f64 as core::num::dec2flt::float::RawFloat>::pow10_fast_path
  %_43 = call double @"_ZN59_$LT$f64$u20$as$u20$core..num..dec2flt..float..RawFloat$GT$15pow10_fast_path17h02354e6c97ec916bE"(i64 22), !dbg !1713
  br label %bb24, !dbg !1713

bb24:                                             ; preds = %bb23
; call <f64 as core::ops::arith::Mul>::mul
  %29 = call double @"_ZN45_$LT$f64$u20$as$u20$core..ops..arith..Mul$GT$3mul17hbd1481c8bcbc57e1E"(double %_41, double %_43), !dbg !1709
  store double %29, double* %value, align 8, !dbg !1709
  br label %bb25, !dbg !1709

bb25:                                             ; preds = %bb24
  br label %bb26, !dbg !1699

bb29:                                             ; preds = %bb28, %bb26
  %_49 = load double, double* %value, align 8, !dbg !1714
  %30 = bitcast { i64, double }* %0 to %"core::option::Option<f64>::Some"*, !dbg !1715
  %31 = getelementptr inbounds %"core::option::Option<f64>::Some", %"core::option::Option<f64>::Some"* %30, i32 0, i32 1, !dbg !1715
  store double %_49, double* %31, align 8, !dbg !1715
  %32 = bitcast { i64, double }* %0 to i64*, !dbg !1715
  store i64 1, i64* %32, align 8, !dbg !1715
  br label %bb31, !dbg !1682

bb27:                                             ; preds = %bb26
  %_48 = load double, double* %value, align 8, !dbg !1716
; call <f64 as core::ops::arith::Neg>::neg
  %_47 = call double @"_ZN45_$LT$f64$u20$as$u20$core..ops..arith..Neg$GT$3neg17h725e8e59798aaf5fE"(double %_48), !dbg !1717
  br label %bb28, !dbg !1717

bb28:                                             ; preds = %bb27
  store double %_47, double* %value, align 8, !dbg !1718
  br label %bb29, !dbg !1719

bb31:                                             ; preds = %bb30, %bb29
  br label %bb33, !dbg !1708
}

; core::num::dec2flt::number::Number::try_fast_path
; Function Attrs: nounwind
define { i32, float } @_ZN4core3num7dec2flt6number6Number13try_fast_path17hc8d65b680acba754E(%"core::num::dec2flt::number::Number"* align 8 dereferenceable(24) %self) unnamed_addr #1 !dbg !1720 {
start:
  %mantissa.dbg.spill = alloca i64, align 8
  %val.dbg.spill = alloca i64, align 8
  %shift.dbg.spill = alloca i64, align 8
  %value.dbg.spill = alloca float, align 4
  %residual.dbg.spill = alloca %"core::option::Option<core::convert::Infallible>::None", align 1
  %_cw.dbg.spill = alloca {}, align 1
  %self.dbg.spill = alloca %"core::num::dec2flt::number::Number"*, align 8
  %_30 = alloca [16 x i64], align 8
  %_26 = alloca { i64, i64 }, align 8
  %value = alloca float, align 4
  %0 = alloca { i32, float }, align 4
  store %"core::num::dec2flt::number::Number"* %self, %"core::num::dec2flt::number::Number"** %self.dbg.spill, align 8
  call void @llvm.dbg.declare(metadata %"core::num::dec2flt::number::Number"** %self.dbg.spill, metadata !1724, metadata !DIExpression()), !dbg !1739
  call void @llvm.dbg.declare(metadata {}* %_cw.dbg.spill, metadata !1725, metadata !DIExpression()), !dbg !1740
  call void @llvm.dbg.declare(metadata float* %value, metadata !1727, metadata !DIExpression()), !dbg !1741
  call void @llvm.dbg.declare(metadata %"core::option::Option<core::convert::Infallible>::None"* %residual.dbg.spill, metadata !1735, metadata !DIExpression()), !dbg !1742
; call core::num::dec2flt::fpu::fpu_precision::set_precision
  call void @_ZN4core3num7dec2flt3fpu13fpu_precision13set_precision17h574ca4041d6482d6E(), !dbg !1743
  br label %bb1, !dbg !1743

bb1:                                              ; preds = %start
; call core::num::dec2flt::number::Number::is_fast_path
  %_3 = call zeroext i1 @_ZN4core3num7dec2flt6number6Number12is_fast_path17h8016bb15f1584968E(%"core::num::dec2flt::number::Number"* align 8 dereferenceable(24) %self), !dbg !1744
  br label %bb2, !dbg !1744

bb2:                                              ; preds = %bb1
  br i1 %_3, label %bb3, label %bb30, !dbg !1744

bb30:                                             ; preds = %bb2
  %1 = bitcast { i32, float }* %0 to i32*, !dbg !1745
  store i32 0, i32* %1, align 4, !dbg !1745
  br label %bb31, !dbg !1746

bb3:                                              ; preds = %bb2
  %2 = bitcast %"core::num::dec2flt::number::Number"* %self to i64*, !dbg !1747
  %_7 = load i64, i64* %2, align 8, !dbg !1747
  %_6 = icmp sle i64 %_7, 10, !dbg !1747
  br i1 %_6, label %bb4, label %bb13, !dbg !1747

bb13:                                             ; preds = %bb3
  %3 = bitcast %"core::num::dec2flt::number::Number"* %self to i64*, !dbg !1748
  %_24 = load i64, i64* %3, align 8, !dbg !1748
  %shift = sub i64 %_24, 10, !dbg !1748
  store i64 %shift, i64* %shift.dbg.spill, align 8, !dbg !1748
  call void @llvm.dbg.declare(metadata i64* %shift.dbg.spill, metadata !1731, metadata !DIExpression()), !dbg !1749
  %4 = getelementptr inbounds %"core::num::dec2flt::number::Number", %"core::num::dec2flt::number::Number"* %self, i32 0, i32 1, !dbg !1750
  %_28 = load i64, i64* %4, align 8, !dbg !1750
  %5 = bitcast [16 x i64]* %_30 to i8*, !dbg !1751
  call void @llvm.memcpy.p0i8.p0i8.i64(i8* align 8 %5, i8* align 8 getelementptr inbounds (<{ [128 x i8] }>, <{ [128 x i8] }>* @1, i32 0, i32 0, i32 0), i64 128, i1 false), !dbg !1751
  %_34 = icmp ult i64 %shift, 16, !dbg !1751
  %6 = call i1 @llvm.expect.i1(i1 %_34, i1 true), !dbg !1751
  br i1 %6, label %bb14, label %panic, !dbg !1751

bb4:                                              ; preds = %bb3
  %7 = getelementptr inbounds %"core::num::dec2flt::number::Number", %"core::num::dec2flt::number::Number"* %self, i32 0, i32 1, !dbg !1752
  %_9 = load i64, i64* %7, align 8, !dbg !1752
; call <f32 as core::num::dec2flt::float::RawFloat>::from_u64
  %value1 = call float @"_ZN59_$LT$f32$u20$as$u20$core..num..dec2flt..float..RawFloat$GT$8from_u6417ha4a496047ebe5f0bE"(i64 %_9), !dbg !1753
  store float %value1, float* %value.dbg.spill, align 4, !dbg !1753
  call void @llvm.dbg.declare(metadata float* %value.dbg.spill, metadata !1729, metadata !DIExpression()), !dbg !1754
  br label %bb5, !dbg !1753

bb5:                                              ; preds = %bb4
  %8 = bitcast %"core::num::dec2flt::number::Number"* %self to i64*, !dbg !1755
  %_11 = load i64, i64* %8, align 8, !dbg !1755
  %_10 = icmp slt i64 %_11, 0, !dbg !1755
  br i1 %_10, label %bb6, label %bb9, !dbg !1755

bb9:                                              ; preds = %bb5
  %9 = bitcast %"core::num::dec2flt::number::Number"* %self to i64*, !dbg !1756
  %_22 = load i64, i64* %9, align 8, !dbg !1756
; call <f32 as core::num::dec2flt::float::RawFloat>::pow10_fast_path
  %_19 = call float @"_ZN59_$LT$f32$u20$as$u20$core..num..dec2flt..float..RawFloat$GT$15pow10_fast_path17h645b46d823563074E"(i64 %_22), !dbg !1757
  br label %bb10, !dbg !1757

bb6:                                              ; preds = %bb5
  %10 = bitcast %"core::num::dec2flt::number::Number"* %self to i64*, !dbg !1758
  %_17 = load i64, i64* %10, align 8, !dbg !1758
  %_16 = sub i64 0, %_17, !dbg !1759
; call <f32 as core::num::dec2flt::float::RawFloat>::pow10_fast_path
  %_13 = call float @"_ZN59_$LT$f32$u20$as$u20$core..num..dec2flt..float..RawFloat$GT$15pow10_fast_path17h645b46d823563074E"(i64 %_16), !dbg !1760
  br label %bb7, !dbg !1760

bb7:                                              ; preds = %bb6
; call <f32 as core::ops::arith::Div>::div
  %11 = call float @"_ZN45_$LT$f32$u20$as$u20$core..ops..arith..Div$GT$3div17he6073f501bfa0ee7E"(float %value1, float %_13), !dbg !1761
  store float %11, float* %value, align 4, !dbg !1761
  br label %bb8, !dbg !1761

bb8:                                              ; preds = %bb7
  br label %bb12, !dbg !1762

bb12:                                             ; preds = %bb11, %bb8
  br label %bb26, !dbg !1763

bb10:                                             ; preds = %bb9
; call <f32 as core::ops::arith::Mul>::mul
  %12 = call float @"_ZN45_$LT$f32$u20$as$u20$core..ops..arith..Mul$GT$3mul17hcf55b7e176d8b17bE"(float %value1, float %_19), !dbg !1764
  store float %12, float* %value, align 4, !dbg !1764
  br label %bb11, !dbg !1764

bb11:                                             ; preds = %bb10
  br label %bb12, !dbg !1762

bb26:                                             ; preds = %bb25, %bb12
  %13 = getelementptr inbounds %"core::num::dec2flt::number::Number", %"core::num::dec2flt::number::Number"* %self, i32 0, i32 2, !dbg !1765
  %14 = load i8, i8* %13, align 8, !dbg !1765, !range !238
  %_46 = trunc i8 %14 to i1, !dbg !1765
  br i1 %_46, label %bb27, label %bb29, !dbg !1765

bb14:                                             ; preds = %bb13
  %15 = getelementptr inbounds [16 x i64], [16 x i64]* %_30, i64 0, i64 %shift, !dbg !1751
  %_29 = load i64, i64* %15, align 8, !dbg !1751
; call core::num::<impl u64>::checked_mul
  %16 = call { i64, i64 } @"_ZN4core3num21_$LT$impl$u20$u64$GT$11checked_mul17h4cf3e0f6afebc40eE"(i64 %_28, i64 %_29), !dbg !1750
  %_27.0 = extractvalue { i64, i64 } %16, 0, !dbg !1750
  %_27.1 = extractvalue { i64, i64 } %16, 1, !dbg !1750
  br label %bb15, !dbg !1750

panic:                                            ; preds = %bb13
; call core::panicking::panic_bounds_check
  call void @_ZN4core9panicking18panic_bounds_check17h865b4c1c7f870517E(i64 %shift, i64 16, %"core::panic::Location"* align 8 dereferenceable(24) bitcast (<{ i8*, [16 x i8] }>* @alloc2950 to %"core::panic::Location"*)), !dbg !1751
  unreachable, !dbg !1751

bb15:                                             ; preds = %bb14
; call <core::option::Option<T> as core::ops::try_trait::Try>::branch
  %17 = call { i64, i64 } @"_ZN75_$LT$core..option..Option$LT$T$GT$$u20$as$u20$core..ops..try_trait..Try$GT$6branch17h833feb00c42a4ac7E"(i64 %_27.0, i64 %_27.1), !dbg !1750
  store { i64, i64 } %17, { i64, i64 }* %_26, align 8, !dbg !1750
  br label %bb16, !dbg !1750

bb16:                                             ; preds = %bb15
  %18 = bitcast { i64, i64 }* %_26 to i64*, !dbg !1750
  %_35 = load i64, i64* %18, align 8, !dbg !1750, !range !792
  switch i64 %_35, label %bb18 [
    i64 0, label %bb17
    i64 1, label %bb19
  ], !dbg !1750

bb18:                                             ; preds = %bb16
  unreachable, !dbg !1750

bb17:                                             ; preds = %bb16
  %19 = bitcast { i64, i64 }* %_26 to %"core::ops::ControlFlow<core::option::Option<core::convert::Infallible>, u64>::Continue"*, !dbg !1750
  %20 = getelementptr inbounds %"core::ops::ControlFlow<core::option::Option<core::convert::Infallible>, u64>::Continue", %"core::ops::ControlFlow<core::option::Option<core::convert::Infallible>, u64>::Continue"* %19, i32 0, i32 1, !dbg !1750
  %val = load i64, i64* %20, align 8, !dbg !1750
  store i64 %val, i64* %val.dbg.spill, align 8, !dbg !1750
  call void @llvm.dbg.declare(metadata i64* %val.dbg.spill, metadata !1737, metadata !DIExpression()), !dbg !1766
  store i64 %val, i64* %mantissa.dbg.spill, align 8, !dbg !1766
  call void @llvm.dbg.declare(metadata i64* %mantissa.dbg.spill, metadata !1733, metadata !DIExpression()), !dbg !1767
  %_39 = icmp ugt i64 %val, 16777216, !dbg !1768
  br i1 %_39, label %bb21, label %bb22, !dbg !1768

bb19:                                             ; preds = %bb16
; call <core::option::Option<T> as core::ops::try_trait::FromResidual>::from_residual
  %21 = call { i32, float } @"_ZN84_$LT$core..option..Option$LT$T$GT$$u20$as$u20$core..ops..try_trait..FromResidual$GT$13from_residual17h7d225edce8e764a3E"(), !dbg !1769
  store { i32, float } %21, { i32, float }* %0, align 4, !dbg !1769
  br label %bb20, !dbg !1769

bb20:                                             ; preds = %bb19
  br label %bb32, !dbg !1770

bb32:                                             ; preds = %bb21, %bb20
  br label %bb33, !dbg !1772

bb22:                                             ; preds = %bb17
; call <f32 as core::num::dec2flt::float::RawFloat>::from_u64
  %_41 = call float @"_ZN59_$LT$f32$u20$as$u20$core..num..dec2flt..float..RawFloat$GT$8from_u6417ha4a496047ebe5f0bE"(i64 %val), !dbg !1773
  br label %bb23, !dbg !1773

bb21:                                             ; preds = %bb17
  %22 = bitcast { i32, float }* %0 to i32*, !dbg !1774
  store i32 0, i32* %22, align 4, !dbg !1774
  br label %bb32, !dbg !1775

bb33:                                             ; preds = %bb31, %bb32
  %23 = getelementptr inbounds { i32, float }, { i32, float }* %0, i32 0, i32 0, !dbg !1772
  %24 = load i32, i32* %23, align 4, !dbg !1772, !range !1207
  %25 = getelementptr inbounds { i32, float }, { i32, float }* %0, i32 0, i32 1, !dbg !1772
  %26 = load float, float* %25, align 4, !dbg !1772
  %27 = insertvalue { i32, float } undef, i32 %24, 0, !dbg !1772
  %28 = insertvalue { i32, float } %27, float %26, 1, !dbg !1772
  ret { i32, float } %28, !dbg !1772

bb23:                                             ; preds = %bb22
; call <f32 as core::num::dec2flt::float::RawFloat>::pow10_fast_path
  %_43 = call float @"_ZN59_$LT$f32$u20$as$u20$core..num..dec2flt..float..RawFloat$GT$15pow10_fast_path17h645b46d823563074E"(i64 10), !dbg !1777
  br label %bb24, !dbg !1777

bb24:                                             ; preds = %bb23
; call <f32 as core::ops::arith::Mul>::mul
  %29 = call float @"_ZN45_$LT$f32$u20$as$u20$core..ops..arith..Mul$GT$3mul17hcf55b7e176d8b17bE"(float %_41, float %_43), !dbg !1773
  store float %29, float* %value, align 4, !dbg !1773
  br label %bb25, !dbg !1773

bb25:                                             ; preds = %bb24
  br label %bb26, !dbg !1763

bb29:                                             ; preds = %bb28, %bb26
  %_49 = load float, float* %value, align 4, !dbg !1778
  %30 = bitcast { i32, float }* %0 to %"core::option::Option<f32>::Some"*, !dbg !1779
  %31 = getelementptr inbounds %"core::option::Option<f32>::Some", %"core::option::Option<f32>::Some"* %30, i32 0, i32 1, !dbg !1779
  store float %_49, float* %31, align 4, !dbg !1779
  %32 = bitcast { i32, float }* %0 to i32*, !dbg !1779
  store i32 1, i32* %32, align 4, !dbg !1779
  br label %bb31, !dbg !1746

bb27:                                             ; preds = %bb26
  %_48 = load float, float* %value, align 4, !dbg !1780
; call <f32 as core::ops::arith::Neg>::neg
  %_47 = call float @"_ZN45_$LT$f32$u20$as$u20$core..ops..arith..Neg$GT$3neg17h57e55d56d9e42651E"(float %_48), !dbg !1781
  br label %bb28, !dbg !1781

bb28:                                             ; preds = %bb27
  store float %_47, float* %value, align 4, !dbg !1782
  br label %bb29, !dbg !1783

bb31:                                             ; preds = %bb30, %bb29
  br label %bb33, !dbg !1772
}

; core::num::dec2flt::dec2flt
; Function Attrs: nounwind
define i64 @_ZN4core3num7dec2flt7dec2flt17h193ae62556cd86b5E([0 x i8]* nonnull align 1 %s.0, i64 %s.1) unnamed_addr #1 !dbg !1784 {
start:
  %0 = alloca { [0 x i8]*, i64 }, align 8
  %self.dbg.spill.i = alloca { [0 x i8]*, i64 }, align 8
  %value.dbg.spill3 = alloca float, align 4
  %value.dbg.spill = alloca float, align 4
  %negative.dbg.spill = alloca i8, align 1
  %c.dbg.spill1 = alloca i8, align 1
  %c.dbg.spill = alloca i8, align 1
  %s.dbg.spill = alloca { [0 x i8]*, i64 }, align 8
  %float = alloca float, align 4
  %_51 = alloca { i64, i32 }, align 8
  %_44 = alloca i8, align 1
  %_43 = alloca i8, align 1
  %fp = alloca { i64, i32 }, align 8
  %_35 = alloca { i32, float }, align 4
  %_28 = alloca { i32, float }, align 4
  %r = alloca %"core::num::dec2flt::number::Number", align 8
  %_23 = alloca %"core::option::Option<core::num::dec2flt::number::Number>", align 8
  %num = alloca %"core::num::dec2flt::number::Number", align 8
  %_12 = alloca i8, align 1
  %_5 = alloca i8*, align 8
  %s = alloca { [0 x i8]*, i64 }, align 8
  %1 = alloca %"core::result::Result<f32, core::num::ParseFloatError>", align 4
  %2 = getelementptr inbounds { [0 x i8]*, i64 }, { [0 x i8]*, i64 }* %s.dbg.spill, i32 0, i32 0
  store [0 x i8]* %s.0, [0 x i8]** %2, align 8
  %3 = getelementptr inbounds { [0 x i8]*, i64 }, { [0 x i8]*, i64 }* %s.dbg.spill, i32 0, i32 1
  store i64 %s.1, i64* %3, align 8
  call void @llvm.dbg.declare(metadata { [0 x i8]*, i64 }* %s.dbg.spill, metadata !1786, metadata !DIExpression()), !dbg !1807
  call void @llvm.dbg.declare(metadata { [0 x i8]*, i64 }* %s, metadata !1787, metadata !DIExpression()), !dbg !1808
  call void @llvm.dbg.declare(metadata %"core::num::dec2flt::number::Number"* %num, metadata !1795, metadata !DIExpression()), !dbg !1809
  call void @llvm.dbg.declare(metadata %"core::num::dec2flt::number::Number"* %r, metadata !1797, metadata !DIExpression()), !dbg !1810
  call void @llvm.dbg.declare(metadata { i64, i32 }* %fp, metadata !1803, metadata !DIExpression()), !dbg !1811
  call void @llvm.dbg.declare(metadata float* %float, metadata !1805, metadata !DIExpression()), !dbg !1812
  %4 = getelementptr inbounds { [0 x i8]*, i64 }, { [0 x i8]*, i64 }* %self.dbg.spill.i, i32 0, i32 0
  store [0 x i8]* %s.0, [0 x i8]** %4, align 8
  %5 = getelementptr inbounds { [0 x i8]*, i64 }, { [0 x i8]*, i64 }* %self.dbg.spill.i, i32 0, i32 1
  store i64 %s.1, i64* %5, align 8
  call void @llvm.dbg.declare(metadata { [0 x i8]*, i64 }* %self.dbg.spill.i, metadata !1813, metadata !DIExpression()), !dbg !1820
  %6 = getelementptr inbounds { [0 x i8]*, i64 }, { [0 x i8]*, i64 }* %0, i32 0, i32 0, !dbg !1822
  store [0 x i8]* %s.0, [0 x i8]** %6, align 8, !dbg !1822
  %7 = getelementptr inbounds { [0 x i8]*, i64 }, { [0 x i8]*, i64 }* %0, i32 0, i32 1, !dbg !1822
  store i64 %s.1, i64* %7, align 8, !dbg !1822
  %8 = getelementptr inbounds { [0 x i8]*, i64 }, { [0 x i8]*, i64 }* %0, i32 0, i32 0, !dbg !1822
  %9 = load [0 x i8]*, [0 x i8]** %8, align 8, !dbg !1822, !nonnull !4
  %10 = getelementptr inbounds { [0 x i8]*, i64 }, { [0 x i8]*, i64 }* %0, i32 0, i32 1, !dbg !1822
  %11 = load i64, i64* %10, align 8, !dbg !1822
  %12 = insertvalue { [0 x i8]*, i64 } undef, [0 x i8]* %9, 0, !dbg !1823
  %13 = insertvalue { [0 x i8]*, i64 } %12, i64 %11, 1, !dbg !1823
  store { [0 x i8]*, i64 } %13, { [0 x i8]*, i64 }* %s, align 8, !dbg !1824
  br label %bb1, !dbg !1824

bb1:                                              ; preds = %start
  %14 = getelementptr inbounds { [0 x i8]*, i64 }, { [0 x i8]*, i64 }* %s, i32 0, i32 0, !dbg !1825
  %_6.0 = load [0 x i8]*, [0 x i8]** %14, align 8, !dbg !1825, !nonnull !4
  %15 = getelementptr inbounds { [0 x i8]*, i64 }, { [0 x i8]*, i64 }* %s, i32 0, i32 1, !dbg !1825
  %_6.1 = load i64, i64* %15, align 8, !dbg !1825
; call core::slice::<impl [T]>::first
  %16 = call align 1 dereferenceable_or_null(1) i8* @"_ZN4core5slice29_$LT$impl$u20$$u5b$T$u5d$$GT$5first17hae99d40c22f691a2E"([0 x i8]* nonnull align 1 %_6.0, i64 %_6.1), !dbg !1825
  store i8* %16, i8** %_5, align 8, !dbg !1825
  br label %bb2, !dbg !1825

bb2:                                              ; preds = %bb1
  %17 = bitcast i8** %_5 to {}**, !dbg !1826
  %18 = load {}*, {}** %17, align 8, !dbg !1826
  %19 = icmp eq {}* %18, null, !dbg !1826
  %_7 = select i1 %19, i64 0, i64 1, !dbg !1826
  %20 = icmp eq i64 %_7, 1, !dbg !1826
  br i1 %20, label %bb3, label %bb4, !dbg !1826

bb3:                                              ; preds = %bb2
  %21 = load i8*, i8** %_5, align 8, !dbg !1827, !nonnull !4
  %c = load i8, i8* %21, align 1, !dbg !1827
  store i8 %c, i8* %c.dbg.spill, align 1, !dbg !1827
  call void @llvm.dbg.declare(metadata i8* %c.dbg.spill, metadata !1791, metadata !DIExpression()), !dbg !1828
  store i8 %c, i8* %c.dbg.spill1, align 1, !dbg !1829
  call void @llvm.dbg.declare(metadata i8* %c.dbg.spill1, metadata !1789, metadata !DIExpression()), !dbg !1830
  %negative = icmp eq i8 %c, 45, !dbg !1831
  %22 = zext i1 %negative to i8, !dbg !1831
  store i8 %22, i8* %negative.dbg.spill, align 1, !dbg !1831
  call void @llvm.dbg.declare(metadata i8* %negative.dbg.spill, metadata !1793, metadata !DIExpression()), !dbg !1832
  %23 = icmp eq i8 %c, 45, !dbg !1833
  br i1 %23, label %bb6, label %bb7, !dbg !1833

bb4:                                              ; preds = %bb2
; call core::num::dec2flt::pfe_empty
  %_9 = call zeroext i1 @_ZN4core3num7dec2flt9pfe_empty17h7f4ad285f5ad2ae4E(), !dbg !1834
  br label %bb5, !dbg !1834

bb5:                                              ; preds = %bb4
  %24 = bitcast %"core::result::Result<f32, core::num::ParseFloatError>"* %1 to %"core::result::Result<f32, core::num::ParseFloatError>::Err"*, !dbg !1835
  %25 = getelementptr inbounds %"core::result::Result<f32, core::num::ParseFloatError>::Err", %"core::result::Result<f32, core::num::ParseFloatError>::Err"* %24, i32 0, i32 1, !dbg !1835
  %26 = zext i1 %_9 to i8, !dbg !1835
  store i8 %26, i8* %25, align 1, !dbg !1835
  %27 = bitcast %"core::result::Result<f32, core::num::ParseFloatError>"* %1 to i8*, !dbg !1835
  store i8 1, i8* %27, align 4, !dbg !1835
  br label %bb48, !dbg !1836

bb48:                                             ; preds = %bb47, %bb5
  br label %bb49, !dbg !1838

bb6:                                              ; preds = %bb3
  store i8 1, i8* %_12, align 1, !dbg !1833
  br label %bb8, !dbg !1833

bb7:                                              ; preds = %bb3
  %_14 = icmp eq i8 %c, 43, !dbg !1839
  %28 = zext i1 %_14 to i8, !dbg !1833
  store i8 %28, i8* %_12, align 1, !dbg !1833
  br label %bb8, !dbg !1833

bb8:                                              ; preds = %bb6, %bb7
  %29 = load i8, i8* %_12, align 1, !dbg !1833, !range !238
  %30 = trunc i8 %29 to i1, !dbg !1833
  br i1 %30, label %bb9, label %bb11, !dbg !1833

bb11:                                             ; preds = %bb10, %bb8
  %31 = getelementptr inbounds { [0 x i8]*, i64 }, { [0 x i8]*, i64 }* %s, i32 0, i32 0, !dbg !1840
  %_20.0 = load [0 x i8]*, [0 x i8]** %31, align 8, !dbg !1840, !nonnull !4
  %32 = getelementptr inbounds { [0 x i8]*, i64 }, { [0 x i8]*, i64 }* %s, i32 0, i32 1, !dbg !1840
  %_20.1 = load i64, i64* %32, align 8, !dbg !1840
; call core::slice::<impl [T]>::is_empty
  %_19 = call zeroext i1 @"_ZN4core5slice29_$LT$impl$u20$$u5b$T$u5d$$GT$8is_empty17h0e52eb6f587116c6E"([0 x i8]* nonnull align 1 %_20.0, i64 %_20.1), !dbg !1840
  br label %bb12, !dbg !1840

bb9:                                              ; preds = %bb8
  %33 = getelementptr inbounds { [0 x i8]*, i64 }, { [0 x i8]*, i64 }* %s, i32 0, i32 0, !dbg !1841
  %_18.0 = load [0 x i8]*, [0 x i8]** %33, align 8, !dbg !1841, !nonnull !4
  %34 = getelementptr inbounds { [0 x i8]*, i64 }, { [0 x i8]*, i64 }* %s, i32 0, i32 1, !dbg !1841
  %_18.1 = load i64, i64* %34, align 8, !dbg !1841
; call core::num::dec2flt::common::ByteSlice::advance
  %35 = call { [0 x i8]*, i64 } @_ZN4core3num7dec2flt6common9ByteSlice7advance17hec4a59ca6211db3bE([0 x i8]* nonnull align 1 %_18.0, i64 %_18.1, i64 1), !dbg !1841
  %_17.0 = extractvalue { [0 x i8]*, i64 } %35, 0, !dbg !1841
  %_17.1 = extractvalue { [0 x i8]*, i64 } %35, 1, !dbg !1841
  br label %bb10, !dbg !1841

bb10:                                             ; preds = %bb9
  %36 = getelementptr inbounds { [0 x i8]*, i64 }, { [0 x i8]*, i64 }* %s, i32 0, i32 0, !dbg !1842
  store [0 x i8]* %_17.0, [0 x i8]** %36, align 8, !dbg !1842
  %37 = getelementptr inbounds { [0 x i8]*, i64 }, { [0 x i8]*, i64 }* %s, i32 0, i32 1, !dbg !1842
  store i64 %_17.1, i64* %37, align 8, !dbg !1842
  br label %bb11, !dbg !1843

bb12:                                             ; preds = %bb11
  br i1 %_19, label %bb13, label %bb15, !dbg !1840

bb15:                                             ; preds = %bb12
  %38 = getelementptr inbounds { [0 x i8]*, i64 }, { [0 x i8]*, i64 }* %s, i32 0, i32 0, !dbg !1844
  %_24.0 = load [0 x i8]*, [0 x i8]** %38, align 8, !dbg !1844, !nonnull !4
  %39 = getelementptr inbounds { [0 x i8]*, i64 }, { [0 x i8]*, i64 }* %s, i32 0, i32 1, !dbg !1844
  %_24.1 = load i64, i64* %39, align 8, !dbg !1844
; call core::num::dec2flt::parse::parse_number
  call void @_ZN4core3num7dec2flt5parse12parse_number17h12280348b0d629d1E(%"core::option::Option<core::num::dec2flt::number::Number>"* noalias nocapture sret(%"core::option::Option<core::num::dec2flt::number::Number>") dereferenceable(24) %_23, [0 x i8]* nonnull align 1 %_24.0, i64 %_24.1, i1 zeroext %negative), !dbg !1845
  br label %bb16, !dbg !1845

bb13:                                             ; preds = %bb12
; call core::num::dec2flt::pfe_invalid
  %_21 = call zeroext i1 @_ZN4core3num7dec2flt11pfe_invalid17h82b98a82ae1c4825E(), !dbg !1846
  br label %bb14, !dbg !1846

bb14:                                             ; preds = %bb13
  %40 = bitcast %"core::result::Result<f32, core::num::ParseFloatError>"* %1 to %"core::result::Result<f32, core::num::ParseFloatError>::Err"*, !dbg !1847
  %41 = getelementptr inbounds %"core::result::Result<f32, core::num::ParseFloatError>::Err", %"core::result::Result<f32, core::num::ParseFloatError>::Err"* %40, i32 0, i32 1, !dbg !1847
  %42 = zext i1 %_21 to i8, !dbg !1847
  store i8 %42, i8* %41, align 1, !dbg !1847
  %43 = bitcast %"core::result::Result<f32, core::num::ParseFloatError>"* %1 to i8*, !dbg !1847
  store i8 1, i8* %43, align 4, !dbg !1847
  br label %bb47, !dbg !1848

bb47:                                             ; preds = %bb46, %bb14
  br label %bb48, !dbg !1850

bb16:                                             ; preds = %bb15
  %44 = getelementptr inbounds %"core::option::Option<core::num::dec2flt::number::Number>", %"core::option::Option<core::num::dec2flt::number::Number>"* %_23, i32 0, i32 1, !dbg !1845
  %45 = load i8, i8* %44, align 8, !dbg !1845, !range !1852
  %46 = sub i8 %45, 2, !dbg !1845
  %47 = icmp eq i8 %46, 0, !dbg !1845
  %_26 = select i1 %47, i64 0, i64 1, !dbg !1845
  switch i64 %_26, label %bb18 [
    i64 0, label %bb20
    i64 1, label %bb19
  ], !dbg !1853

bb18:                                             ; preds = %bb16
  unreachable, !dbg !1845

bb20:                                             ; preds = %bb16
  %48 = getelementptr inbounds { [0 x i8]*, i64 }, { [0 x i8]*, i64 }* %s, i32 0, i32 0, !dbg !1854
  %_29.0 = load [0 x i8]*, [0 x i8]** %48, align 8, !dbg !1854, !nonnull !4
  %49 = getelementptr inbounds { [0 x i8]*, i64 }, { [0 x i8]*, i64 }* %s, i32 0, i32 1, !dbg !1854
  %_29.1 = load i64, i64* %49, align 8, !dbg !1854
; call core::num::dec2flt::parse::parse_inf_nan
  %50 = call { i32, float } @_ZN4core3num7dec2flt5parse13parse_inf_nan17h96bd8654992402f6E([0 x i8]* nonnull align 1 %_29.0, i64 %_29.1, i1 zeroext %negative), !dbg !1855
  store { i32, float } %50, { i32, float }* %_28, align 4, !dbg !1855
  br label %bb21, !dbg !1855

bb19:                                             ; preds = %bb16
  %51 = bitcast %"core::option::Option<core::num::dec2flt::number::Number>"* %_23 to %"core::option::Option<core::num::dec2flt::number::Number>::Some"*, !dbg !1856
  %52 = bitcast %"core::option::Option<core::num::dec2flt::number::Number>::Some"* %51 to %"core::num::dec2flt::number::Number"*, !dbg !1856
  %53 = bitcast %"core::num::dec2flt::number::Number"* %r to i8*, !dbg !1856
  %54 = bitcast %"core::num::dec2flt::number::Number"* %52 to i8*, !dbg !1856
  call void @llvm.memcpy.p0i8.p0i8.i64(i8* align 8 %53, i8* align 8 %54, i64 24, i1 false), !dbg !1856
  %55 = bitcast %"core::num::dec2flt::number::Number"* %num to i8*, !dbg !1857
  %56 = bitcast %"core::num::dec2flt::number::Number"* %r to i8*, !dbg !1857
  call void @llvm.memcpy.p0i8.p0i8.i64(i8* align 8 %55, i8* align 8 %56, i64 24, i1 false), !dbg !1857
; call core::num::dec2flt::number::Number::try_fast_path
  %57 = call { i32, float } @_ZN4core3num7dec2flt6number6Number13try_fast_path17hc8d65b680acba754E(%"core::num::dec2flt::number::Number"* align 8 dereferenceable(24) %num), !dbg !1858
  store { i32, float } %57, { i32, float }* %_35, align 4, !dbg !1858
  br label %bb24, !dbg !1858

bb24:                                             ; preds = %bb19
  %58 = bitcast { i32, float }* %_35 to i32*, !dbg !1859
  %59 = load i32, i32* %58, align 4, !dbg !1859, !range !1207
  %_37 = zext i32 %59 to i64, !dbg !1859
  %60 = icmp eq i64 %_37, 1, !dbg !1859
  br i1 %60, label %bb25, label %bb26, !dbg !1859

bb25:                                             ; preds = %bb24
  %61 = bitcast { i32, float }* %_35 to %"core::option::Option<f32>::Some"*, !dbg !1860
  %62 = getelementptr inbounds %"core::option::Option<f32>::Some", %"core::option::Option<f32>::Some"* %61, i32 0, i32 1, !dbg !1860
  %value = load float, float* %62, align 4, !dbg !1860
  store float %value, float* %value.dbg.spill, align 4, !dbg !1860
  call void @llvm.dbg.declare(metadata float* %value.dbg.spill, metadata !1801, metadata !DIExpression()), !dbg !1861
  %63 = bitcast %"core::result::Result<f32, core::num::ParseFloatError>"* %1 to %"core::result::Result<f32, core::num::ParseFloatError>::Ok"*, !dbg !1862
  %64 = getelementptr inbounds %"core::result::Result<f32, core::num::ParseFloatError>::Ok", %"core::result::Result<f32, core::num::ParseFloatError>::Ok"* %63, i32 0, i32 1, !dbg !1862
  store float %value, float* %64, align 4, !dbg !1862
  %65 = bitcast %"core::result::Result<f32, core::num::ParseFloatError>"* %1 to i8*, !dbg !1862
  store i8 0, i8* %65, align 4, !dbg !1862
  br label %bb46, !dbg !1863

bb26:                                             ; preds = %bb24
