; ModuleID = 'once_cell.16f2f116-cgu.0'
source_filename = "once_cell.16f2f116-cgu.0"
target datalayout = "e-m:e-p:64:64-i64:64-n32:64-S128"
target triple = "bpfel"

%"std::thread::Inner" = type { { i8*, i64 }, i64, %"std::sys_common::thread_parker::generic::Parker" }
%"std::sys_common::thread_parker::generic::Parker" = type { %"std::sync::atomic::AtomicUsize", %"std::sync::Mutex<()>", %"std::sync::Condvar" }
%"std::sync::atomic::AtomicUsize" = type { i64 }
%"std::sync::Mutex<()>" = type { i8*, %"std::sync::poison::Flag", %"std::cell::UnsafeCell<()>", [7 x i8] }
%"std::sync::poison::Flag" = type { %"std::sync::atomic::AtomicBool" }
%"std::sync::atomic::AtomicBool" = type { i8 }
%"std::cell::UnsafeCell<()>" = type { {} }
%"std::sync::Condvar" = type { %"std::sys_common::condvar::Condvar" }
%"std::sys_common::condvar::Condvar" = type { %"std::sys::sbf::condvar::Condvar"*, %"std::sys_common::condvar::check::SameMutexCheck" }
%"std::sys::sbf::condvar::Condvar" = type {}
%"std::sys_common::condvar::check::SameMutexCheck" = type { %"std::sync::atomic::AtomicUsize" }
%"std::fmt::Formatter" = type { { i64, i64 }, { i64, i64 }, { {}*, [3 x i64]* }, i32, i32, i8, [7 x i8] }
%"race::OnceNonZeroUsize" = type { %"std::sync::atomic::AtomicUsize" }
%"alloc::sync::ArcInner<std::thread::Inner>" = type { %"std::sync::atomic::AtomicUsize", %"std::sync::atomic::AtomicUsize", %"std::thread::Inner" }
%"imp::Waiter" = type { i64*, %"imp::Waiter"*, %"std::sync::atomic::AtomicBool", [7 x i8] }
%"std::panic::Location" = type { { [0 x i8]*, i64 }, i32, i32 }
%"std::result::Result<usize, usize>::Err" = type { [1 x i64], i64 }
%"std::result::Result<usize, usize>::Ok" = type { [1 x i64], i64 }
%"std::option::Option<std::fmt::Arguments>" = type { {}*, [5 x i64] }
%"std::alloc::Global" = type {}
%"std::fmt::DebugStruct" = type { %"std::fmt::Formatter"*, i8, i8, [6 x i8] }
%"race::OnceBool" = type { %"race::OnceNonZeroUsize" }

@alloc168 = private unnamed_addr constant <{ [74 x i8] }> <{ [74 x i8] c"/home/runner/work/bpf-tools/bpf-tools/out/rust/library/core/src/ptr/mod.rs" }>, align 1
@alloc169 = private unnamed_addr constant <{ i8*, [16 x i8] }> <{ i8* getelementptr inbounds (<{ [74 x i8] }>, <{ [74 x i8] }>* @alloc168, i32 0, i32 0, i32 0), [16 x i8] c"J\00\00\00\00\00\00\00\BC\02\00\00\0D\00\00\00" }>, align 8
@alloc176 = private unnamed_addr constant <{ [49 x i8] }> <{ [49 x i8] c"there is no such thing as an acquire/release load" }>, align 1
@alloc194 = private unnamed_addr constant <{ [78 x i8] }> <{ [78 x i8] c"/home/runner/work/bpf-tools/bpf-tools/out/rust/library/core/src/sync/atomic.rs" }>, align 1
@alloc172 = private unnamed_addr constant <{ i8*, [16 x i8] }> <{ i8* getelementptr inbounds (<{ [78 x i8] }>, <{ [78 x i8] }>* @alloc194, i32 0, i32 0, i32 0), [16 x i8] c"N\00\00\00\00\00\00\00:\09\00\00\17\00\00\00" }>, align 8
@alloc177 = private unnamed_addr constant <{ [40 x i8] }> <{ [40 x i8] c"there is no such thing as a release load" }>, align 1
@alloc175 = private unnamed_addr constant <{ i8*, [16 x i8] }> <{ i8* getelementptr inbounds (<{ [78 x i8] }>, <{ [78 x i8] }>* @alloc194, i32 0, i32 0, i32 0), [16 x i8] c"N\00\00\00\00\00\00\009\09\00\00\18\00\00\00" }>, align 8
@alloc178 = private unnamed_addr constant <{ [50 x i8] }> <{ [50 x i8] c"there is no such thing as an acquire/release store" }>, align 1
@alloc180 = private unnamed_addr constant <{ i8*, [16 x i8] }> <{ i8* getelementptr inbounds (<{ [78 x i8] }>, <{ [78 x i8] }>* @alloc194, i32 0, i32 0, i32 0), [16 x i8] c"N\00\00\00\00\00\00\00,\09\00\00\17\00\00\00" }>, align 8
@alloc181 = private unnamed_addr constant <{ [42 x i8] }> <{ [42 x i8] c"there is no such thing as an acquire store" }>, align 1
@alloc183 = private unnamed_addr constant <{ i8*, [16 x i8] }> <{ i8* getelementptr inbounds (<{ [78 x i8] }>, <{ [78 x i8] }>* @alloc194, i32 0, i32 0, i32 0), [16 x i8] c"N\00\00\00\00\00\00\00+\09\00\00\18\00\00\00" }>, align 8
@alloc184 = private unnamed_addr constant <{ [60 x i8] }> <{ [60 x i8] c"a failure ordering can't be stronger than a success ordering" }>, align 1
@alloc186 = private unnamed_addr constant <{ i8*, [16 x i8] }> <{ i8* getelementptr inbounds (<{ [78 x i8] }>, <{ [78 x i8] }>* @alloc194, i32 0, i32 0, i32 0), [16 x i8] c"N\00\00\00\00\00\00\00\85\09\00\00\12\00\00\00" }>, align 8
@alloc187 = private unnamed_addr constant <{ [61 x i8] }> <{ [61 x i8] c"there is no such thing as an acquire/release failure ordering" }>, align 1
@alloc189 = private unnamed_addr constant <{ i8*, [16 x i8] }> <{ i8* getelementptr inbounds (<{ [78 x i8] }>, <{ [78 x i8] }>* @alloc194, i32 0, i32 0, i32 0), [16 x i8] c"N\00\00\00\00\00\00\00\83\09\00\00\1C\00\00\00" }>, align 8
@alloc190 = private unnamed_addr constant <{ [52 x i8] }> <{ [52 x i8] c"there is no such thing as a release failure ordering" }>, align 1
@alloc192 = private unnamed_addr constant <{ i8*, [16 x i8] }> <{ i8* getelementptr inbounds (<{ [78 x i8] }>, <{ [78 x i8] }>* @alloc194, i32 0, i32 0, i32 0), [16 x i8] c"N\00\00\00\00\00\00\00\84\09\00\00\1D\00\00\00" }>, align 8
@alloc193 = private unnamed_addr constant <{ [41 x i8] }> <{ [41 x i8] c"there is no such thing as a relaxed fence" }>, align 1
@alloc195 = private unnamed_addr constant <{ i8*, [16 x i8] }> <{ i8* getelementptr inbounds (<{ [78 x i8] }>, <{ [78 x i8] }>* @alloc194, i32 0, i32 0, i32 0), [16 x i8] c"N\00\00\00\00\00\00\00y\0A\00\00\18\00\00\00" }>, align 8
@alloc196 = private unnamed_addr constant <{ [43 x i8] }> <{ [43 x i8] c"called `Option::unwrap()` on a `None` value" }>, align 1
@vtable.0 = private unnamed_addr constant <{ i8*, [16 x i8], i8*, [0 x i8] }> <{ i8* bitcast (void (i64**)* @"_ZN4core3ptr30drop_in_place$LT$$RF$usize$GT$17h5724b990b6ed0ce9E" to i8*), [16 x i8] c"\08\00\00\00\00\00\00\00\08\00\00\00\00\00\00\00", i8* bitcast (i1 (i64**, %"std::fmt::Formatter"*)* @"_ZN42_$LT$$RF$T$u20$as$u20$core..fmt..Debug$GT$3fmt17h17372f90346f32e8E" to i8*), [0 x i8] zeroinitializer }>, align 8, !dbg !0
@alloc145 = private unnamed_addr constant <{ [0 x i8] }> zeroinitializer, align 1
@alloc138 = private unnamed_addr constant <{ [8 x i8] }> <{ [8 x i8] c"\01\00\00\00\00\00\00\00" }>, align 8
@alloc205 = private unnamed_addr constant <{ [94 x i8] }> <{ [94 x i8] c"/home/chinedum/.cargo/registry/src/github.com-1ecc6299db9ec823/once_cell-1.13.0/src/imp_std.rs" }>, align 1
@alloc201 = private unnamed_addr constant <{ i8*, [16 x i8] }> <{ i8* getelementptr inbounds (<{ [94 x i8] }>, <{ [94 x i8] }>* @alloc205, i32 0, i32 0, i32 0), [16 x i8] c"^\00\00\00\00\00\00\00\AC\00\00\00\09\00\00\00" }>, align 8
@alloc203 = private unnamed_addr constant <{ i8*, [16 x i8] }> <{ i8* getelementptr inbounds (<{ [94 x i8] }>, <{ [94 x i8] }>* @alloc205, i32 0, i32 0, i32 0), [16 x i8] c"^\00\00\00\00\00\00\00\B2\00\00\006\00\00\00" }>, align 8
@alloc204 = private unnamed_addr constant <{ [23 x i8] }> <{ [23 x i8] c"assertion failed: false" }>, align 1
@alloc206 = private unnamed_addr constant <{ i8*, [16 x i8] }> <{ i8* getelementptr inbounds (<{ [94 x i8] }>, <{ [94 x i8] }>* @alloc205, i32 0, i32 0, i32 0), [16 x i8] c"^\00\00\00\00\00\00\00\DE\00\00\00\12\00\00\00" }>, align 8
@alloc207 = private unnamed_addr constant <{ [16 x i8] }> <{ [16 x i8] c"OnceNonZeroUsize" }>, align 1
@alloc213 = private unnamed_addr constant <{ [5 x i8] }> <{ [5 x i8] c"inner" }>, align 1
@vtable.1 = private unnamed_addr constant <{ i8*, [16 x i8], i8*, [0 x i8] }> <{ i8* bitcast (void (%"std::sync::atomic::AtomicUsize"**)* @"_ZN4core3ptr56drop_in_place$LT$$RF$core..sync..atomic..AtomicUsize$GT$17ha81da364e725df4cE" to i8*), [16 x i8] c"\08\00\00\00\00\00\00\00\08\00\00\00\00\00\00\00", i8* bitcast (i1 (%"std::sync::atomic::AtomicUsize"**, %"std::fmt::Formatter"*)* @"_ZN42_$LT$$RF$T$u20$as$u20$core..fmt..Debug$GT$3fmt17h6d3227077b98d62cE" to i8*), [0 x i8] zeroinitializer }>, align 8, !dbg !7
@alloc212 = private unnamed_addr constant <{ [8 x i8] }> <{ [8 x i8] c"OnceBool" }>, align 1
@vtable.2 = private unnamed_addr constant <{ i8*, [16 x i8], i8*, [0 x i8] }> <{ i8* bitcast (void (%"race::OnceNonZeroUsize"**)* @"_ZN4core3ptr58drop_in_place$LT$$RF$once_cell..race..OnceNonZeroUsize$GT$17h8414a0a04aa63c90E" to i8*), [16 x i8] c"\08\00\00\00\00\00\00\00\08\00\00\00\00\00\00\00", i8* bitcast (i1 (%"race::OnceNonZeroUsize"**, %"std::fmt::Formatter"*)* @"_ZN42_$LT$$RF$T$u20$as$u20$core..fmt..Debug$GT$3fmt17h45cf96af03444b65E" to i8*), [0 x i8] zeroinitializer }>, align 8, !dbg !23

; <core::ptr::non_null::NonNull<T> as core::convert::From<core::ptr::unique::Unique<T>>>::from
; Function Attrs: inlinehint nounwind
define nonnull i8* @"_ZN119_$LT$core..ptr..non_null..NonNull$LT$T$GT$$u20$as$u20$core..convert..From$LT$core..ptr..unique..Unique$LT$T$GT$$GT$$GT$4from17h4e53aa90cdddc93dE"(i8* nonnull %unique) unnamed_addr #0 !dbg !66 {
start:
  %unique.dbg.spill = alloca i8*, align 8
  store i8* %unique, i8** %unique.dbg.spill, align 8
  call void @llvm.dbg.declare(metadata i8** %unique.dbg.spill, metadata !87, metadata !DIExpression()), !dbg !88
; call core::ptr::unique::Unique<T>::as_ptr
  %_2 = call i8* @"_ZN4core3ptr6unique15Unique$LT$T$GT$6as_ptr17h028d8fa2cf8e3213E"(i8* nonnull %unique), !dbg !89
  br label %bb1, !dbg !89

bb1:                                              ; preds = %start
; call core::ptr::non_null::NonNull<T>::new_unchecked
  %0 = call nonnull i8* @"_ZN4core3ptr8non_null16NonNull$LT$T$GT$13new_unchecked17h34f694ffe0a55777E"(i8* %_2), !dbg !90
  br label %bb2, !dbg !90

bb2:                                              ; preds = %bb1
  ret i8* %0, !dbg !91
}

; std::thread::Thread::unpark
; Function Attrs: inlinehint nounwind
define internal void @_ZN3std6thread6Thread6unpark17h49c8ec9aec038c4dE(i64** align 8 dereferenceable(8) %self) unnamed_addr #0 !dbg !92 {
start:
  %self.dbg.spill = alloca i64**, align 8
  store i64** %self, i64*** %self.dbg.spill, align 8
  call void @llvm.dbg.declare(metadata i64*** %self.dbg.spill, metadata !232, metadata !DIExpression()), !dbg !233
; call <alloc::sync::Arc<T> as core::ops::deref::Deref>::deref
  %_4 = call align 8 dereferenceable(64) %"std::thread::Inner"* @"_ZN69_$LT$alloc..sync..Arc$LT$T$GT$$u20$as$u20$core..ops..deref..Deref$GT$5deref17h5c94363871e331ebE"(i64** align 8 dereferenceable(8) %self), !dbg !234
  br label %bb1, !dbg !234

bb1:                                              ; preds = %start
  %_3 = getelementptr inbounds %"std::thread::Inner", %"std::thread::Inner"* %_4, i32 0, i32 2, !dbg !234
; call std::sys_common::thread_parker::generic::Parker::unpark
  call void @_ZN3std10sys_common13thread_parker7generic6Parker6unpark17h7c5c7a1f405ab637E(%"std::sys_common::thread_parker::generic::Parker"* align 8 dereferenceable(40) %_3), !dbg !234
  br label %bb2, !dbg !234

bb2:                                              ; preds = %bb1
  ret void, !dbg !235
}

; <&T as core::fmt::Debug>::fmt
; Function Attrs: nounwind
define zeroext i1 @"_ZN42_$LT$$RF$T$u20$as$u20$core..fmt..Debug$GT$3fmt17h17372f90346f32e8E"(i64** align 8 dereferenceable(8) %self, %"std::fmt::Formatter"* align 8 dereferenceable(64) %f) unnamed_addr #1 !dbg !236 {
start:
  %f.dbg.spill = alloca %"std::fmt::Formatter"*, align 8
  %self.dbg.spill = alloca i64**, align 8
  store i64** %self, i64*** %self.dbg.spill, align 8
  call void @llvm.dbg.declare(metadata i64*** %self.dbg.spill, metadata !273, metadata !DIExpression()), !dbg !275
  store %"std::fmt::Formatter"* %f, %"std::fmt::Formatter"** %f.dbg.spill, align 8
  call void @llvm.dbg.declare(metadata %"std::fmt::Formatter"** %f.dbg.spill, metadata !274, metadata !DIExpression()), !dbg !276
  %_4 = load i64*, i64** %self, align 8, !dbg !277, !nonnull !4
; call core::fmt::num::<impl core::fmt::Debug for usize>::fmt
  %0 = call zeroext i1 @"_ZN4core3fmt3num52_$LT$impl$u20$core..fmt..Debug$u20$for$u20$usize$GT$3fmt17he488f7816b8ba1a1E"(i64* align 8 dereferenceable(8) %_4, %"std::fmt::Formatter"* align 8 dereferenceable(64) %f), !dbg !278
  br label %bb1, !dbg !278

bb1:                                              ; preds = %start
  ret i1 %0, !dbg !279
}

; <&T as core::fmt::Debug>::fmt
; Function Attrs: nounwind
define zeroext i1 @"_ZN42_$LT$$RF$T$u20$as$u20$core..fmt..Debug$GT$3fmt17h45cf96af03444b65E"(%"race::OnceNonZeroUsize"** align 8 dereferenceable(8) %self, %"std::fmt::Formatter"* align 8 dereferenceable(64) %f) unnamed_addr #1 !dbg !280 {
start:
  %f.dbg.spill = alloca %"std::fmt::Formatter"*, align 8
  %self.dbg.spill = alloca %"race::OnceNonZeroUsize"**, align 8
  store %"race::OnceNonZeroUsize"** %self, %"race::OnceNonZeroUsize"*** %self.dbg.spill, align 8
  call void @llvm.dbg.declare(metadata %"race::OnceNonZeroUsize"*** %self.dbg.spill, metadata !285, metadata !DIExpression()), !dbg !289
  store %"std::fmt::Formatter"* %f, %"std::fmt::Formatter"** %f.dbg.spill, align 8
  call void @llvm.dbg.declare(metadata %"std::fmt::Formatter"** %f.dbg.spill, metadata !286, metadata !DIExpression()), !dbg !290
  %_4 = load %"race::OnceNonZeroUsize"*, %"race::OnceNonZeroUsize"** %self, align 8, !dbg !291, !nonnull !4
; call <once_cell::race::OnceNonZeroUsize as core::fmt::Debug>::fmt
  %0 = call zeroext i1 @"_ZN70_$LT$once_cell..race..OnceNonZeroUsize$u20$as$u20$core..fmt..Debug$GT$3fmt17h07da78ab23c9a515E"(%"race::OnceNonZeroUsize"* align 8 dereferenceable(8) %_4, %"std::fmt::Formatter"* align 8 dereferenceable(64) %f), !dbg !292
  br label %bb1, !dbg !292

bb1:                                              ; preds = %start
  ret i1 %0, !dbg !293
}

; <&T as core::fmt::Debug>::fmt
; Function Attrs: nounwind
define zeroext i1 @"_ZN42_$LT$$RF$T$u20$as$u20$core..fmt..Debug$GT$3fmt17h6d3227077b98d62cE"(%"std::sync::atomic::AtomicUsize"** align 8 dereferenceable(8) %self, %"std::fmt::Formatter"* align 8 dereferenceable(64) %f) unnamed_addr #1 !dbg !294 {
start:
  %f.dbg.spill = alloca %"std::fmt::Formatter"*, align 8
  %self.dbg.spill = alloca %"std::sync::atomic::AtomicUsize"**, align 8
  store %"std::sync::atomic::AtomicUsize"** %self, %"std::sync::atomic::AtomicUsize"*** %self.dbg.spill, align 8
  call void @llvm.dbg.declare(metadata %"std::sync::atomic::AtomicUsize"*** %self.dbg.spill, metadata !299, metadata !DIExpression()), !dbg !303
  store %"std::fmt::Formatter"* %f, %"std::fmt::Formatter"** %f.dbg.spill, align 8
  call void @llvm.dbg.declare(metadata %"std::fmt::Formatter"** %f.dbg.spill, metadata !300, metadata !DIExpression()), !dbg !304
  %_4 = load %"std::sync::atomic::AtomicUsize"*, %"std::sync::atomic::AtomicUsize"** %self, align 8, !dbg !305, !nonnull !4
; call <core::sync::atomic::AtomicUsize as core::fmt::Debug>::fmt
  %0 = call zeroext i1 @"_ZN68_$LT$core..sync..atomic..AtomicUsize$u20$as$u20$core..fmt..Debug$GT$3fmt17hce4030d0e0d16d94E"(%"std::sync::atomic::AtomicUsize"* align 8 dereferenceable(8) %_4, %"std::fmt::Formatter"* align 8 dereferenceable(64) %f), !dbg !306
  br label %bb1, !dbg !306

bb1:                                              ; preds = %start
  ret i1 %0, !dbg !307
}

; core::fmt::num::<impl core::fmt::Debug for usize>::fmt
; Function Attrs: inlinehint nounwind
define internal zeroext i1 @"_ZN4core3fmt3num52_$LT$impl$u20$core..fmt..Debug$u20$for$u20$usize$GT$3fmt17he488f7816b8ba1a1E"(i64* align 8 dereferenceable(8) %self, %"std::fmt::Formatter"* align 8 dereferenceable(64) %f) unnamed_addr #0 !dbg !308 {
start:
  %f.dbg.spill = alloca %"std::fmt::Formatter"*, align 8
  %self.dbg.spill = alloca i64*, align 8
  %0 = alloca i8, align 1
  store i64* %self, i64** %self.dbg.spill, align 8
  call void @llvm.dbg.declare(metadata i64** %self.dbg.spill, metadata !315, metadata !DIExpression()), !dbg !317
  store %"std::fmt::Formatter"* %f, %"std::fmt::Formatter"** %f.dbg.spill, align 8
  call void @llvm.dbg.declare(metadata %"std::fmt::Formatter"** %f.dbg.spill, metadata !316, metadata !DIExpression()), !dbg !318
; call core::fmt::Formatter::debug_lower_hex
  %_3 = call zeroext i1 @_ZN4core3fmt9Formatter15debug_lower_hex17h636482c5eb85995eE(%"std::fmt::Formatter"* align 8 dereferenceable(64) %f), !dbg !319
  br label %bb1, !dbg !319

bb1:                                              ; preds = %start
  br i1 %_3, label %bb2, label %bb4, !dbg !319

bb4:                                              ; preds = %bb1
; call core::fmt::Formatter::debug_upper_hex
  %_7 = call zeroext i1 @_ZN4core3fmt9Formatter15debug_upper_hex17habda22bb62de5f0bE(%"std::fmt::Formatter"* align 8 dereferenceable(64) %f), !dbg !320
  br label %bb5, !dbg !320

bb2:                                              ; preds = %bb1
; call core::fmt::num::<impl core::fmt::LowerHex for usize>::fmt
  %1 = call zeroext i1 @"_ZN4core3fmt3num55_$LT$impl$u20$core..fmt..LowerHex$u20$for$u20$usize$GT$3fmt17h1a12a50969152654E"(i64* align 8 dereferenceable(8) %self, %"std::fmt::Formatter"* align 8 dereferenceable(64) %f), !dbg !321
  %2 = zext i1 %1 to i8, !dbg !321
  store i8 %2, i8* %0, align 1, !dbg !321
  br label %bb3, !dbg !321

bb3:                                              ; preds = %bb2
  br label %bb11, !dbg !322

bb11:                                             ; preds = %bb10, %bb3
  %3 = load i8, i8* %0, align 1, !dbg !323, !range !324
  %4 = trunc i8 %3 to i1, !dbg !323
  ret i1 %4, !dbg !323

bb5:                                              ; preds = %bb4
  br i1 %_7, label %bb6, label %bb8, !dbg !320

bb8:                                              ; preds = %bb5
; call core::fmt::num::imp::<impl core::fmt::Display for usize>::fmt
  %5 = call zeroext i1 @"_ZN4core3fmt3num3imp54_$LT$impl$u20$core..fmt..Display$u20$for$u20$usize$GT$3fmt17hcb6674a6899bd26aE"(i64* align 8 dereferenceable(8) %self, %"std::fmt::Formatter"* align 8 dereferenceable(64) %f), !dbg !325
  %6 = zext i1 %5 to i8, !dbg !325
  store i8 %6, i8* %0, align 1, !dbg !325
  br label %bb9, !dbg !325

bb6:                                              ; preds = %bb5
; call core::fmt::num::<impl core::fmt::UpperHex for usize>::fmt
  %7 = call zeroext i1 @"_ZN4core3fmt3num55_$LT$impl$u20$core..fmt..UpperHex$u20$for$u20$usize$GT$3fmt17h571918675fe47debE"(i64* align 8 dereferenceable(8) %self, %"std::fmt::Formatter"* align 8 dereferenceable(64) %f), !dbg !326
  %8 = zext i1 %7 to i8, !dbg !326
  store i8 %8, i8* %0, align 1, !dbg !326
  br label %bb7, !dbg !326

bb7:                                              ; preds = %bb6
  br label %bb10, !dbg !327

bb10:                                             ; preds = %bb9, %bb7
  br label %bb11, !dbg !322

bb9:                                              ; preds = %bb8
  br label %bb10, !dbg !327
}

; core::mem::size_of_val_raw
; Function Attrs: inlinehint nounwind
define i64 @_ZN4core3mem15size_of_val_raw17h33a9c41a9aac47b9E(%"alloc::sync::ArcInner<std::thread::Inner>"* %val) unnamed_addr #0 !dbg !328 {
start:
  %0 = alloca i64, align 8
  %val.dbg.spill = alloca %"alloc::sync::ArcInner<std::thread::Inner>"*, align 8
  store %"alloc::sync::ArcInner<std::thread::Inner>"* %val, %"alloc::sync::ArcInner<std::thread::Inner>"** %val.dbg.spill, align 8
  call void @llvm.dbg.declare(metadata %"alloc::sync::ArcInner<std::thread::Inner>"** %val.dbg.spill, metadata !334, metadata !DIExpression()), !dbg !335
  store i64 80, i64* %0, align 8, !dbg !336
  %1 = load i64, i64* %0, align 8, !dbg !336
  br label %bb1, !dbg !336

bb1:                                              ; preds = %start
  ret i64 %1, !dbg !337
}

; core::mem::align_of_val_raw
; Function Attrs: inlinehint nounwind
define i64 @_ZN4core3mem16align_of_val_raw17hea74d128fd138d54E(%"alloc::sync::ArcInner<std::thread::Inner>"* %val) unnamed_addr #0 !dbg !338 {
start:
  %0 = alloca i64, align 8
  %val.dbg.spill = alloca %"alloc::sync::ArcInner<std::thread::Inner>"*, align 8
  store %"alloc::sync::ArcInner<std::thread::Inner>"* %val, %"alloc::sync::ArcInner<std::thread::Inner>"** %val.dbg.spill, align 8
  call void @llvm.dbg.declare(metadata %"alloc::sync::ArcInner<std::thread::Inner>"** %val.dbg.spill, metadata !340, metadata !DIExpression()), !dbg !341
  store i64 8, i64* %0, align 8, !dbg !342
  %1 = load i64, i64* %0, align 8, !dbg !342
  br label %bb1, !dbg !342

bb1:                                              ; preds = %start
  ret i64 %1, !dbg !343
}

; core::mem::drop
; Function Attrs: inlinehint nounwind
define void @_ZN4core3mem4drop17h35d88080159b6f83E(i64* nonnull %0) unnamed_addr #0 !dbg !344 {
start:
  %_x = alloca i64*, align 8
  store i64* %0, i64** %_x, align 8
  call void @llvm.dbg.declare(metadata i64** %_x, metadata !351, metadata !DIExpression()), !dbg !354
; call core::ptr::drop_in_place<alloc::sync::Weak<std::thread::Inner>>
  call void @"_ZN4core3ptr64drop_in_place$LT$alloc..sync..Weak$LT$std..thread..Inner$GT$$GT$17hf757e18983a6e882E"(i64** %_x), !dbg !355
  br label %bb1, !dbg !355

bb1:                                              ; preds = %start
  ret void, !dbg !356
}

; core::mem::replace
; Function Attrs: inlinehint nounwind
define i64* @_ZN4core3mem7replace17h7b76a71f315997b2E(i64** align 8 dereferenceable(8) %dest, i64* %src) unnamed_addr #0 !dbg !357 {
start:
  %result.dbg.spill = alloca i64*, align 8
  %src.dbg.spill = alloca i64*, align 8
  %dest.dbg.spill = alloca i64**, align 8
  store i64** %dest, i64*** %dest.dbg.spill, align 8
  call void @llvm.dbg.declare(metadata i64*** %dest.dbg.spill, metadata !374, metadata !DIExpression()), !dbg !380
  store i64* %src, i64** %src.dbg.spill, align 8
  call void @llvm.dbg.declare(metadata i64** %src.dbg.spill, metadata !375, metadata !DIExpression()), !dbg !381
; call core::ptr::read
  %result = call i64* @_ZN4core3ptr4read17h59f91ade5d7f066dE(i64** %dest), !dbg !382
  store i64* %result, i64** %result.dbg.spill, align 8, !dbg !382
  call void @llvm.dbg.declare(metadata i64** %result.dbg.spill, metadata !376, metadata !DIExpression()), !dbg !383
  br label %bb1, !dbg !382

bb1:                                              ; preds = %start
; call core::ptr::write
  call void @_ZN4core3ptr5write17h7e40df696d315c99E(i64** %dest, i64* %src), !dbg !384
  br label %bb2, !dbg !384

bb2:                                              ; preds = %bb1
  ret i64* %result, !dbg !385
}

; core::num::nonzero::NonZeroUsize::new_unchecked
; Function Attrs: inlinehint nounwind
define internal i64 @_ZN4core3num7nonzero12NonZeroUsize13new_unchecked17hce34eacfec0562abE(i64 %n) unnamed_addr #0 !dbg !386 {
start:
  %n.dbg.spill = alloca i64, align 8
  %0 = alloca i64, align 8
  store i64 %n, i64* %n.dbg.spill, align 8
  call void @llvm.dbg.declare(metadata i64* %n.dbg.spill, metadata !394, metadata !DIExpression()), !dbg !395
  store i64 %n, i64* %0, align 8, !dbg !396
  %1 = load i64, i64* %0, align 8, !dbg !397, !range !398
  ret i64 %1, !dbg !397
}

; core::num::nonzero::NonZeroUsize::get
; Function Attrs: inlinehint nounwind
define internal i64 @_ZN4core3num7nonzero12NonZeroUsize3get17h25b2c6c077f320b9E(i64 %self) unnamed_addr #0 !dbg !399 {
start:
  %self.dbg.spill = alloca i64, align 8
  store i64 %self, i64* %self.dbg.spill, align 8
  call void @llvm.dbg.declare(metadata i64* %self.dbg.spill, metadata !403, metadata !DIExpression()), !dbg !404
  ret i64 %self, !dbg !405
}

; core::ops::function::impls::<impl core::ops::function::FnMut<A> for &mut F>::call_mut
; Function Attrs: nounwind
define zeroext i1 @"_ZN4core3ops8function5impls79_$LT$impl$u20$core..ops..function..FnMut$LT$A$GT$$u20$for$u20$$RF$mut$u20$F$GT$8call_mut17hfc53af94ffd8190cE"({ {}*, [3 x i64]* }* align 8 dereferenceable(16) %self) unnamed_addr #1 !dbg !406 {
start:
  %self.dbg.spill = alloca { {}*, [3 x i64]* }*, align 8
  %args = alloca {}, align 1
  store { {}*, [3 x i64]* }* %self, { {}*, [3 x i64]* }** %self.dbg.spill, align 8
  call void @llvm.dbg.declare(metadata { {}*, [3 x i64]* }** %self.dbg.spill, metadata !420, metadata !DIExpression()), !dbg !429
  call void @llvm.dbg.declare(metadata {}* %args, metadata !421, metadata !DIExpression()), !dbg !430
  %0 = getelementptr inbounds { {}*, [3 x i64]* }, { {}*, [3 x i64]* }* %self, i32 0, i32 0, !dbg !431
  %_3.0 = load {}*, {}** %0, align 8, !dbg !431, !nonnull !4
  %1 = getelementptr inbounds { {}*, [3 x i64]* }, { {}*, [3 x i64]* }* %self, i32 0, i32 1, !dbg !431
  %_3.1 = load [3 x i64]*, [3 x i64]** %1, align 8, !dbg !431, !nonnull !4
  %2 = bitcast [3 x i64]* %_3.1 to i1 ({}*)**, !dbg !431
  %3 = getelementptr inbounds i1 ({}*)*, i1 ({}*)** %2, i64 4, !dbg !431
  %4 = load i1 ({}*)*, i1 ({}*)** %3, align 8, !dbg !431, !invariant.load !4, !nonnull !4
  %5 = call zeroext i1 %4({}* align 1 %_3.0), !dbg !431
  br label %bb1, !dbg !431

bb1:                                              ; preds = %start
  ret i1 %5, !dbg !432
}

; core::ptr::drop_in_place<&usize>
; Function Attrs: inlinehint nounwind
define internal void @"_ZN4core3ptr30drop_in_place$LT$$RF$usize$GT$17h5724b990b6ed0ce9E"(i64** %_1) unnamed_addr #0 !dbg !433 {
start:
  %_1.dbg.spill = alloca i64**, align 8
  store i64** %_1, i64*** %_1.dbg.spill, align 8
  call void @llvm.dbg.declare(metadata i64*** %_1.dbg.spill, metadata !439, metadata !DIExpression()), !dbg !442
  ret void, !dbg !442
}

; core::ptr::drop_in_place<std::thread::Inner>
; Function Attrs: nounwind
define void @"_ZN4core3ptr39drop_in_place$LT$std..thread..Inner$GT$17h3b34ca94d8c5eb6aE"(%"std::thread::Inner"* %_1) unnamed_addr #1 !dbg !443 {
start:
  %_1.dbg.spill = alloca %"std::thread::Inner"*, align 8
  store %"std::thread::Inner"* %_1, %"std::thread::Inner"** %_1.dbg.spill, align 8
  call void @llvm.dbg.declare(metadata %"std::thread::Inner"** %_1.dbg.spill, metadata !448, metadata !DIExpression()), !dbg !449
  %0 = bitcast %"std::thread::Inner"* %_1 to { i8*, i64 }*, !dbg !449
; call core::ptr::drop_in_place<core::option::Option<std::ffi::c_str::CString>>
  call void @"_ZN4core3ptr73drop_in_place$LT$core..option..Option$LT$std..ffi..c_str..CString$GT$$GT$17hbb80183ec47785b7E"({ i8*, i64 }* %0), !dbg !449
  br label %bb2, !dbg !449

bb2:                                              ; preds = %start
  %1 = getelementptr inbounds %"std::thread::Inner", %"std::thread::Inner"* %_1, i32 0, i32 2, !dbg !449
; call core::ptr::drop_in_place<std::sys_common::thread_parker::generic::Parker>
  call void @"_ZN4core3ptr68drop_in_place$LT$std..sys_common..thread_parker..generic..Parker$GT$17he802f95f3891ab83E"(%"std::sys_common::thread_parker::generic::Parker"* %1), !dbg !449
  br label %bb1, !dbg !449

bb1:                                              ; preds = %bb2
  ret void, !dbg !449
}

; core::ptr::drop_in_place<std::thread::Thread>
; Function Attrs: nounwind
define void @"_ZN4core3ptr40drop_in_place$LT$std..thread..Thread$GT$17hb48cfdd790ddf0d1E"(i64** %_1) unnamed_addr #1 !dbg !450 {
start:
  %_1.dbg.spill = alloca i64**, align 8
  store i64** %_1, i64*** %_1.dbg.spill, align 8
  call void @llvm.dbg.declare(metadata i64*** %_1.dbg.spill, metadata !455, metadata !DIExpression()), !dbg !456
; call core::ptr::drop_in_place<alloc::sync::Arc<std::thread::Inner>>
  call void @"_ZN4core3ptr63drop_in_place$LT$alloc..sync..Arc$LT$std..thread..Inner$GT$$GT$17hfb0a179b77a52280E"(i64** %_1), !dbg !456
  br label %bb1, !dbg !456

bb1:                                              ; preds = %start
  ret void, !dbg !456
}

; core::ptr::drop_in_place<once_cell::imp::Guard>
; Function Attrs: nounwind
define void @"_ZN4core3ptr42drop_in_place$LT$once_cell..imp..Guard$GT$17hd8907b7a93b7d0d4E"({ i64*, i64 }* %_1) unnamed_addr #1 !dbg !457 {
start:
  %_1.dbg.spill = alloca { i64*, i64 }*, align 8
  store { i64*, i64 }* %_1, { i64*, i64 }** %_1.dbg.spill, align 8
  call void @llvm.dbg.declare(metadata { i64*, i64 }** %_1.dbg.spill, metadata !467, metadata !DIExpression()), !dbg !470
; call <once_cell::imp::Guard as core::ops::drop::Drop>::drop
  call void @"_ZN63_$LT$once_cell..imp..Guard$u20$as$u20$core..ops..drop..Drop$GT$4drop17ha227978622eba750E"({ i64*, i64 }* align 8 dereferenceable(16) %_1), !dbg !470
  br label %bb1, !dbg !470

bb1:                                              ; preds = %start
  ret void, !dbg !470
}

; core::ptr::drop_in_place<once_cell::imp::Waiter>
; Function Attrs: nounwind
define void @"_ZN4core3ptr43drop_in_place$LT$once_cell..imp..Waiter$GT$17h3553431b8a11aeaaE"(%"imp::Waiter"* %_1) unnamed_addr #1 !dbg !471 {
start:
  %_1.dbg.spill = alloca %"imp::Waiter"*, align 8
  store %"imp::Waiter"* %_1, %"imp::Waiter"** %_1.dbg.spill, align 8
  call void @llvm.dbg.declare(metadata %"imp::Waiter"** %_1.dbg.spill, metadata !488, metadata !DIExpression()), !dbg !491
  %0 = bitcast %"imp::Waiter"* %_1 to i64**, !dbg !491
; call core::ptr::drop_in_place<core::cell::Cell<core::option::Option<std::thread::Thread>>>
  call void @"_ZN4core3ptr92drop_in_place$LT$core..cell..Cell$LT$core..option..Option$LT$std..thread..Thread$GT$$GT$$GT$17h044d9b493401ce90E"(i64** %0), !dbg !491
  br label %bb1, !dbg !491

bb1:                                              ; preds = %start
  ret void, !dbg !491
}

; core::ptr::drop_in_place<std::ffi::c_str::CString>
; Function Attrs: nounwind
define void @"_ZN4core3ptr45drop_in_place$LT$std..ffi..c_str..CString$GT$17h78aa8354dea43c1cE"({ i8*, i64 }* %_1) unnamed_addr #1 !dbg !492 {
start:
  %_1.dbg.spill = alloca { i8*, i64 }*, align 8
  store { i8*, i64 }* %_1, { i8*, i64 }** %_1.dbg.spill, align 8
  call void @llvm.dbg.declare(metadata { i8*, i64 }** %_1.dbg.spill, metadata !497, metadata !DIExpression()), !dbg !498
; call <std::ffi::c_str::CString as core::ops::drop::Drop>::drop
  call void @"_ZN66_$LT$std..ffi..c_str..CString$u20$as$u20$core..ops..drop..Drop$GT$4drop17h9eca852c5d1ce54bE"({ i8*, i64 }* align 8 dereferenceable(16) %_1), !dbg !498
  br label %bb2, !dbg !498

bb2:                                              ; preds = %start
  %0 = bitcast { i8*, i64 }* %_1 to { [0 x i8]*, i64 }*, !dbg !498
; call core::ptr::drop_in_place<alloc::boxed::Box<[u8]>>
  call void @"_ZN4core3ptr58drop_in_place$LT$alloc..boxed..Box$LT$$u5b$u8$u5d$$GT$$GT$17hb449e07e9f4d8ddfE"({ [0 x i8]*, i64 }* %0), !dbg !498
  br label %bb1, !dbg !498

bb1:                                              ; preds = %bb2
  ret void, !dbg !498
}

; core::ptr::drop_in_place<std::sync::condvar::Condvar>
; Function Attrs: nounwind
define void @"_ZN4core3ptr48drop_in_place$LT$std..sync..condvar..Condvar$GT$17h941fd7debdf2746bE"(%"std::sync::Condvar"* %_1) unnamed_addr #1 !dbg !499 {
start:
  %_1.dbg.spill = alloca %"std::sync::Condvar"*, align 8
  store %"std::sync::Condvar"* %_1, %"std::sync::Condvar"** %_1.dbg.spill, align 8
  call void @llvm.dbg.declare(metadata %"std::sync::Condvar"** %_1.dbg.spill, metadata !504, metadata !DIExpression()), !dbg !507
  %0 = bitcast %"std::sync::Condvar"* %_1 to %"std::sys_common::condvar::Condvar"*, !dbg !507
; call core::ptr::drop_in_place<std::sys_common::condvar::Condvar>
  call void @"_ZN4core3ptr54drop_in_place$LT$std..sys_common..condvar..Condvar$GT$17h07703e061d62bea8E"(%"std::sys_common::condvar::Condvar"* %0), !dbg !507
  br label %bb1, !dbg !507

bb1:                                              ; preds = %start
  ret void, !dbg !507
}

; core::ptr::read
; Function Attrs: inlinehint nounwind
define i64* @_ZN4core3ptr4read17h59f91ade5d7f066dE(i64** %src) unnamed_addr #0 !dbg !508 {
start:
  %self.dbg.spill.i1 = alloca i8**, align 8
  %slot.dbg.spill.i.i = alloca i64*, align 8
  %self.dbg.spill.i = alloca i8*, align 8
  %0 = alloca i8*, align 8
  %src.dbg.spill = alloca i64**, align 8
  %tmp = alloca i8*, align 8
  store i64** %src, i64*** %src.dbg.spill, align 8
  call void @llvm.dbg.declare(metadata i64*** %src.dbg.spill, metadata !513, metadata !DIExpression()), !dbg !525
  call void @llvm.dbg.declare(metadata i8** %tmp, metadata !514, metadata !DIExpression()), !dbg !526
  %1 = bitcast i8** %0 to {}*, !dbg !527
  %2 = load i8*, i8** %0, align 8, !dbg !533
  store i8* %2, i8** %tmp, align 8, !dbg !534
  br label %bb1, !dbg !534

bb1:                                              ; preds = %start
  store i8** %tmp, i8*** %self.dbg.spill.i1, align 8
  call void @llvm.dbg.declare(metadata i8*** %self.dbg.spill.i1, metadata !535, metadata !DIExpression()), !dbg !542
  %3 = bitcast i8** %tmp to i64**, !dbg !544
  br label %bb2, !dbg !545

bb2:                                              ; preds = %bb1
  %4 = bitcast i64** %3 to i8*, !dbg !546
  %5 = bitcast i64** %src to i8*, !dbg !546
  call void @llvm.memcpy.p0i8.p0i8.i64(i8* align 8 %4, i8* align 8 %5, i64 8, i1 false), !dbg !546
  %_6 = load i8*, i8** %tmp, align 8, !dbg !547
  store i8* %_6, i8** %self.dbg.spill.i, align 8
  call void @llvm.dbg.declare(metadata i8** %self.dbg.spill.i, metadata !548, metadata !DIExpression()), !dbg !565
  %_3.i = bitcast i8* %_6 to i64*, !dbg !567
  store i64* %_3.i, i64** %slot.dbg.spill.i.i, align 8
  call void @llvm.dbg.declare(metadata i64** %slot.dbg.spill.i.i, metadata !568, metadata !DIExpression()), !dbg !574
  br label %bb3, !dbg !547

bb3:                                              ; preds = %bb2
  ret i64* %_3.i, !dbg !576
}

; core::ptr::drop_in_place<std::sys_common::condvar::Condvar>
; Function Attrs: nounwind
define void @"_ZN4core3ptr54drop_in_place$LT$std..sys_common..condvar..Condvar$GT$17h07703e061d62bea8E"(%"std::sys_common::condvar::Condvar"* %_1) unnamed_addr #1 !dbg !577 {
start:
  %_1.dbg.spill = alloca %"std::sys_common::condvar::Condvar"*, align 8
  store %"std::sys_common::condvar::Condvar"* %_1, %"std::sys_common::condvar::Condvar"** %_1.dbg.spill, align 8
  call void @llvm.dbg.declare(metadata %"std::sys_common::condvar::Condvar"** %_1.dbg.spill, metadata !582, metadata !DIExpression()), !dbg !585
; call <std::sys_common::condvar::Condvar as core::ops::drop::Drop>::drop
  call void @"_ZN75_$LT$std..sys_common..condvar..Condvar$u20$as$u20$core..ops..drop..Drop$GT$4drop17h145b148db91e623eE"(%"std::sys_common::condvar::Condvar"* align 8 dereferenceable(16) %_1), !dbg !585
  br label %bb2, !dbg !585

bb2:                                              ; preds = %start
  %0 = bitcast %"std::sys_common::condvar::Condvar"* %_1 to %"std::sys::sbf::condvar::Condvar"**, !dbg !585
; call core::ptr::drop_in_place<alloc::boxed::Box<std::sys::sbf::condvar::Condvar>>
  call void @"_ZN4core3ptr77drop_in_place$LT$alloc..boxed..Box$LT$std..sys..sbf..condvar..Condvar$GT$$GT$17hcdff7f46ca5d384fE"(%"std::sys::sbf::condvar::Condvar"** %0), !dbg !585
  br label %bb1, !dbg !585

bb1:                                              ; preds = %bb2
  ret void, !dbg !585
}

; core::ptr::drop_in_place<&core::sync::atomic::AtomicUsize>
; Function Attrs: inlinehint nounwind
define internal void @"_ZN4core3ptr56drop_in_place$LT$$RF$core..sync..atomic..AtomicUsize$GT$17ha81da364e725df4cE"(%"std::sync::atomic::AtomicUsize"** %_1) unnamed_addr #0 !dbg !586 {
start:
  %_1.dbg.spill = alloca %"std::sync::atomic::AtomicUsize"**, align 8
  store %"std::sync::atomic::AtomicUsize"** %_1, %"std::sync::atomic::AtomicUsize"*** %_1.dbg.spill, align 8
  call void @llvm.dbg.declare(metadata %"std::sync::atomic::AtomicUsize"*** %_1.dbg.spill, metadata !591, metadata !DIExpression()), !dbg !594
  ret void, !dbg !594
}

; core::ptr::drop_in_place<std::sys_common::mutex::MovableMutex>
; Function Attrs: nounwind
define void @"_ZN4core3ptr57drop_in_place$LT$std..sys_common..mutex..MovableMutex$GT$17h59fb6efdf6e48d44E"(i8** %_1) unnamed_addr #1 !dbg !595 {
start:
  %_1.dbg.spill = alloca i8**, align 8
  store i8** %_1, i8*** %_1.dbg.spill, align 8
  call void @llvm.dbg.declare(metadata i8*** %_1.dbg.spill, metadata !600, metadata !DIExpression()), !dbg !603
; call <std::sys_common::mutex::MovableMutex as core::ops::drop::Drop>::drop
  call void @"_ZN78_$LT$std..sys_common..mutex..MovableMutex$u20$as$u20$core..ops..drop..Drop$GT$4drop17h61305c93115c5488E"(i8** align 8 dereferenceable(8) %_1), !dbg !603
  br label %bb2, !dbg !603

bb2:                                              ; preds = %start
; call core::ptr::drop_in_place<alloc::boxed::Box<std::sys::sbf::mutex::Mutex>>
  call void @"_ZN4core3ptr73drop_in_place$LT$alloc..boxed..Box$LT$std..sys..sbf..mutex..Mutex$GT$$GT$17hffccdbff2f006988E"(i8** %_1), !dbg !603
  br label %bb1, !dbg !603

bb1:                                              ; preds = %bb2
  ret void, !dbg !603
}

; core::ptr::drop_in_place<&once_cell::race::OnceNonZeroUsize>
; Function Attrs: inlinehint nounwind
define internal void @"_ZN4core3ptr58drop_in_place$LT$$RF$once_cell..race..OnceNonZeroUsize$GT$17h8414a0a04aa63c90E"(%"race::OnceNonZeroUsize"** %_1) unnamed_addr #0 !dbg !604 {
start:
  %_1.dbg.spill = alloca %"race::OnceNonZeroUsize"**, align 8
  store %"race::OnceNonZeroUsize"** %_1, %"race::OnceNonZeroUsize"*** %_1.dbg.spill, align 8
  call void @llvm.dbg.declare(metadata %"race::OnceNonZeroUsize"*** %_1.dbg.spill, metadata !609, metadata !DIExpression()), !dbg !612
  ret void, !dbg !612
}

; core::ptr::drop_in_place<alloc::boxed::Box<[u8]>>
; Function Attrs: nounwind
define void @"_ZN4core3ptr58drop_in_place$LT$alloc..boxed..Box$LT$$u5b$u8$u5d$$GT$$GT$17hb449e07e9f4d8ddfE"({ [0 x i8]*, i64 }* %_1) unnamed_addr #1 !dbg !613 {
start:
  %_1.dbg.spill = alloca { [0 x i8]*, i64 }*, align 8
  store { [0 x i8]*, i64 }* %_1, { [0 x i8]*, i64 }** %_1.dbg.spill, align 8
  call void @llvm.dbg.declare(metadata { [0 x i8]*, i64 }** %_1.dbg.spill, metadata !618, metadata !DIExpression()), !dbg !621
  br label %bb2, !dbg !621

bb2:                                              ; preds = %start
  %0 = bitcast { [0 x i8]*, i64 }* %_1 to { i8*, i64 }*, !dbg !621
  %1 = getelementptr inbounds { i8*, i64 }, { i8*, i64 }* %0, i32 0, i32 0, !dbg !621
  %2 = load i8*, i8** %1, align 8, !dbg !621, !nonnull !4
  %3 = getelementptr inbounds { i8*, i64 }, { i8*, i64 }* %0, i32 0, i32 1, !dbg !621
  %4 = load i64, i64* %3, align 8, !dbg !621
; call alloc::alloc::box_free
  call void @_ZN5alloc5alloc8box_free17hdb81a7400236b307E(i8* nonnull %2, i64 %4), !dbg !621
  br label %bb1, !dbg !621

bb1:                                              ; preds = %bb2
  ret void, !dbg !621
}

; core::ptr::write
; Function Attrs: inlinehint nounwind
define void @_ZN4core3ptr5write17h7e40df696d315c99E(i64** %dst, i64* %0) unnamed_addr #0 !dbg !622 {
start:
  %dst.dbg.spill = alloca i64**, align 8
  %src = alloca i64*, align 8
  store i64* %0, i64** %src, align 8
  store i64** %dst, i64*** %dst.dbg.spill, align 8
  call void @llvm.dbg.declare(metadata i64*** %dst.dbg.spill, metadata !626, metadata !DIExpression()), !dbg !628
  call void @llvm.dbg.declare(metadata i64** %src, metadata !627, metadata !DIExpression()), !dbg !629
  %1 = bitcast i64** %dst to i8*, !dbg !630
  %2 = bitcast i64** %src to i8*, !dbg !630
  call void @llvm.memcpy.p0i8.p0i8.i64(i8* align 8 %1, i8* align 8 %2, i64 8, i1 false), !dbg !630
  ret void, !dbg !631
}

; core::ptr::drop_in_place<std::sync::mutex::Mutex<()>>
; Function Attrs: nounwind
define void @"_ZN4core3ptr60drop_in_place$LT$std..sync..mutex..Mutex$LT$$LP$$RP$$GT$$GT$17hd5580c5ff3826c8fE"(%"std::sync::Mutex<()>"* %_1) unnamed_addr #1 !dbg !632 {
start:
  %_1.dbg.spill = alloca %"std::sync::Mutex<()>"*, align 8
  store %"std::sync::Mutex<()>"* %_1, %"std::sync::Mutex<()>"** %_1.dbg.spill, align 8
  call void @llvm.dbg.declare(metadata %"std::sync::Mutex<()>"** %_1.dbg.spill, metadata !637, metadata !DIExpression()), !dbg !640
  %0 = bitcast %"std::sync::Mutex<()>"* %_1 to i8**, !dbg !640
; call core::ptr::drop_in_place<std::sys_common::mutex::MovableMutex>
  call void @"_ZN4core3ptr57drop_in_place$LT$std..sys_common..mutex..MovableMutex$GT$17h59fb6efdf6e48d44E"(i8** %0), !dbg !640
  br label %bb1, !dbg !640

bb1:                                              ; preds = %start
  ret void, !dbg !640
}

; core::ptr::drop_in_place<alloc::sync::Arc<std::thread::Inner>>
; Function Attrs: nounwind
define void @"_ZN4core3ptr63drop_in_place$LT$alloc..sync..Arc$LT$std..thread..Inner$GT$$GT$17hfb0a179b77a52280E"(i64** %_1) unnamed_addr #1 !dbg !641 {
start:
  %_1.dbg.spill = alloca i64**, align 8
  store i64** %_1, i64*** %_1.dbg.spill, align 8
  call void @llvm.dbg.declare(metadata i64*** %_1.dbg.spill, metadata !646, metadata !DIExpression()), !dbg !649
; call <alloc::sync::Arc<T> as core::ops::drop::Drop>::drop
  call void @"_ZN67_$LT$alloc..sync..Arc$LT$T$GT$$u20$as$u20$core..ops..drop..Drop$GT$4drop17h427a12e72ede8ad9E"(i64** align 8 dereferenceable(8) %_1), !dbg !649
  br label %bb1, !dbg !649

bb1:                                              ; preds = %start
  ret void, !dbg !649
}

; core::ptr::drop_in_place<alloc::sync::Weak<std::thread::Inner>>
; Function Attrs: nounwind
define void @"_ZN4core3ptr64drop_in_place$LT$alloc..sync..Weak$LT$std..thread..Inner$GT$$GT$17hf757e18983a6e882E"(i64** %_1) unnamed_addr #1 !dbg !650 {
start:
  %_1.dbg.spill = alloca i64**, align 8
  store i64** %_1, i64*** %_1.dbg.spill, align 8
  call void @llvm.dbg.declare(metadata i64*** %_1.dbg.spill, metadata !655, metadata !DIExpression()), !dbg !656
; call <alloc::sync::Weak<T> as core::ops::drop::Drop>::drop
  call void @"_ZN68_$LT$alloc..sync..Weak$LT$T$GT$$u20$as$u20$core..ops..drop..Drop$GT$4drop17hba6faf08e567f26aE"(i64** align 8 dereferenceable(8) %_1), !dbg !656
  br label %bb1, !dbg !656

bb1:                                              ; preds = %start
  ret void, !dbg !656
}

; core::ptr::drop_in_place<core::option::Option<std::thread::Thread>>
; Function Attrs: nounwind
define void @"_ZN4core3ptr68drop_in_place$LT$core..option..Option$LT$std..thread..Thread$GT$$GT$17ha153c367c997fe3dE"(i64** %_1) unnamed_addr #1 !dbg !657 {
start:
  %_1.dbg.spill = alloca i64**, align 8
  store i64** %_1, i64*** %_1.dbg.spill, align 8
  call void @llvm.dbg.declare(metadata i64*** %_1.dbg.spill, metadata !661, metadata !DIExpression()), !dbg !662
  %0 = bitcast i64** %_1 to {}**, !dbg !662
  %1 = load {}*, {}** %0, align 8, !dbg !662
  %2 = icmp eq {}* %1, null, !dbg !662
  %_2 = select i1 %2, i64 0, i64 1, !dbg !662
  %3 = icmp eq i64 %_2, 0, !dbg !662
  br i1 %3, label %bb1, label %bb2, !dbg !662

bb1:                                              ; preds = %bb2, %start
  ret void, !dbg !662

bb2:                                              ; preds = %start
; call core::ptr::drop_in_place<std::thread::Thread>
  call void @"_ZN4core3ptr40drop_in_place$LT$std..thread..Thread$GT$17hb48cfdd790ddf0d1E"(i64** %_1), !dbg !662
  br label %bb1, !dbg !662
}

; core::ptr::drop_in_place<std::sys_common::thread_parker::generic::Parker>
; Function Attrs: nounwind
define void @"_ZN4core3ptr68drop_in_place$LT$std..sys_common..thread_parker..generic..Parker$GT$17he802f95f3891ab83E"(%"std::sys_common::thread_parker::generic::Parker"* %_1) unnamed_addr #1 !dbg !663 {
start:
  %_1.dbg.spill = alloca %"std::sys_common::thread_parker::generic::Parker"*, align 8
  store %"std::sys_common::thread_parker::generic::Parker"* %_1, %"std::sys_common::thread_parker::generic::Parker"** %_1.dbg.spill, align 8
  call void @llvm.dbg.declare(metadata %"std::sys_common::thread_parker::generic::Parker"** %_1.dbg.spill, metadata !668, metadata !DIExpression()), !dbg !671
  %0 = getelementptr inbounds %"std::sys_common::thread_parker::generic::Parker", %"std::sys_common::thread_parker::generic::Parker"* %_1, i32 0, i32 1, !dbg !671
; call core::ptr::drop_in_place<std::sync::mutex::Mutex<()>>
  call void @"_ZN4core3ptr60drop_in_place$LT$std..sync..mutex..Mutex$LT$$LP$$RP$$GT$$GT$17hd5580c5ff3826c8fE"(%"std::sync::Mutex<()>"* %0), !dbg !671
  br label %bb2, !dbg !671

bb2:                                              ; preds = %start
  %1 = getelementptr inbounds %"std::sys_common::thread_parker::generic::Parker", %"std::sys_common::thread_parker::generic::Parker"* %_1, i32 0, i32 2, !dbg !671
; call core::ptr::drop_in_place<std::sync::condvar::Condvar>
  call void @"_ZN4core3ptr48drop_in_place$LT$std..sync..condvar..Condvar$GT$17h941fd7debdf2746bE"(%"std::sync::Condvar"* %1), !dbg !671
  br label %bb1, !dbg !671

bb1:                                              ; preds = %bb2
  ret void, !dbg !671
}

; core::ptr::unique::Unique<T>::new_unchecked
; Function Attrs: inlinehint nounwind
define nonnull i8* @"_ZN4core3ptr6unique15Unique$LT$T$GT$13new_unchecked17h872d884e20154cedE"(i8* %ptr) unnamed_addr #0 !dbg !672 {
start:
  %ptr.dbg.spill = alloca i8*, align 8
  %0 = alloca i8*, align 8
  store i8* %ptr, i8** %ptr.dbg.spill, align 8
  call void @llvm.dbg.declare(metadata i8** %ptr.dbg.spill, metadata !677, metadata !DIExpression()), !dbg !678
  store i8* %ptr, i8** %0, align 8, !dbg !679
  %1 = load i8*, i8** %0, align 8, !dbg !680, !nonnull !4
  ret i8* %1, !dbg !680
}

; core::ptr::unique::Unique<T>::cast
; Function Attrs: inlinehint nounwind
define nonnull i8* @"_ZN4core3ptr6unique15Unique$LT$T$GT$4cast17hc18d12e0427083ceE"(i8* nonnull %self) unnamed_addr #0 !dbg !681 {
start:
  %self.dbg.spill = alloca i8*, align 8
  store i8* %self, i8** %self.dbg.spill, align 8
  call void @llvm.dbg.declare(metadata i8** %self.dbg.spill, metadata !693, metadata !DIExpression()), !dbg !696
; call core::ptr::unique::Unique<T>::as_ptr
  %_3 = call %"std::sys::sbf::condvar::Condvar"* @"_ZN4core3ptr6unique15Unique$LT$T$GT$6as_ptr17hbdc2f7bc7fc26c5cE"(i8* nonnull %self), !dbg !697
  br label %bb1, !dbg !697

bb1:                                              ; preds = %start
  %_2 = bitcast %"std::sys::sbf::condvar::Condvar"* %_3 to i8*, !dbg !697
; call core::ptr::unique::Unique<T>::new_unchecked
  %0 = call nonnull i8* @"_ZN4core3ptr6unique15Unique$LT$T$GT$13new_unchecked17h872d884e20154cedE"(i8* %_2), !dbg !698
  br label %bb2, !dbg !698

bb2:                                              ; preds = %bb1
  ret i8* %0, !dbg !699
}

; core::ptr::unique::Unique<T>::cast
; Function Attrs: inlinehint nounwind
define nonnull i8* @"_ZN4core3ptr6unique15Unique$LT$T$GT$4cast17hd17e5e122224cdd0E"(i8* nonnull %self.0, i64 %self.1) unnamed_addr #0 !dbg !700 {
start:
  %self.dbg.spill = alloca { i8*, i64 }, align 8
  %0 = getelementptr inbounds { i8*, i64 }, { i8*, i64 }* %self.dbg.spill, i32 0, i32 0
  store i8* %self.0, i8** %0, align 8
  %1 = getelementptr inbounds { i8*, i64 }, { i8*, i64 }* %self.dbg.spill, i32 0, i32 1
  store i64 %self.1, i64* %1, align 8
  call void @llvm.dbg.declare(metadata { i8*, i64 }* %self.dbg.spill, metadata !714, metadata !DIExpression()), !dbg !716
; call core::ptr::unique::Unique<T>::as_ptr
  %2 = call { [0 x i8]*, i64 } @"_ZN4core3ptr6unique15Unique$LT$T$GT$6as_ptr17he4ea79dc3ad1e6ceE"(i8* nonnull %self.0, i64 %self.1), !dbg !717
  %_3.0 = extractvalue { [0 x i8]*, i64 } %2, 0, !dbg !717
  %_3.1 = extractvalue { [0 x i8]*, i64 } %2, 1, !dbg !717
  br label %bb1, !dbg !717

bb1:                                              ; preds = %start
  %_2 = bitcast [0 x i8]* %_3.0 to i8*, !dbg !717
; call core::ptr::unique::Unique<T>::new_unchecked
  %3 = call nonnull i8* @"_ZN4core3ptr6unique15Unique$LT$T$GT$13new_unchecked17h872d884e20154cedE"(i8* %_2), !dbg !718
  br label %bb2, !dbg !718

bb2:                                              ; preds = %bb1
  ret i8* %3, !dbg !719
}

; core::ptr::unique::Unique<T>::cast
; Function Attrs: inlinehint nounwind
define nonnull i8* @"_ZN4core3ptr6unique15Unique$LT$T$GT$4cast17hd4842f59f5c64425E"(i8* nonnull %self) unnamed_addr #0 !dbg !720 {
start:
  %self.dbg.spill = alloca i8*, align 8
  store i8* %self, i8** %self.dbg.spill, align 8
  call void @llvm.dbg.declare(metadata i8** %self.dbg.spill, metadata !732, metadata !DIExpression()), !dbg !734
; call core::ptr::unique::Unique<T>::as_ptr
  %_3 = call i8* @"_ZN4core3ptr6unique15Unique$LT$T$GT$6as_ptr17h9405a445e0d60e35E"(i8* nonnull %self), !dbg !735
  br label %bb1, !dbg !735

bb1:                                              ; preds = %start
; call core::ptr::unique::Unique<T>::new_unchecked
  %0 = call nonnull i8* @"_ZN4core3ptr6unique15Unique$LT$T$GT$13new_unchecked17h872d884e20154cedE"(i8* %_3), !dbg !736
  br label %bb2, !dbg !736

bb2:                                              ; preds = %bb1
  ret i8* %0, !dbg !737
}

; core::ptr::unique::Unique<T>::as_ptr
; Function Attrs: inlinehint nounwind
define i8* @"_ZN4core3ptr6unique15Unique$LT$T$GT$6as_ptr17h028d8fa2cf8e3213E"(i8* nonnull %self) unnamed_addr #0 !dbg !738 {
start:
  %self.dbg.spill = alloca i8*, align 8
  store i8* %self, i8** %self.dbg.spill, align 8
  call void @llvm.dbg.declare(metadata i8** %self.dbg.spill, metadata !742, metadata !DIExpression()), !dbg !743
  ret i8* %self, !dbg !744
}

; core::ptr::unique::Unique<T>::as_ptr
; Function Attrs: inlinehint nounwind
define i8* @"_ZN4core3ptr6unique15Unique$LT$T$GT$6as_ptr17h9405a445e0d60e35E"(i8* nonnull %self) unnamed_addr #0 !dbg !745 {
start:
  %self.dbg.spill = alloca i8*, align 8
  store i8* %self, i8** %self.dbg.spill, align 8
  call void @llvm.dbg.declare(metadata i8** %self.dbg.spill, metadata !750, metadata !DIExpression()), !dbg !751
  ret i8* %self, !dbg !752
}

; core::ptr::unique::Unique<T>::as_ptr
; Function Attrs: inlinehint nounwind
define %"std::sys::sbf::condvar::Condvar"* @"_ZN4core3ptr6unique15Unique$LT$T$GT$6as_ptr17hbdc2f7bc7fc26c5cE"(i8* nonnull %self) unnamed_addr #0 !dbg !753 {
start:
  %self.dbg.spill = alloca i8*, align 8
  store i8* %self, i8** %self.dbg.spill, align 8
  call void @llvm.dbg.declare(metadata i8** %self.dbg.spill, metadata !758, metadata !DIExpression()), !dbg !759
  %_2 = bitcast i8* %self to %"std::sys::sbf::condvar::Condvar"*, !dbg !760
  ret %"std::sys::sbf::condvar::Condvar"* %_2, !dbg !761
}

; core::ptr::unique::Unique<T>::as_ptr
; Function Attrs: inlinehint nounwind
define { [0 x i8]*, i64 } @"_ZN4core3ptr6unique15Unique$LT$T$GT$6as_ptr17he4ea79dc3ad1e6ceE"(i8* nonnull %self.0, i64 %self.1) unnamed_addr #0 !dbg !762 {
start:
  %self.dbg.spill = alloca { i8*, i64 }, align 8
  %0 = getelementptr inbounds { i8*, i64 }, { i8*, i64 }* %self.dbg.spill, i32 0, i32 0
  store i8* %self.0, i8** %0, align 8
  %1 = getelementptr inbounds { i8*, i64 }, { i8*, i64 }* %self.dbg.spill, i32 0, i32 1
  store i64 %self.1, i64* %1, align 8
  call void @llvm.dbg.declare(metadata { i8*, i64 }* %self.dbg.spill, metadata !770, metadata !DIExpression()), !dbg !771
  %_2.0 = bitcast i8* %self.0 to [0 x i8]*, !dbg !772
  %2 = insertvalue { [0 x i8]*, i64 } undef, [0 x i8]* %_2.0, 0, !dbg !773
  %3 = insertvalue { [0 x i8]*, i64 } %2, i64 %self.1, 1, !dbg !773
  ret { [0 x i8]*, i64 } %3, !dbg !773
}

; core::ptr::unique::Unique<T>::as_ref
; Function Attrs: inlinehint nounwind
define { [0 x i8]*, i64 } @"_ZN4core3ptr6unique15Unique$LT$T$GT$6as_ref17h2c6e2dee980c7414E"({ i8*, i64 }* align 8 dereferenceable(16) %self) unnamed_addr #0 !dbg !774 {
start:
  %self.dbg.spill = alloca { i8*, i64 }*, align 8
  store { i8*, i64 }* %self, { i8*, i64 }** %self.dbg.spill, align 8
  call void @llvm.dbg.declare(metadata { i8*, i64 }** %self.dbg.spill, metadata !783, metadata !DIExpression()), !dbg !784
  %0 = getelementptr inbounds { i8*, i64 }, { i8*, i64 }* %self, i32 0, i32 0, !dbg !785
  %_3.0 = load i8*, i8** %0, align 8, !dbg !785, !nonnull !4
  %1 = getelementptr inbounds { i8*, i64 }, { i8*, i64 }* %self, i32 0, i32 1, !dbg !785
  %_3.1 = load i64, i64* %1, align 8, !dbg !785
; call core::ptr::unique::Unique<T>::as_ptr
  %2 = call { [0 x i8]*, i64 } @"_ZN4core3ptr6unique15Unique$LT$T$GT$6as_ptr17he4ea79dc3ad1e6ceE"(i8* nonnull %_3.0, i64 %_3.1), !dbg !785
  %_2.0 = extractvalue { [0 x i8]*, i64 } %2, 0, !dbg !785
  %_2.1 = extractvalue { [0 x i8]*, i64 } %2, 1, !dbg !785
  br label %bb1, !dbg !785

bb1:                                              ; preds = %start
  %3 = insertvalue { [0 x i8]*, i64 } undef, [0 x i8]* %_2.0, 0, !dbg !786
  %4 = insertvalue { [0 x i8]*, i64 } %3, i64 %_2.1, 1, !dbg !786
  ret { [0 x i8]*, i64 } %4, !dbg !786
}

; core::ptr::unique::Unique<T>::as_ref
; Function Attrs: inlinehint nounwind
define nonnull align 1 %"std::sys::sbf::condvar::Condvar"* @"_ZN4core3ptr6unique15Unique$LT$T$GT$6as_ref17ha20fdabc9db35785E"(i8** align 8 dereferenceable(8) %self) unnamed_addr #0 !dbg !787 {
start:
  %self.dbg.spill = alloca i8**, align 8
  store i8** %self, i8*** %self.dbg.spill, align 8
  call void @llvm.dbg.declare(metadata i8*** %self.dbg.spill, metadata !793, metadata !DIExpression()), !dbg !794
  %_3 = load i8*, i8** %self, align 8, !dbg !795, !nonnull !4
; call core::ptr::unique::Unique<T>::as_ptr
  %_2 = call %"std::sys::sbf::condvar::Condvar"* @"_ZN4core3ptr6unique15Unique$LT$T$GT$6as_ptr17hbdc2f7bc7fc26c5cE"(i8* nonnull %_3), !dbg !795
  br label %bb1, !dbg !795

bb1:                                              ; preds = %start
  ret %"std::sys::sbf::condvar::Condvar"* %_2, !dbg !796
}

; core::ptr::unique::Unique<T>::as_ref
; Function Attrs: inlinehint nounwind
define align 1 dereferenceable(1) i8* @"_ZN4core3ptr6unique15Unique$LT$T$GT$6as_ref17hc00a3cf9932816fdE"(i8** align 8 dereferenceable(8) %self) unnamed_addr #0 !dbg !797 {
start:
  %self.dbg.spill = alloca i8**, align 8
  store i8** %self, i8*** %self.dbg.spill, align 8
  call void @llvm.dbg.declare(metadata i8*** %self.dbg.spill, metadata !803, metadata !DIExpression()), !dbg !804
  %_3 = load i8*, i8** %self, align 8, !dbg !805, !nonnull !4
; call core::ptr::unique::Unique<T>::as_ptr
  %_2 = call i8* @"_ZN4core3ptr6unique15Unique$LT$T$GT$6as_ptr17h9405a445e0d60e35E"(i8* nonnull %_3), !dbg !805
  br label %bb1, !dbg !805

bb1:                                              ; preds = %start
  ret i8* %_2, !dbg !806
}

; core::ptr::drop_in_place<alloc::boxed::Box<std::sys::sbf::mutex::Mutex>>
; Function Attrs: nounwind
define void @"_ZN4core3ptr73drop_in_place$LT$alloc..boxed..Box$LT$std..sys..sbf..mutex..Mutex$GT$$GT$17hffccdbff2f006988E"(i8** %_1) unnamed_addr #1 !dbg !807 {
start:
  %_1.dbg.spill = alloca i8**, align 8
  store i8** %_1, i8*** %_1.dbg.spill, align 8
  call void @llvm.dbg.declare(metadata i8*** %_1.dbg.spill, metadata !812, metadata !DIExpression()), !dbg !815
  br label %bb2, !dbg !815

bb2:                                              ; preds = %start
  %0 = load i8*, i8** %_1, align 8, !dbg !815, !nonnull !4
; call alloc::alloc::box_free
  call void @_ZN5alloc5alloc8box_free17he225b539013738b3E(i8* nonnull %0), !dbg !815
  br label %bb1, !dbg !815

bb1:                                              ; preds = %bb2
  ret void, !dbg !815
}

; core::ptr::drop_in_place<core::option::Option<std::ffi::c_str::CString>>
; Function Attrs: nounwind
define void @"_ZN4core3ptr73drop_in_place$LT$core..option..Option$LT$std..ffi..c_str..CString$GT$$GT$17hbb80183ec47785b7E"({ i8*, i64 }* %_1) unnamed_addr #1 !dbg !816 {
start:
  %_1.dbg.spill = alloca { i8*, i64 }*, align 8
  store { i8*, i64 }* %_1, { i8*, i64 }** %_1.dbg.spill, align 8
  call void @llvm.dbg.declare(metadata { i8*, i64 }** %_1.dbg.spill, metadata !821, metadata !DIExpression()), !dbg !824
  %0 = bitcast { i8*, i64 }* %_1 to {}**, !dbg !824
  %1 = load {}*, {}** %0, align 8, !dbg !824
  %2 = icmp eq {}* %1, null, !dbg !824
  %_2 = select i1 %2, i64 0, i64 1, !dbg !824
  %3 = icmp eq i64 %_2, 0, !dbg !824
  br i1 %3, label %bb1, label %bb2, !dbg !824

bb1:                                              ; preds = %bb2, %start
  ret void, !dbg !824

bb2:                                              ; preds = %start
; call core::ptr::drop_in_place<std::ffi::c_str::CString>
  call void @"_ZN4core3ptr45drop_in_place$LT$std..ffi..c_str..CString$GT$17h78aa8354dea43c1cE"({ i8*, i64 }* %_1), !dbg !824
  br label %bb1, !dbg !824
}

; core::ptr::drop_in_place<alloc::boxed::Box<std::sys::sbf::condvar::Condvar>>
; Function Attrs: nounwind
define void @"_ZN4core3ptr77drop_in_place$LT$alloc..boxed..Box$LT$std..sys..sbf..condvar..Condvar$GT$$GT$17hcdff7f46ca5d384fE"(%"std::sys::sbf::condvar::Condvar"** %_1) unnamed_addr #1 !dbg !825 {
start:
  %_1.dbg.spill = alloca %"std::sys::sbf::condvar::Condvar"**, align 8
  store %"std::sys::sbf::condvar::Condvar"** %_1, %"std::sys::sbf::condvar::Condvar"*** %_1.dbg.spill, align 8
  call void @llvm.dbg.declare(metadata %"std::sys::sbf::condvar::Condvar"*** %_1.dbg.spill, metadata !830, metadata !DIExpression()), !dbg !833
  br label %bb2, !dbg !833

bb2:                                              ; preds = %start
  %0 = bitcast %"std::sys::sbf::condvar::Condvar"** %_1 to i8**, !dbg !833
  %1 = load i8*, i8** %0, align 8, !dbg !833, !nonnull !4
; call alloc::alloc::box_free
  call void @_ZN5alloc5alloc8box_free17h25d71aaf15382d92E(i8* nonnull %1), !dbg !833
  br label %bb1, !dbg !833

bb1:                                              ; preds = %bb2
  ret void, !dbg !833
}

; core::ptr::non_null::NonNull<T>::new_unchecked
; Function Attrs: inlinehint nounwind
define nonnull i8* @"_ZN4core3ptr8non_null16NonNull$LT$T$GT$13new_unchecked17h34f694ffe0a55777E"(i8* %ptr) unnamed_addr #0 !dbg !834 {
start:
  %ptr.dbg.spill = alloca i8*, align 8
  %0 = alloca i8*, align 8
  store i8* %ptr, i8** %ptr.dbg.spill, align 8
  call void @llvm.dbg.declare(metadata i8** %ptr.dbg.spill, metadata !838, metadata !DIExpression()), !dbg !839
  store i8* %ptr, i8** %0, align 8, !dbg !840
  %1 = load i8*, i8** %0, align 8, !dbg !841, !nonnull !4
  ret i8* %1, !dbg !841
}

; core::ptr::non_null::NonNull<T>::cast
; Function Attrs: inlinehint nounwind
define nonnull i8* @"_ZN4core3ptr8non_null16NonNull$LT$T$GT$4cast17h38f08ea6661bdd07E"(i64* nonnull %self) unnamed_addr #0 !dbg !842 {
start:
  %self.dbg.spill = alloca i64*, align 8
  store i64* %self, i64** %self.dbg.spill, align 8
  call void @llvm.dbg.declare(metadata i64** %self.dbg.spill, metadata !846, metadata !DIExpression()), !dbg !848
; call core::ptr::non_null::NonNull<T>::as_ptr
  %_3 = call %"alloc::sync::ArcInner<std::thread::Inner>"* @"_ZN4core3ptr8non_null16NonNull$LT$T$GT$6as_ptr17h2430046c2ff505c1E"(i64* nonnull %self), !dbg !849
  br label %bb1, !dbg !849

bb1:                                              ; preds = %start
  %_2 = bitcast %"alloc::sync::ArcInner<std::thread::Inner>"* %_3 to i8*, !dbg !849
; call core::ptr::non_null::NonNull<T>::new_unchecked
  %0 = call nonnull i8* @"_ZN4core3ptr8non_null16NonNull$LT$T$GT$13new_unchecked17h34f694ffe0a55777E"(i8* %_2), !dbg !850
  br label %bb2, !dbg !850

bb2:                                              ; preds = %bb1
  ret i8* %0, !dbg !851
}

; core::ptr::non_null::NonNull<T>::as_ptr
; Function Attrs: inlinehint nounwind
define %"alloc::sync::ArcInner<std::thread::Inner>"* @"_ZN4core3ptr8non_null16NonNull$LT$T$GT$6as_ptr17h2430046c2ff505c1E"(i64* nonnull %self) unnamed_addr #0 !dbg !852 {
start:
  %self.dbg.spill = alloca i64*, align 8
  store i64* %self, i64** %self.dbg.spill, align 8
  call void @llvm.dbg.declare(metadata i64** %self.dbg.spill, metadata !857, metadata !DIExpression()), !dbg !858
  %_2 = bitcast i64* %self to %"alloc::sync::ArcInner<std::thread::Inner>"*, !dbg !859
  ret %"alloc::sync::ArcInner<std::thread::Inner>"* %_2, !dbg !860
}

; core::ptr::non_null::NonNull<T>::as_ptr
; Function Attrs: inlinehint nounwind
define i8* @"_ZN4core3ptr8non_null16NonNull$LT$T$GT$6as_ptr17hfd193d06c871ff80E"(i8* nonnull %self) unnamed_addr #0 !dbg !861 {
start:
  %self.dbg.spill = alloca i8*, align 8
  store i8* %self, i8** %self.dbg.spill, align 8
  call void @llvm.dbg.declare(metadata i8** %self.dbg.spill, metadata !865, metadata !DIExpression()), !dbg !866
  ret i8* %self, !dbg !867
}

; core::ptr::non_null::NonNull<T>::as_ref
; Function Attrs: inlinehint nounwind
define align 8 dereferenceable(80) %"alloc::sync::ArcInner<std::thread::Inner>"* @"_ZN4core3ptr8non_null16NonNull$LT$T$GT$6as_ref17h53b014798c358dc4E"(i64** align 8 dereferenceable(8) %self) unnamed_addr #0 !dbg !868 {
start:
  %self.dbg.spill = alloca i64**, align 8
  store i64** %self, i64*** %self.dbg.spill, align 8
  call void @llvm.dbg.declare(metadata i64*** %self.dbg.spill, metadata !874, metadata !DIExpression()), !dbg !875
  %_3 = load i64*, i64** %self, align 8, !dbg !876, !nonnull !4
; call core::ptr::non_null::NonNull<T>::as_ptr
  %_2 = call %"alloc::sync::ArcInner<std::thread::Inner>"* @"_ZN4core3ptr8non_null16NonNull$LT$T$GT$6as_ptr17h2430046c2ff505c1E"(i64* nonnull %_3), !dbg !876
  br label %bb1, !dbg !876

bb1:                                              ; preds = %start
  ret %"alloc::sync::ArcInner<std::thread::Inner>"* %_2, !dbg !877
}

; core::ptr::drop_in_place<core::cell::Cell<core::option::Option<std::thread::Thread>>>
; Function Attrs: nounwind
define void @"_ZN4core3ptr92drop_in_place$LT$core..cell..Cell$LT$core..option..Option$LT$std..thread..Thread$GT$$GT$$GT$17h044d9b493401ce90E"(i64** %_1) unnamed_addr #1 !dbg !878 {
start:
  %_1.dbg.spill = alloca i64**, align 8
  store i64** %_1, i64*** %_1.dbg.spill, align 8
  call void @llvm.dbg.declare(metadata i64*** %_1.dbg.spill, metadata !883, metadata !DIExpression()), !dbg !886
; call core::ptr::drop_in_place<core::cell::UnsafeCell<core::option::Option<std::thread::Thread>>>
  call void @"_ZN4core3ptr98drop_in_place$LT$core..cell..UnsafeCell$LT$core..option..Option$LT$std..thread..Thread$GT$$GT$$GT$17h116179b56b2299d4E"(i64** %_1), !dbg !886
  br label %bb1, !dbg !886

bb1:                                              ; preds = %start
  ret void, !dbg !886
}

; core::ptr::drop_in_place<core::cell::UnsafeCell<core::option::Option<std::thread::Thread>>>
; Function Attrs: nounwind
define void @"_ZN4core3ptr98drop_in_place$LT$core..cell..UnsafeCell$LT$core..option..Option$LT$std..thread..Thread$GT$$GT$$GT$17h116179b56b2299d4E"(i64** %_1) unnamed_addr #1 !dbg !887 {
start:
  %_1.dbg.spill = alloca i64**, align 8
  store i64** %_1, i64*** %_1.dbg.spill, align 8
  call void @llvm.dbg.declare(metadata i64*** %_1.dbg.spill, metadata !892, metadata !DIExpression()), !dbg !895
; call core::ptr::drop_in_place<core::option::Option<std::thread::Thread>>
  call void @"_ZN4core3ptr68drop_in_place$LT$core..option..Option$LT$std..thread..Thread$GT$$GT$17ha153c367c997fe3dE"(i64** %_1), !dbg !895
  br label %bb1, !dbg !895

bb1:                                              ; preds = %start
  ret void, !dbg !895
}

; core::ptr::const_ptr::<impl *const T>::guaranteed_eq
; Function Attrs: inlinehint nounwind
define zeroext i1 @"_ZN4core3ptr9const_ptr33_$LT$impl$u20$$BP$const$u20$T$GT$13guaranteed_eq17h58c4b364a025c14aE"(i8* %self, i8* %other) unnamed_addr #0 !dbg !896 {
start:
  %0 = alloca i8, align 1
  %other.dbg.spill = alloca i8*, align 8
  %self.dbg.spill = alloca i8*, align 8
  store i8* %self, i8** %self.dbg.spill, align 8
  call void @llvm.dbg.declare(metadata i8** %self.dbg.spill, metadata !903, metadata !DIExpression()), !dbg !905
  store i8* %other, i8** %other.dbg.spill, align 8
  call void @llvm.dbg.declare(metadata i8** %other.dbg.spill, metadata !904, metadata !DIExpression()), !dbg !906
  %1 = icmp eq i8* %self, %other, !dbg !907
  %2 = zext i1 %1 to i8, !dbg !907
  store i8 %2, i8* %0, align 1, !dbg !907
  %3 = load i8, i8* %0, align 1, !dbg !907, !range !324
  %4 = trunc i8 %3 to i1, !dbg !907
  br label %bb1, !dbg !907

bb1:                                              ; preds = %start
  ret i1 %4, !dbg !908
}

; core::ptr::const_ptr::<impl *const T>::is_null
; Function Attrs: inlinehint nounwind
define zeroext i1 @"_ZN4core3ptr9const_ptr33_$LT$impl$u20$$BP$const$u20$T$GT$7is_null17h4246272efcc22498E"(%"imp::Waiter"* %self) unnamed_addr #0 !dbg !909 {
start:
  %self.dbg.spill = alloca %"imp::Waiter"*, align 8
  store %"imp::Waiter"* %self, %"imp::Waiter"** %self.dbg.spill, align 8
  call void @llvm.dbg.declare(metadata %"imp::Waiter"** %self.dbg.spill, metadata !913, metadata !DIExpression()), !dbg !914
  %_2 = bitcast %"imp::Waiter"* %self to i8*, !dbg !915
  br label %bb1, !dbg !916

bb1:                                              ; preds = %start
; call core::ptr::const_ptr::<impl *const T>::guaranteed_eq
  %0 = call zeroext i1 @"_ZN4core3ptr9const_ptr33_$LT$impl$u20$$BP$const$u20$T$GT$13guaranteed_eq17h58c4b364a025c14aE"(i8* %_2, i8* null), !dbg !915
  br label %bb2, !dbg !915

bb2:                                              ; preds = %bb1
  ret i1 %0, !dbg !917
}

; core::cell::Cell<T>::new
; Function Attrs: inlinehint nounwind
define i64* @"_ZN4core4cell13Cell$LT$T$GT$3new17h55368ac9f907d6f6E"(i64* %value) unnamed_addr #0 !dbg !918 {
start:
  %value.dbg.spill.i = alloca i64*, align 8
  %0 = alloca i64*, align 8
  %value.dbg.spill = alloca i64*, align 8
  %1 = alloca i64*, align 8
  store i64* %value, i64** %value.dbg.spill, align 8
  call void @llvm.dbg.declare(metadata i64** %value.dbg.spill, metadata !923, metadata !DIExpression()), !dbg !924
  store i64* %value, i64** %value.dbg.spill.i, align 8
  call void @llvm.dbg.declare(metadata i64** %value.dbg.spill.i, metadata !925, metadata !DIExpression()), !dbg !930
  store i64* %value, i64** %0, align 8, !dbg !932
  %2 = load i64*, i64** %0, align 8, !dbg !933
  br label %bb1, !dbg !934

bb1:                                              ; preds = %start
  store i64* %2, i64** %1, align 8, !dbg !935
  %3 = load i64*, i64** %1, align 8, !dbg !936
  ret i64* %3, !dbg !936
}

; core::cell::Cell<T>::take
; Function Attrs: nounwind
define i64* @"_ZN4core4cell13Cell$LT$T$GT$4take17hea3ebbc7d5a715efE"(i64** align 8 dereferenceable(8) %self) unnamed_addr #1 !dbg !937 {
start:
  %self.dbg.spill = alloca i64**, align 8
  store i64** %self, i64*** %self.dbg.spill, align 8
  call void @llvm.dbg.declare(metadata i64*** %self.dbg.spill, metadata !942, metadata !DIExpression()), !dbg !943
; call <core::option::Option<T> as core::default::Default>::default
  %_3 = call i64* @"_ZN72_$LT$core..option..Option$LT$T$GT$$u20$as$u20$core..default..Default$GT$7default17h0567c77893412ee8E"(), !dbg !944
  br label %bb1, !dbg !944

bb1:                                              ; preds = %start
; call core::cell::Cell<T>::replace
  %0 = call i64* @"_ZN4core4cell13Cell$LT$T$GT$7replace17h1737876d40698f3bE"(i64** align 8 dereferenceable(8) %self, i64* %_3), !dbg !945
  br label %bb2, !dbg !945

bb2:                                              ; preds = %bb1
  ret i64* %0, !dbg !946
}

; core::cell::Cell<T>::replace
; Function Attrs: nounwind
define i64* @"_ZN4core4cell13Cell$LT$T$GT$7replace17h1737876d40698f3bE"(i64** align 8 dereferenceable(8) %self, i64* %val) unnamed_addr #1 !dbg !947 {
start:
  %self.dbg.spill.i = alloca i64**, align 8
  %val.dbg.spill = alloca i64*, align 8
  %self.dbg.spill = alloca i64**, align 8
  store i64** %self, i64*** %self.dbg.spill, align 8
  call void @llvm.dbg.declare(metadata i64*** %self.dbg.spill, metadata !951, metadata !DIExpression()), !dbg !953
  store i64* %val, i64** %val.dbg.spill, align 8
  call void @llvm.dbg.declare(metadata i64** %val.dbg.spill, metadata !952, metadata !DIExpression()), !dbg !954
  store i64** %self, i64*** %self.dbg.spill.i, align 8
  call void @llvm.dbg.declare(metadata i64*** %self.dbg.spill.i, metadata !955, metadata !DIExpression()), !dbg !961
  br label %bb1, !dbg !963

bb1:                                              ; preds = %start
; call core::mem::replace
  %0 = call i64* @_ZN4core3mem7replace17h7b76a71f315997b2E(i64** align 8 dereferenceable(8) %self, i64* %val), !dbg !964
  br label %bb2, !dbg !964

bb2:                                              ; preds = %bb1
  ret i64* %0, !dbg !965
}

; core::sync::atomic::AtomicBool::new
; Function Attrs: inlinehint nounwind
define internal i8 @_ZN4core4sync6atomic10AtomicBool3new17hcf2afd276021390dE(i1 zeroext %v) unnamed_addr #0 !dbg !966 {
start:
  %value.dbg.spill.i = alloca i8, align 1
  %0 = alloca i8, align 1
  %v.dbg.spill = alloca i8, align 1
  %1 = alloca %"std::sync::atomic::AtomicBool", align 1
  %2 = zext i1 %v to i8
  store i8 %2, i8* %v.dbg.spill, align 1
  call void @llvm.dbg.declare(metadata i8* %v.dbg.spill, metadata !971, metadata !DIExpression()), !dbg !972
  %3 = icmp ule i1 %v, true, !dbg !973
  call void @llvm.assume(i1 %3), !dbg !973
  %_3 = zext i1 %v to i8, !dbg !973
  store i8 %_3, i8* %value.dbg.spill.i, align 1
  call void @llvm.dbg.declare(metadata i8* %value.dbg.spill.i, metadata !974, metadata !DIExpression()), !dbg !979
  store i8 %_3, i8* %0, align 1, !dbg !981
  %4 = load i8, i8* %0, align 1, !dbg !982
  br label %bb1, !dbg !983

bb1:                                              ; preds = %start
  %5 = bitcast %"std::sync::atomic::AtomicBool"* %1 to i8*, !dbg !984
  store i8 %4, i8* %5, align 1, !dbg !984
  %6 = bitcast %"std::sync::atomic::AtomicBool"* %1 to i8*, !dbg !985
  %7 = load i8, i8* %6, align 1, !dbg !985
  ret i8 %7, !dbg !985
}

; core::sync::atomic::AtomicBool::load
; Function Attrs: inlinehint nounwind
define internal zeroext i1 @_ZN4core4sync6atomic10AtomicBool4load17h6bac9222d229c151E(%"std::sync::atomic::AtomicBool"* align 1 dereferenceable(1) %self, i8 %order) unnamed_addr #0 !dbg !986 {
start:
  %self.dbg.spill.i = alloca i8*, align 8
  %order.dbg.spill = alloca i8, align 1
  %self.dbg.spill = alloca %"std::sync::atomic::AtomicBool"*, align 8
  store %"std::sync::atomic::AtomicBool"* %self, %"std::sync::atomic::AtomicBool"** %self.dbg.spill, align 8
  call void @llvm.dbg.declare(metadata %"std::sync::atomic::AtomicBool"** %self.dbg.spill, metadata !991, metadata !DIExpression()), !dbg !993
  store i8 %order, i8* %order.dbg.spill, align 1
  call void @llvm.dbg.declare(metadata i8* %order.dbg.spill, metadata !992, metadata !DIExpression()), !dbg !994
  %_6 = bitcast %"std::sync::atomic::AtomicBool"* %self to i8*, !dbg !995
  store i8* %_6, i8** %self.dbg.spill.i, align 8
  call void @llvm.dbg.declare(metadata i8** %self.dbg.spill.i, metadata !996, metadata !DIExpression()), !dbg !1002
  br label %bb1, !dbg !995

bb1:                                              ; preds = %start
; call core::sync::atomic::atomic_load
  %_3 = call i8 @_ZN4core4sync6atomic11atomic_load17heae6f854b9cad31cE(i8* %_6, i8 %order), !dbg !1004
  br label %bb2, !dbg !1004

bb2:                                              ; preds = %bb1
  %0 = icmp ne i8 %_3, 0, !dbg !1004
  ret i1 %0, !dbg !1005
}

; core::sync::atomic::AtomicBool::store
; Function Attrs: inlinehint nounwind
define internal void @_ZN4core4sync6atomic10AtomicBool5store17h527aeff2e222ca02E(%"std::sync::atomic::AtomicBool"* align 1 dereferenceable(1) %self, i1 zeroext %val, i8 %order) unnamed_addr #0 !dbg !1006 {
start:
  %self.dbg.spill.i = alloca i8*, align 8
  %order.dbg.spill = alloca i8, align 1
  %val.dbg.spill = alloca i8, align 1
  %self.dbg.spill = alloca %"std::sync::atomic::AtomicBool"*, align 8
  store %"std::sync::atomic::AtomicBool"* %self, %"std::sync::atomic::AtomicBool"** %self.dbg.spill, align 8
  call void @llvm.dbg.declare(metadata %"std::sync::atomic::AtomicBool"** %self.dbg.spill, metadata !1010, metadata !DIExpression()), !dbg !1013
  %0 = zext i1 %val to i8
  store i8 %0, i8* %val.dbg.spill, align 1
  call void @llvm.dbg.declare(metadata i8* %val.dbg.spill, metadata !1011, metadata !DIExpression()), !dbg !1014
  store i8 %order, i8* %order.dbg.spill, align 1
  call void @llvm.dbg.declare(metadata i8* %order.dbg.spill, metadata !1012, metadata !DIExpression()), !dbg !1015
  %_6 = bitcast %"std::sync::atomic::AtomicBool"* %self to i8*, !dbg !1016
  store i8* %_6, i8** %self.dbg.spill.i, align 8
  call void @llvm.dbg.declare(metadata i8** %self.dbg.spill.i, metadata !996, metadata !DIExpression()), !dbg !1017
  br label %bb1, !dbg !1016

bb1:                                              ; preds = %start
  %1 = icmp ule i1 %val, true, !dbg !1019
  call void @llvm.assume(i1 %1), !dbg !1019
  %_7 = zext i1 %val to i8, !dbg !1019
; call core::sync::atomic::atomic_store
  call void @_ZN4core4sync6atomic12atomic_store17h9e11bcaf7f421c08E(i8* %_6, i8 %_7, i8 %order), !dbg !1020
  br label %bb2, !dbg !1020

bb2:                                              ; preds = %bb1
  ret void, !dbg !1021
}

; core::sync::atomic::atomic_sub
; Function Attrs: inlinehint nounwind
define i64 @_ZN4core4sync6atomic10atomic_sub17h6166320e0ef6e9d1E(i64* %dst, i64 %val, i8 %0) unnamed_addr #0 !dbg !1022 {
start:
  %val.dbg.spill = alloca i64, align 8
  %dst.dbg.spill = alloca i64*, align 8
  %1 = alloca i64, align 8
  %order = alloca i8, align 1
  store i8 %0, i8* %order, align 1
  store i64* %dst, i64** %dst.dbg.spill, align 8
  call void @llvm.dbg.declare(metadata i64** %dst.dbg.spill, metadata !1027, metadata !DIExpression()), !dbg !1030
  store i64 %val, i64* %val.dbg.spill, align 8
  call void @llvm.dbg.declare(metadata i64* %val.dbg.spill, metadata !1028, metadata !DIExpression()), !dbg !1031
  call void @llvm.dbg.declare(metadata i8* %order, metadata !1029, metadata !DIExpression()), !dbg !1032
  %2 = load i8, i8* %order, align 1, !dbg !1033, !range !1034
  %_4 = zext i8 %2 to i64, !dbg !1033
  switch i64 %_4, label %bb2 [
    i64 0, label %bb9
    i64 1, label %bb5
    i64 2, label %bb3
    i64 3, label %bb7
    i64 4, label %bb1
  ], !dbg !1035

bb2:                                              ; preds = %start
  unreachable, !dbg !1033

bb9:                                              ; preds = %start
  %3 = atomicrmw sub i64* %dst, i64 %val monotonic, align 8, !dbg !1036
  store i64 %3, i64* %1, align 8, !dbg !1036
  br label %bb10, !dbg !1036

bb5:                                              ; preds = %start
  %4 = atomicrmw sub i64* %dst, i64 %val release, align 8, !dbg !1037
  store i64 %4, i64* %1, align 8, !dbg !1037
  br label %bb6, !dbg !1037

bb3:                                              ; preds = %start
  %5 = atomicrmw sub i64* %dst, i64 %val acquire, align 8, !dbg !1038
  store i64 %5, i64* %1, align 8, !dbg !1038
  br label %bb4, !dbg !1038

bb7:                                              ; preds = %start
  %6 = atomicrmw sub i64* %dst, i64 %val acq_rel, align 8, !dbg !1039
  store i64 %6, i64* %1, align 8, !dbg !1039
  br label %bb8, !dbg !1039

bb1:                                              ; preds = %start
  %7 = atomicrmw sub i64* %dst, i64 %val seq_cst, align 8, !dbg !1040
  store i64 %7, i64* %1, align 8, !dbg !1040
  br label %bb11, !dbg !1040

bb11:                                             ; preds = %bb1
  br label %bb12, !dbg !1041

bb12:                                             ; preds = %bb10, %bb6, %bb4, %bb8, %bb11
  %8 = load i64, i64* %1, align 8, !dbg !1042
  ret i64 %8, !dbg !1042

bb8:                                              ; preds = %bb7
  br label %bb12, !dbg !1043

bb4:                                              ; preds = %bb3
  br label %bb12, !dbg !1044

bb6:                                              ; preds = %bb5
  br label %bb12, !dbg !1045

bb10:                                             ; preds = %bb9
  br label %bb12, !dbg !1046
}

; core::sync::atomic::AtomicUsize::compare_exchange
; Function Attrs: inlinehint nounwind
define internal { i64, i64 } @_ZN4core4sync6atomic11AtomicUsize16compare_exchange17hdd1e39c5d5afa098E(%"std::sync::atomic::AtomicUsize"* align 8 dereferenceable(8) %self, i64 %current, i64 %new, i8 %success, i8 %failure) unnamed_addr #0 !dbg !1047 {
start:
  %self.dbg.spill.i = alloca i64*, align 8
  %failure.dbg.spill = alloca i8, align 1
  %success.dbg.spill = alloca i8, align 1
  %new.dbg.spill = alloca i64, align 8
  %current.dbg.spill = alloca i64, align 8
  %self.dbg.spill = alloca %"std::sync::atomic::AtomicUsize"*, align 8
  store %"std::sync::atomic::AtomicUsize"* %self, %"std::sync::atomic::AtomicUsize"** %self.dbg.spill, align 8
  call void @llvm.dbg.declare(metadata %"std::sync::atomic::AtomicUsize"** %self.dbg.spill, metadata !1066, metadata !DIExpression()), !dbg !1071
  store i64 %current, i64* %current.dbg.spill, align 8
  call void @llvm.dbg.declare(metadata i64* %current.dbg.spill, metadata !1067, metadata !DIExpression()), !dbg !1072
  store i64 %new, i64* %new.dbg.spill, align 8
  call void @llvm.dbg.declare(metadata i64* %new.dbg.spill, metadata !1068, metadata !DIExpression()), !dbg !1073
  store i8 %success, i8* %success.dbg.spill, align 1
  call void @llvm.dbg.declare(metadata i8* %success.dbg.spill, metadata !1069, metadata !DIExpression()), !dbg !1074
  store i8 %failure, i8* %failure.dbg.spill, align 1
  call void @llvm.dbg.declare(metadata i8* %failure.dbg.spill, metadata !1070, metadata !DIExpression()), !dbg !1075
  %_7 = bitcast %"std::sync::atomic::AtomicUsize"* %self to i64*, !dbg !1076
  store i64* %_7, i64** %self.dbg.spill.i, align 8
  call void @llvm.dbg.declare(metadata i64** %self.dbg.spill.i, metadata !1077, metadata !DIExpression()), !dbg !1083
  br label %bb1, !dbg !1076

bb1:                                              ; preds = %start
; call core::sync::atomic::atomic_compare_exchange
  %0 = call { i64, i64 } @_ZN4core4sync6atomic23atomic_compare_exchange17h9308479155090cffE(i64* %_7, i64 %current, i64 %new, i8 %success, i8 %failure), !dbg !1085
  %1 = extractvalue { i64, i64 } %0, 0, !dbg !1085
  %2 = extractvalue { i64, i64 } %0, 1, !dbg !1085
  br label %bb2, !dbg !1085

bb2:                                              ; preds = %bb1
  %3 = insertvalue { i64, i64 } undef, i64 %1, 0, !dbg !1086
  %4 = insertvalue { i64, i64 } %3, i64 %2, 1, !dbg !1086
  ret { i64, i64 } %4, !dbg !1086
}

; core::sync::atomic::AtomicUsize::load
; Function Attrs: inlinehint nounwind
define internal i64 @_ZN4core4sync6atomic11AtomicUsize4load17h02e68b9519446368E(%"std::sync::atomic::AtomicUsize"* align 8 dereferenceable(8) %self, i8 %order) unnamed_addr #0 !dbg !1087 {
start:
  %self.dbg.spill.i = alloca i64*, align 8
  %order.dbg.spill = alloca i8, align 1
  %self.dbg.spill = alloca %"std::sync::atomic::AtomicUsize"*, align 8
  store %"std::sync::atomic::AtomicUsize"* %self, %"std::sync::atomic::AtomicUsize"** %self.dbg.spill, align 8
  call void @llvm.dbg.declare(metadata %"std::sync::atomic::AtomicUsize"** %self.dbg.spill, metadata !1091, metadata !DIExpression()), !dbg !1093
  store i8 %order, i8* %order.dbg.spill, align 1
  call void @llvm.dbg.declare(metadata i8* %order.dbg.spill, metadata !1092, metadata !DIExpression()), !dbg !1094
  %_5 = bitcast %"std::sync::atomic::AtomicUsize"* %self to i64*, !dbg !1095
  store i64* %_5, i64** %self.dbg.spill.i, align 8
  call void @llvm.dbg.declare(metadata i64** %self.dbg.spill.i, metadata !1077, metadata !DIExpression()), !dbg !1096
  br label %bb1, !dbg !1095

bb1:                                              ; preds = %start
; call core::sync::atomic::atomic_load
  %0 = call i64 @_ZN4core4sync6atomic11atomic_load17h70491bfae4801418E(i64* %_5, i8 %order), !dbg !1098
  br label %bb2, !dbg !1098

bb2:                                              ; preds = %bb1
  ret i64 %0, !dbg !1099
}

; core::sync::atomic::AtomicUsize::swap
; Function Attrs: inlinehint nounwind
define internal i64 @_ZN4core4sync6atomic11AtomicUsize4swap17h8052d8bf143097f7E(%"std::sync::atomic::AtomicUsize"* align 8 dereferenceable(8) %self, i64 %val, i8 %order) unnamed_addr #0 !dbg !1100 {
start:
  %self.dbg.spill.i = alloca i64*, align 8
  %order.dbg.spill = alloca i8, align 1
  %val.dbg.spill = alloca i64, align 8
  %self.dbg.spill = alloca %"std::sync::atomic::AtomicUsize"*, align 8
  store %"std::sync::atomic::AtomicUsize"* %self, %"std::sync::atomic::AtomicUsize"** %self.dbg.spill, align 8
  call void @llvm.dbg.declare(metadata %"std::sync::atomic::AtomicUsize"** %self.dbg.spill, metadata !1104, metadata !DIExpression()), !dbg !1107
  store i64 %val, i64* %val.dbg.spill, align 8
  call void @llvm.dbg.declare(metadata i64* %val.dbg.spill, metadata !1105, metadata !DIExpression()), !dbg !1108
  store i8 %order, i8* %order.dbg.spill, align 1
  call void @llvm.dbg.declare(metadata i8* %order.dbg.spill, metadata !1106, metadata !DIExpression()), !dbg !1109
  %_5 = bitcast %"std::sync::atomic::AtomicUsize"* %self to i64*, !dbg !1110
  store i64* %_5, i64** %self.dbg.spill.i, align 8
  call void @llvm.dbg.declare(metadata i64** %self.dbg.spill.i, metadata !1077, metadata !DIExpression()), !dbg !1111
  br label %bb1, !dbg !1110

bb1:                                              ; preds = %start
; call core::sync::atomic::atomic_swap
  %0 = call i64 @_ZN4core4sync6atomic11atomic_swap17h394db532b4cae8e5E(i64* %_5, i64 %val, i8 %order), !dbg !1113
  br label %bb2, !dbg !1113

bb2:                                              ; preds = %bb1
  ret i64 %0, !dbg !1114
}

; core::sync::atomic::AtomicUsize::fetch_sub
; Function Attrs: inlinehint nounwind
define internal i64 @_ZN4core4sync6atomic11AtomicUsize9fetch_sub17ha18a646234d3614dE(%"std::sync::atomic::AtomicUsize"* align 8 dereferenceable(8) %self, i64 %val, i8 %order) unnamed_addr #0 !dbg !1115 {
start:
  %self.dbg.spill.i = alloca i64*, align 8
  %order.dbg.spill = alloca i8, align 1
  %val.dbg.spill = alloca i64, align 8
  %self.dbg.spill = alloca %"std::sync::atomic::AtomicUsize"*, align 8
  store %"std::sync::atomic::AtomicUsize"* %self, %"std::sync::atomic::AtomicUsize"** %self.dbg.spill, align 8
  call void @llvm.dbg.declare(metadata %"std::sync::atomic::AtomicUsize"** %self.dbg.spill, metadata !1117, metadata !DIExpression()), !dbg !1120
  store i64 %val, i64* %val.dbg.spill, align 8
  call void @llvm.dbg.declare(metadata i64* %val.dbg.spill, metadata !1118, metadata !DIExpression()), !dbg !1121
  store i8 %order, i8* %order.dbg.spill, align 1
  call void @llvm.dbg.declare(metadata i8* %order.dbg.spill, metadata !1119, metadata !DIExpression()), !dbg !1122
  %_5 = bitcast %"std::sync::atomic::AtomicUsize"* %self to i64*, !dbg !1123
  store i64* %_5, i64** %self.dbg.spill.i, align 8
  call void @llvm.dbg.declare(metadata i64** %self.dbg.spill.i, metadata !1077, metadata !DIExpression()), !dbg !1124
  br label %bb1, !dbg !1123

bb1:                                              ; preds = %start
; call core::sync::atomic::atomic_sub
  %0 = call i64 @_ZN4core4sync6atomic10atomic_sub17h6166320e0ef6e9d1E(i64* %_5, i64 %val, i8 %order), !dbg !1126
  br label %bb2, !dbg !1126

bb2:                                              ; preds = %bb1
  ret i64 %0, !dbg !1127
}

; core::sync::atomic::atomic_load
; Function Attrs: inlinehint nounwind
define i64 @_ZN4core4sync6atomic11atomic_load17h70491bfae4801418E(i64* %dst, i8 %0) unnamed_addr #0 !dbg !1128 {
start:
  %dst.dbg.spill = alloca i64*, align 8
  %1 = alloca i64, align 8
  %order = alloca i8, align 1
  store i8 %0, i8* %order, align 1
  store i64* %dst, i64** %dst.dbg.spill, align 8
  call void @llvm.dbg.declare(metadata i64** %dst.dbg.spill, metadata !1133, metadata !DIExpression()), !dbg !1135
  call void @llvm.dbg.declare(metadata i8* %order, metadata !1134, metadata !DIExpression()), !dbg !1136
  %2 = load i8, i8* %order, align 1, !dbg !1137, !range !1034
  %_3 = zext i8 %2 to i64, !dbg !1137
  switch i64 %_3, label %bb2 [
    i64 0, label %bb5
    i64 1, label %bb9
    i64 2, label %bb3
    i64 3, label %bb1
    i64 4, label %bb7
  ], !dbg !1138

bb2:                                              ; preds = %start
  unreachable, !dbg !1137

bb5:                                              ; preds = %start
  %3 = load atomic i64, i64* %dst monotonic, align 8, !dbg !1139
  store i64 %3, i64* %1, align 8, !dbg !1139
  br label %bb6, !dbg !1139

bb9:                                              ; preds = %start
; call core::panicking::panic
  call void @_ZN4core9panicking5panic17h560e3e4b7752857aE([0 x i8]* nonnull align 1 bitcast (<{ [40 x i8] }>* @alloc177 to [0 x i8]*), i64 40, %"std::panic::Location"* align 8 dereferenceable(24) bitcast (<{ i8*, [16 x i8] }>* @alloc175 to %"std::panic::Location"*)), !dbg !1140
  unreachable, !dbg !1140

bb3:                                              ; preds = %start
  %4 = load atomic i64, i64* %dst acquire, align 8, !dbg !1141
  store i64 %4, i64* %1, align 8, !dbg !1141
  br label %bb4, !dbg !1141

bb1:                                              ; preds = %start
; call core::panicking::panic
  call void @_ZN4core9panicking5panic17h560e3e4b7752857aE([0 x i8]* nonnull align 1 bitcast (<{ [49 x i8] }>* @alloc176 to [0 x i8]*), i64 49, %"std::panic::Location"* align 8 dereferenceable(24) bitcast (<{ i8*, [16 x i8] }>* @alloc172 to %"std::panic::Location"*)), !dbg !1142
  unreachable, !dbg !1142

bb7:                                              ; preds = %start
  %5 = load atomic i64, i64* %dst seq_cst, align 8, !dbg !1143
  store i64 %5, i64* %1, align 8, !dbg !1143
  br label %bb8, !dbg !1143

bb8:                                              ; preds = %bb7
  br label %bb10, !dbg !1144

bb10:                                             ; preds = %bb6, %bb4, %bb8
  %6 = load i64, i64* %1, align 8, !dbg !1145
  ret i64 %6, !dbg !1145

bb4:                                              ; preds = %bb3
  br label %bb10, !dbg !1146

bb6:                                              ; preds = %bb5
  br label %bb10, !dbg !1147
}

; core::sync::atomic::atomic_load
; Function Attrs: inlinehint nounwind
define i8 @_ZN4core4sync6atomic11atomic_load17heae6f854b9cad31cE(i8* %dst, i8 %0) unnamed_addr #0 !dbg !1148 {
start:
  %dst.dbg.spill = alloca i8*, align 8
  %1 = alloca i8, align 1
  %order = alloca i8, align 1
  store i8 %0, i8* %order, align 1
  store i8* %dst, i8** %dst.dbg.spill, align 8
  call void @llvm.dbg.declare(metadata i8** %dst.dbg.spill, metadata !1152, metadata !DIExpression()), !dbg !1154
  call void @llvm.dbg.declare(metadata i8* %order, metadata !1153, metadata !DIExpression()), !dbg !1155
  %2 = load i8, i8* %order, align 1, !dbg !1156, !range !1034
  %_3 = zext i8 %2 to i64, !dbg !1156
  switch i64 %_3, label %bb2 [
    i64 0, label %bb5
    i64 1, label %bb9
    i64 2, label %bb3
    i64 3, label %bb1
    i64 4, label %bb7
  ], !dbg !1157

bb2:                                              ; preds = %start
  unreachable, !dbg !1156

bb5:                                              ; preds = %start
  %3 = load atomic i8, i8* %dst monotonic, align 1, !dbg !1158
  store i8 %3, i8* %1, align 1, !dbg !1158
  br label %bb6, !dbg !1158

bb9:                                              ; preds = %start
; call core::panicking::panic
  call void @_ZN4core9panicking5panic17h560e3e4b7752857aE([0 x i8]* nonnull align 1 bitcast (<{ [40 x i8] }>* @alloc177 to [0 x i8]*), i64 40, %"std::panic::Location"* align 8 dereferenceable(24) bitcast (<{ i8*, [16 x i8] }>* @alloc175 to %"std::panic::Location"*)), !dbg !1159
  unreachable, !dbg !1159

bb3:                                              ; preds = %start
  %4 = load atomic i8, i8* %dst acquire, align 1, !dbg !1160
  store i8 %4, i8* %1, align 1, !dbg !1160
  br label %bb4, !dbg !1160

bb1:                                              ; preds = %start
; call core::panicking::panic
  call void @_ZN4core9panicking5panic17h560e3e4b7752857aE([0 x i8]* nonnull align 1 bitcast (<{ [49 x i8] }>* @alloc176 to [0 x i8]*), i64 49, %"std::panic::Location"* align 8 dereferenceable(24) bitcast (<{ i8*, [16 x i8] }>* @alloc172 to %"std::panic::Location"*)), !dbg !1161
  unreachable, !dbg !1161

bb7:                                              ; preds = %start
  %5 = load atomic i8, i8* %dst seq_cst, align 1, !dbg !1162
  store i8 %5, i8* %1, align 1, !dbg !1162
  br label %bb8, !dbg !1162

bb8:                                              ; preds = %bb7
  br label %bb10, !dbg !1163

bb10:                                             ; preds = %bb6, %bb4, %bb8
  %6 = load i8, i8* %1, align 1, !dbg !1164
  ret i8 %6, !dbg !1164

bb4:                                              ; preds = %bb3
  br label %bb10, !dbg !1165

bb6:                                              ; preds = %bb5
  br label %bb10, !dbg !1166
}

; core::sync::atomic::atomic_swap
; Function Attrs: inlinehint nounwind
define i64 @_ZN4core4sync6atomic11atomic_swap17h394db532b4cae8e5E(i64* %dst, i64 %val, i8 %0) unnamed_addr #0 !dbg !1167 {
start:
  %val.dbg.spill = alloca i64, align 8
  %dst.dbg.spill = alloca i64*, align 8
  %1 = alloca i64, align 8
  %order = alloca i8, align 1
  store i8 %0, i8* %order, align 1
  store i64* %dst, i64** %dst.dbg.spill, align 8
  call void @llvm.dbg.declare(metadata i64** %dst.dbg.spill, metadata !1169, metadata !DIExpression()), !dbg !1172
  store i64 %val, i64* %val.dbg.spill, align 8
  call void @llvm.dbg.declare(metadata i64* %val.dbg.spill, metadata !1170, metadata !DIExpression()), !dbg !1173
  call void @llvm.dbg.declare(metadata i8* %order, metadata !1171, metadata !DIExpression()), !dbg !1174
  %2 = load i8, i8* %order, align 1, !dbg !1175, !range !1034
  %_4 = zext i8 %2 to i64, !dbg !1175
  switch i64 %_4, label %bb2 [
    i64 0, label %bb9
    i64 1, label %bb5
    i64 2, label %bb3
    i64 3, label %bb7
    i64 4, label %bb1
  ], !dbg !1176

bb2:                                              ; preds = %start
  unreachable, !dbg !1175

bb9:                                              ; preds = %start
  %3 = atomicrmw xchg i64* %dst, i64 %val monotonic, align 8, !dbg !1177
  store i64 %3, i64* %1, align 8, !dbg !1177
  br label %bb10, !dbg !1177

bb5:                                              ; preds = %start
  %4 = atomicrmw xchg i64* %dst, i64 %val release, align 8, !dbg !1178
  store i64 %4, i64* %1, align 8, !dbg !1178
  br label %bb6, !dbg !1178

bb3:                                              ; preds = %start
  %5 = atomicrmw xchg i64* %dst, i64 %val acquire, align 8, !dbg !1179
  store i64 %5, i64* %1, align 8, !dbg !1179
  br label %bb4, !dbg !1179

bb7:                                              ; preds = %start
  %6 = atomicrmw xchg i64* %dst, i64 %val acq_rel, align 8, !dbg !1180
  store i64 %6, i64* %1, align 8, !dbg !1180
  br label %bb8, !dbg !1180

bb1:                                              ; preds = %start
  %7 = atomicrmw xchg i64* %dst, i64 %val seq_cst, align 8, !dbg !1181
  store i64 %7, i64* %1, align 8, !dbg !1181
  br label %bb11, !dbg !1181

bb11:                                             ; preds = %bb1
  br label %bb12, !dbg !1182

bb12:                                             ; preds = %bb10, %bb6, %bb4, %bb8, %bb11
  %8 = load i64, i64* %1, align 8, !dbg !1183
  ret i64 %8, !dbg !1183

bb8:                                              ; preds = %bb7
  br label %bb12, !dbg !1184

bb4:                                              ; preds = %bb3
  br label %bb12, !dbg !1185

bb6:                                              ; preds = %bb5
  br label %bb12, !dbg !1186

bb10:                                             ; preds = %bb9
  br label %bb12, !dbg !1187
}

; core::sync::atomic::atomic_store
; Function Attrs: inlinehint nounwind
define void @_ZN4core4sync6atomic12atomic_store17h9e11bcaf7f421c08E(i8* %dst, i8 %val, i8 %0) unnamed_addr #0 !dbg !1188 {
start:
  %val.dbg.spill = alloca i8, align 1
  %dst.dbg.spill = alloca i8*, align 8
  %order = alloca i8, align 1
  store i8 %0, i8* %order, align 1
  store i8* %dst, i8** %dst.dbg.spill, align 8
  call void @llvm.dbg.declare(metadata i8** %dst.dbg.spill, metadata !1192, metadata !DIExpression()), !dbg !1195
  store i8 %val, i8* %val.dbg.spill, align 1
  call void @llvm.dbg.declare(metadata i8* %val.dbg.spill, metadata !1193, metadata !DIExpression()), !dbg !1196
  call void @llvm.dbg.declare(metadata i8* %order, metadata !1194, metadata !DIExpression()), !dbg !1197
  %1 = load i8, i8* %order, align 1, !dbg !1198, !range !1034
  %_4 = zext i8 %1 to i64, !dbg !1198
  switch i64 %_4, label %bb2 [
    i64 0, label %bb5
    i64 1, label %bb3
    i64 2, label %bb9
    i64 3, label %bb1
    i64 4, label %bb7
  ], !dbg !1199

bb2:                                              ; preds = %start
  unreachable, !dbg !1198

bb5:                                              ; preds = %start
  store atomic i8 %val, i8* %dst monotonic, align 1, !dbg !1200
  br label %bb6, !dbg !1200

bb3:                                              ; preds = %start
  store atomic i8 %val, i8* %dst release, align 1, !dbg !1201
  br label %bb4, !dbg !1201

bb9:                                              ; preds = %start
; call core::panicking::panic
  call void @_ZN4core9panicking5panic17h560e3e4b7752857aE([0 x i8]* nonnull align 1 bitcast (<{ [42 x i8] }>* @alloc181 to [0 x i8]*), i64 42, %"std::panic::Location"* align 8 dereferenceable(24) bitcast (<{ i8*, [16 x i8] }>* @alloc183 to %"std::panic::Location"*)), !dbg !1202
  unreachable, !dbg !1202

bb1:                                              ; preds = %start
; call core::panicking::panic
  call void @_ZN4core9panicking5panic17h560e3e4b7752857aE([0 x i8]* nonnull align 1 bitcast (<{ [50 x i8] }>* @alloc178 to [0 x i8]*), i64 50, %"std::panic::Location"* align 8 dereferenceable(24) bitcast (<{ i8*, [16 x i8] }>* @alloc180 to %"std::panic::Location"*)), !dbg !1203
  unreachable, !dbg !1203

bb7:                                              ; preds = %start
  store atomic i8 %val, i8* %dst seq_cst, align 1, !dbg !1204
  br label %bb8, !dbg !1204

bb8:                                              ; preds = %bb7
  br label %bb10, !dbg !1205

bb10:                                             ; preds = %bb6, %bb4, %bb8
  ret void, !dbg !1206

bb4:                                              ; preds = %bb3
  br label %bb10, !dbg !1207

bb6:                                              ; preds = %bb5
  br label %bb10, !dbg !1208
}

; core::sync::atomic::atomic_compare_exchange
; Function Attrs: inlinehint nounwind
define { i64, i64 } @_ZN4core4sync6atomic23atomic_compare_exchange17h9308479155090cffE(i64* %dst, i64 %old, i64 %new, i8 %success, i8 %failure) unnamed_addr #0 !dbg !1209 {
start:
  %ok.dbg.spill = alloca i8, align 1
  %val.dbg.spill = alloca i64, align 8
  %failure.dbg.spill = alloca i8, align 1
  %success.dbg.spill = alloca i8, align 1
  %new.dbg.spill = alloca i64, align 8
  %old.dbg.spill = alloca i64, align 8
  %dst.dbg.spill = alloca i64*, align 8
  %_9 = alloca { i8, i8 }, align 1
  %_8 = alloca { i64, i8 }, align 8
  %0 = alloca { i64, i64 }, align 8
  store i64* %dst, i64** %dst.dbg.spill, align 8
  call void @llvm.dbg.declare(metadata i64** %dst.dbg.spill, metadata !1213, metadata !DIExpression()), !dbg !1221
  store i64 %old, i64* %old.dbg.spill, align 8
  call void @llvm.dbg.declare(metadata i64* %old.dbg.spill, metadata !1214, metadata !DIExpression()), !dbg !1222
  store i64 %new, i64* %new.dbg.spill, align 8
  call void @llvm.dbg.declare(metadata i64* %new.dbg.spill, metadata !1215, metadata !DIExpression()), !dbg !1223
  store i8 %success, i8* %success.dbg.spill, align 1
  call void @llvm.dbg.declare(metadata i8* %success.dbg.spill, metadata !1216, metadata !DIExpression()), !dbg !1224
  store i8 %failure, i8* %failure.dbg.spill, align 1
  call void @llvm.dbg.declare(metadata i8* %failure.dbg.spill, metadata !1217, metadata !DIExpression()), !dbg !1225
  %1 = bitcast { i8, i8 }* %_9 to i8*, !dbg !1226
  store i8 %success, i8* %1, align 1, !dbg !1226
  %2 = getelementptr inbounds { i8, i8 }, { i8, i8 }* %_9, i32 0, i32 1, !dbg !1226
  store i8 %failure, i8* %2, align 1, !dbg !1226
  %3 = bitcast { i8, i8 }* %_9 to i8*, !dbg !1226
  %4 = load i8, i8* %3, align 1, !dbg !1226, !range !1034
  %_18 = zext i8 %4 to i64, !dbg !1226
  switch i64 %_18, label %bb2 [
    i64 0, label %bb1
    i64 1, label %bb3
    i64 2, label %bb4
    i64 3, label %bb5
    i64 4, label %bb6
  ], !dbg !1227

bb2:                                              ; preds = %bb1, %bb3, %bb4, %bb5, %bb6, %start
  %5 = getelementptr inbounds { i8, i8 }, { i8, i8 }* %_9, i32 0, i32 1, !dbg !1226
  %6 = load i8, i8* %5, align 1, !dbg !1226, !range !1034
  %_17 = zext i8 %6 to i64, !dbg !1226
  switch i64 %_17, label %bb7 [
    i64 1, label %bb27
    i64 3, label %bb26
  ], !dbg !1227

bb1:                                              ; preds = %start
  %7 = getelementptr inbounds { i8, i8 }, { i8, i8 }* %_9, i32 0, i32 1, !dbg !1226
  %8 = load i8, i8* %7, align 1, !dbg !1226, !range !1034
  %_12 = zext i8 %8 to i64, !dbg !1226
  %9 = icmp eq i64 %_12, 0, !dbg !1227
  br i1 %9, label %bb14, label %bb2, !dbg !1227

bb3:                                              ; preds = %start
  %10 = getelementptr inbounds { i8, i8 }, { i8, i8 }* %_9, i32 0, i32 1, !dbg !1226
  %11 = load i8, i8* %10, align 1, !dbg !1226, !range !1034
  %_13 = zext i8 %11 to i64, !dbg !1226
  %12 = icmp eq i64 %_13, 0, !dbg !1227
  br i1 %12, label %bb10, label %bb2, !dbg !1227

bb4:                                              ; preds = %start
  %13 = getelementptr inbounds { i8, i8 }, { i8, i8 }* %_9, i32 0, i32 1, !dbg !1226
  %14 = load i8, i8* %13, align 1, !dbg !1226, !range !1034
  %_14 = zext i8 %14 to i64, !dbg !1226
  switch i64 %_14, label %bb2 [
    i64 0, label %bb18
    i64 2, label %bb8
  ], !dbg !1227

bb5:                                              ; preds = %start
  %15 = getelementptr inbounds { i8, i8 }, { i8, i8 }* %_9, i32 0, i32 1, !dbg !1226
  %16 = load i8, i8* %15, align 1, !dbg !1226, !range !1034
  %_15 = zext i8 %16 to i64, !dbg !1226
  switch i64 %_15, label %bb2 [
    i64 0, label %bb20
    i64 2, label %bb12
  ], !dbg !1227

bb6:                                              ; preds = %start
  %17 = getelementptr inbounds { i8, i8 }, { i8, i8 }* %_9, i32 0, i32 1, !dbg !1226
  %18 = load i8, i8* %17, align 1, !dbg !1226, !range !1034
  %_16 = zext i8 %18 to i64, !dbg !1226
  switch i64 %_16, label %bb2 [
    i64 0, label %bb22
    i64 2, label %bb24
    i64 4, label %bb16
  ], !dbg !1227

bb22:                                             ; preds = %bb6
  %19 = cmpxchg i64* %dst, i64 %old, i64 %new seq_cst monotonic, align 8, !dbg !1228
  %20 = extractvalue { i64, i1 } %19, 0, !dbg !1228
  %21 = extractvalue { i64, i1 } %19, 1, !dbg !1228
  %22 = zext i1 %21 to i8, !dbg !1228
  %23 = bitcast { i64, i8 }* %_8 to i64*, !dbg !1228
  store i64 %20, i64* %23, align 8, !dbg !1228
  %24 = getelementptr inbounds { i64, i8 }, { i64, i8 }* %_8, i32 0, i32 1, !dbg !1228
  store i8 %22, i8* %24, align 8, !dbg !1228
  br label %bb23, !dbg !1228

bb24:                                             ; preds = %bb6
  %25 = cmpxchg i64* %dst, i64 %old, i64 %new seq_cst acquire, align 8, !dbg !1229
  %26 = extractvalue { i64, i1 } %25, 0, !dbg !1229
  %27 = extractvalue { i64, i1 } %25, 1, !dbg !1229
  %28 = zext i1 %27 to i8, !dbg !1229
  %29 = bitcast { i64, i8 }* %_8 to i64*, !dbg !1229
  store i64 %26, i64* %29, align 8, !dbg !1229
  %30 = getelementptr inbounds { i64, i8 }, { i64, i8 }* %_8, i32 0, i32 1, !dbg !1229
  store i8 %28, i8* %30, align 8, !dbg !1229
  br label %bb25, !dbg !1229

bb16:                                             ; preds = %bb6
  %31 = cmpxchg i64* %dst, i64 %old, i64 %new seq_cst seq_cst, align 8, !dbg !1230
  %32 = extractvalue { i64, i1 } %31, 0, !dbg !1230
  %33 = extractvalue { i64, i1 } %31, 1, !dbg !1230
  %34 = zext i1 %33 to i8, !dbg !1230
  %35 = bitcast { i64, i8 }* %_8 to i64*, !dbg !1230
  store i64 %32, i64* %35, align 8, !dbg !1230
  %36 = getelementptr inbounds { i64, i8 }, { i64, i8 }* %_8, i32 0, i32 1, !dbg !1230
  store i8 %34, i8* %36, align 8, !dbg !1230
  br label %bb17, !dbg !1230

bb17:                                             ; preds = %bb16
  br label %bb28, !dbg !1231

bb28:                                             ; preds = %bb15, %bb11, %bb19, %bb9, %bb21, %bb13, %bb23, %bb25, %bb17
  %37 = bitcast { i64, i8 }* %_8 to i64*, !dbg !1232
  %val = load i64, i64* %37, align 8, !dbg !1232
  store i64 %val, i64* %val.dbg.spill, align 8, !dbg !1232
  call void @llvm.dbg.declare(metadata i64* %val.dbg.spill, metadata !1218, metadata !DIExpression()), !dbg !1233
  %38 = getelementptr inbounds { i64, i8 }, { i64, i8 }* %_8, i32 0, i32 1, !dbg !1234
  %39 = load i8, i8* %38, align 8, !dbg !1234, !range !324
  %ok = trunc i8 %39 to i1, !dbg !1234
  %40 = zext i1 %ok to i8, !dbg !1234
  store i8 %40, i8* %ok.dbg.spill, align 1, !dbg !1234
  call void @llvm.dbg.declare(metadata i8* %ok.dbg.spill, metadata !1220, metadata !DIExpression()), !dbg !1235
  br i1 %ok, label %bb29, label %bb30, !dbg !1236

bb25:                                             ; preds = %bb24
  br label %bb28, !dbg !1237

bb23:                                             ; preds = %bb22
  br label %bb28, !dbg !1238

bb20:                                             ; preds = %bb5
  %41 = cmpxchg i64* %dst, i64 %old, i64 %new acq_rel monotonic, align 8, !dbg !1239
  %42 = extractvalue { i64, i1 } %41, 0, !dbg !1239
  %43 = extractvalue { i64, i1 } %41, 1, !dbg !1239
  %44 = zext i1 %43 to i8, !dbg !1239
  %45 = bitcast { i64, i8 }* %_8 to i64*, !dbg !1239
  store i64 %42, i64* %45, align 8, !dbg !1239
  %46 = getelementptr inbounds { i64, i8 }, { i64, i8 }* %_8, i32 0, i32 1, !dbg !1239
  store i8 %44, i8* %46, align 8, !dbg !1239
  br label %bb21, !dbg !1239

bb12:                                             ; preds = %bb5
  %47 = cmpxchg i64* %dst, i64 %old, i64 %new acq_rel acquire, align 8, !dbg !1240
  %48 = extractvalue { i64, i1 } %47, 0, !dbg !1240
  %49 = extractvalue { i64, i1 } %47, 1, !dbg !1240
  %50 = zext i1 %49 to i8, !dbg !1240
  %51 = bitcast { i64, i8 }* %_8 to i64*, !dbg !1240
  store i64 %48, i64* %51, align 8, !dbg !1240
  %52 = getelementptr inbounds { i64, i8 }, { i64, i8 }* %_8, i32 0, i32 1, !dbg !1240
  store i8 %50, i8* %52, align 8, !dbg !1240
  br label %bb13, !dbg !1240

bb13:                                             ; preds = %bb12
  br label %bb28, !dbg !1241

bb21:                                             ; preds = %bb20
  br label %bb28, !dbg !1242

bb18:                                             ; preds = %bb4
  %53 = cmpxchg i64* %dst, i64 %old, i64 %new acquire monotonic, align 8, !dbg !1243
  %54 = extractvalue { i64, i1 } %53, 0, !dbg !1243
  %55 = extractvalue { i64, i1 } %53, 1, !dbg !1243
  %56 = zext i1 %55 to i8, !dbg !1243
  %57 = bitcast { i64, i8 }* %_8 to i64*, !dbg !1243
  store i64 %54, i64* %57, align 8, !dbg !1243
  %58 = getelementptr inbounds { i64, i8 }, { i64, i8 }* %_8, i32 0, i32 1, !dbg !1243
  store i8 %56, i8* %58, align 8, !dbg !1243
  br label %bb19, !dbg !1243

bb8:                                              ; preds = %bb4
  %59 = cmpxchg i64* %dst, i64 %old, i64 %new acquire acquire, align 8, !dbg !1244
  %60 = extractvalue { i64, i1 } %59, 0, !dbg !1244
  %61 = extractvalue { i64, i1 } %59, 1, !dbg !1244
  %62 = zext i1 %61 to i8, !dbg !1244
  %63 = bitcast { i64, i8 }* %_8 to i64*, !dbg !1244
  store i64 %60, i64* %63, align 8, !dbg !1244
  %64 = getelementptr inbounds { i64, i8 }, { i64, i8 }* %_8, i32 0, i32 1, !dbg !1244
  store i8 %62, i8* %64, align 8, !dbg !1244
  br label %bb9, !dbg !1244

bb9:                                              ; preds = %bb8
  br label %bb28, !dbg !1245

bb19:                                             ; preds = %bb18
  br label %bb28, !dbg !1246

bb10:                                             ; preds = %bb3
  %65 = cmpxchg i64* %dst, i64 %old, i64 %new release monotonic, align 8, !dbg !1247
  %66 = extractvalue { i64, i1 } %65, 0, !dbg !1247
  %67 = extractvalue { i64, i1 } %65, 1, !dbg !1247
  %68 = zext i1 %67 to i8, !dbg !1247
  %69 = bitcast { i64, i8 }* %_8 to i64*, !dbg !1247
  store i64 %66, i64* %69, align 8, !dbg !1247
  %70 = getelementptr inbounds { i64, i8 }, { i64, i8 }* %_8, i32 0, i32 1, !dbg !1247
  store i8 %68, i8* %70, align 8, !dbg !1247
  br label %bb11, !dbg !1247

bb11:                                             ; preds = %bb10
  br label %bb28, !dbg !1248

bb14:                                             ; preds = %bb1
  %71 = cmpxchg i64* %dst, i64 %old, i64 %new monotonic monotonic, align 8, !dbg !1249
  %72 = extractvalue { i64, i1 } %71, 0, !dbg !1249
  %73 = extractvalue { i64, i1 } %71, 1, !dbg !1249
  %74 = zext i1 %73 to i8, !dbg !1249
  %75 = bitcast { i64, i8 }* %_8 to i64*, !dbg !1249
  store i64 %72, i64* %75, align 8, !dbg !1249
  %76 = getelementptr inbounds { i64, i8 }, { i64, i8 }* %_8, i32 0, i32 1, !dbg !1249
  store i8 %74, i8* %76, align 8, !dbg !1249
  br label %bb15, !dbg !1249

bb7:                                              ; preds = %bb2
; call core::panicking::panic
  call void @_ZN4core9panicking5panic17h560e3e4b7752857aE([0 x i8]* nonnull align 1 bitcast (<{ [60 x i8] }>* @alloc184 to [0 x i8]*), i64 60, %"std::panic::Location"* align 8 dereferenceable(24) bitcast (<{ i8*, [16 x i8] }>* @alloc186 to %"std::panic::Location"*)), !dbg !1250
  unreachable, !dbg !1250

bb27:                                             ; preds = %bb2
; call core::panicking::panic
  call void @_ZN4core9panicking5panic17h560e3e4b7752857aE([0 x i8]* nonnull align 1 bitcast (<{ [52 x i8] }>* @alloc190 to [0 x i8]*), i64 52, %"std::panic::Location"* align 8 dereferenceable(24) bitcast (<{ i8*, [16 x i8] }>* @alloc192 to %"std::panic::Location"*)), !dbg !1251
  unreachable, !dbg !1251

bb26:                                             ; preds = %bb2
; call core::panicking::panic
  call void @_ZN4core9panicking5panic17h560e3e4b7752857aE([0 x i8]* nonnull align 1 bitcast (<{ [61 x i8] }>* @alloc187 to [0 x i8]*), i64 61, %"std::panic::Location"* align 8 dereferenceable(24) bitcast (<{ i8*, [16 x i8] }>* @alloc189 to %"std::panic::Location"*)), !dbg !1252
  unreachable, !dbg !1252

bb15:                                             ; preds = %bb14
  br label %bb28, !dbg !1253

bb30:                                             ; preds = %bb28
  %77 = bitcast { i64, i64 }* %0 to %"std::result::Result<usize, usize>::Err"*, !dbg !1254
  %78 = getelementptr inbounds %"std::result::Result<usize, usize>::Err", %"std::result::Result<usize, usize>::Err"* %77, i32 0, i32 1, !dbg !1254
  store i64 %val, i64* %78, align 8, !dbg !1254
  %79 = bitcast { i64, i64 }* %0 to i64*, !dbg !1254
  store i64 1, i64* %79, align 8, !dbg !1254
  br label %bb31, !dbg !1255

bb29:                                             ; preds = %bb28
  %80 = bitcast { i64, i64 }* %0 to %"std::result::Result<usize, usize>::Ok"*, !dbg !1256
  %81 = getelementptr inbounds %"std::result::Result<usize, usize>::Ok", %"std::result::Result<usize, usize>::Ok"* %80, i32 0, i32 1, !dbg !1256
  store i64 %val, i64* %81, align 8, !dbg !1256
  %82 = bitcast { i64, i64 }* %0 to i64*, !dbg !1256
  store i64 0, i64* %82, align 8, !dbg !1256
  br label %bb31, !dbg !1255

bb31:                                             ; preds = %bb30, %bb29
  %83 = getelementptr inbounds { i64, i64 }, { i64, i64 }* %0, i32 0, i32 0, !dbg !1257
  %84 = load i64, i64* %83, align 8, !dbg !1257, !range !1258
  %85 = getelementptr inbounds { i64, i64 }, { i64, i64 }* %0, i32 0, i32 1, !dbg !1257
  %86 = load i64, i64* %85, align 8, !dbg !1257
  %87 = insertvalue { i64, i64 } undef, i64 %84, 0, !dbg !1257
  %88 = insertvalue { i64, i64 } %87, i64 %86, 1, !dbg !1257
  ret { i64, i64 } %88, !dbg !1257
}

; core::sync::atomic::fence
; Function Attrs: inlinehint nounwind
define internal void @_ZN4core4sync6atomic5fence17hc00699a071f77af2E(i8 %0) unnamed_addr #0 !dbg !1259 {
start:
  %order = alloca i8, align 1
  store i8 %0, i8* %order, align 1
  call void @llvm.dbg.declare(metadata i8* %order, metadata !1263, metadata !DIExpression()), !dbg !1264
  %1 = load i8, i8* %order, align 1, !dbg !1265, !range !1034
  %_2 = zext i8 %1 to i64, !dbg !1265
  switch i64 %_2, label %bb2 [
    i64 0, label %bb1
    i64 1, label %bb4
    i64 2, label %bb3
    i64 3, label %bb5
    i64 4, label %bb6
  ], !dbg !1266

bb2:                                              ; preds = %start
  unreachable, !dbg !1265

bb1:                                              ; preds = %start
; call core::panicking::panic
  call void @_ZN4core9panicking5panic17h560e3e4b7752857aE([0 x i8]* nonnull align 1 bitcast (<{ [41 x i8] }>* @alloc193 to [0 x i8]*), i64 41, %"std::panic::Location"* align 8 dereferenceable(24) bitcast (<{ i8*, [16 x i8] }>* @alloc195 to %"std::panic::Location"*)), !dbg !1267
  unreachable, !dbg !1267

bb4:                                              ; preds = %start
  fence release, !dbg !1268
  br label %bb7, !dbg !1268

bb3:                                              ; preds = %start
  fence acquire, !dbg !1269
  br label %bb7, !dbg !1269

bb5:                                              ; preds = %start
  fence acq_rel, !dbg !1270
  br label %bb7, !dbg !1270

bb6:                                              ; preds = %start
  fence seq_cst, !dbg !1271
  br label %bb7, !dbg !1271

bb7:                                              ; preds = %bb4, %bb3, %bb5, %bb6
  ret void, !dbg !1272
}

; core::alloc::layout::Layout::for_value_raw
; Function Attrs: nounwind
define { i64, i64 } @_ZN4core5alloc6layout6Layout13for_value_raw17hebbd0cbd6a977118E(%"alloc::sync::ArcInner<std::thread::Inner>"* %t) unnamed_addr #1 !dbg !1273 {
start:
  %align.dbg.spill = alloca i64, align 8
  %size.dbg.spill = alloca i64, align 8
  %t.dbg.spill = alloca %"alloc::sync::ArcInner<std::thread::Inner>"*, align 8
  %_4 = alloca { i64, i64 }, align 8
  store %"alloc::sync::ArcInner<std::thread::Inner>"* %t, %"alloc::sync::ArcInner<std::thread::Inner>"** %t.dbg.spill, align 8
  call void @llvm.dbg.declare(metadata %"alloc::sync::ArcInner<std::thread::Inner>"** %t.dbg.spill, metadata !1284, metadata !DIExpression()), !dbg !1288
; call core::mem::size_of_val_raw
  %_5 = call i64 @_ZN4core3mem15size_of_val_raw17h33a9c41a9aac47b9E(%"alloc::sync::ArcInner<std::thread::Inner>"* %t), !dbg !1289
  br label %bb1, !dbg !1289

bb1:                                              ; preds = %start
; call core::mem::align_of_val_raw
  %_7 = call i64 @_ZN4core3mem16align_of_val_raw17hea74d128fd138d54E(%"alloc::sync::ArcInner<std::thread::Inner>"* %t), !dbg !1290
  br label %bb2, !dbg !1290

bb2:                                              ; preds = %bb1
  %0 = bitcast { i64, i64 }* %_4 to i64*, !dbg !1291
  store i64 %_5, i64* %0, align 8, !dbg !1291
  %1 = getelementptr inbounds { i64, i64 }, { i64, i64 }* %_4, i32 0, i32 1, !dbg !1291
  store i64 %_7, i64* %1, align 8, !dbg !1291
  %2 = bitcast { i64, i64 }* %_4 to i64*, !dbg !1292
  %size = load i64, i64* %2, align 8, !dbg !1292
  store i64 %size, i64* %size.dbg.spill, align 8, !dbg !1292
  call void @llvm.dbg.declare(metadata i64* %size.dbg.spill, metadata !1285, metadata !DIExpression()), !dbg !1293
  %3 = getelementptr inbounds { i64, i64 }, { i64, i64 }* %_4, i32 0, i32 1, !dbg !1294
  %align = load i64, i64* %3, align 8, !dbg !1294
  store i64 %align, i64* %align.dbg.spill, align 8, !dbg !1294
  call void @llvm.dbg.declare(metadata i64* %align.dbg.spill, metadata !1287, metadata !DIExpression()), !dbg !1295
; call core::alloc::layout::Layout::from_size_align_unchecked
  %4 = call { i64, i64 } @_ZN4core5alloc6layout6Layout25from_size_align_unchecked17he4138ce81b342133E(i64 %size, i64 %align), !dbg !1296
  %5 = extractvalue { i64, i64 } %4, 0, !dbg !1296
  %6 = extractvalue { i64, i64 } %4, 1, !dbg !1296
  br label %bb3, !dbg !1296

bb3:                                              ; preds = %bb2
  %7 = insertvalue { i64, i64 } undef, i64 %5, 0, !dbg !1297
  %8 = insertvalue { i64, i64 } %7, i64 %6, 1, !dbg !1297
  ret { i64, i64 } %8, !dbg !1297
}

; core::alloc::layout::Layout::from_size_align_unchecked
; Function Attrs: inlinehint nounwind
define internal { i64, i64 } @_ZN4core5alloc6layout6Layout25from_size_align_unchecked17he4138ce81b342133E(i64 %size, i64 %align) unnamed_addr #0 !dbg !1298 {
start:
  %align.dbg.spill = alloca i64, align 8
  %size.dbg.spill = alloca i64, align 8
  %0 = alloca { i64, i64 }, align 8
  store i64 %size, i64* %size.dbg.spill, align 8
  call void @llvm.dbg.declare(metadata i64* %size.dbg.spill, metadata !1302, metadata !DIExpression()), !dbg !1304
  store i64 %align, i64* %align.dbg.spill, align 8
  call void @llvm.dbg.declare(metadata i64* %align.dbg.spill, metadata !1303, metadata !DIExpression()), !dbg !1305
; call core::num::nonzero::NonZeroUsize::new_unchecked
  %_4 = call i64 @_ZN4core3num7nonzero12NonZeroUsize13new_unchecked17hce34eacfec0562abE(i64 %align), !dbg !1306, !range !398
  br label %bb1, !dbg !1306

bb1:                                              ; preds = %start
  %1 = bitcast { i64, i64 }* %0 to i64*, !dbg !1307
  store i64 %size, i64* %1, align 8, !dbg !1307
  %2 = getelementptr inbounds { i64, i64 }, { i64, i64 }* %0, i32 0, i32 1, !dbg !1307
  store i64 %_4, i64* %2, align 8, !dbg !1307
  %3 = getelementptr inbounds { i64, i64 }, { i64, i64 }* %0, i32 0, i32 0, !dbg !1308
  %4 = load i64, i64* %3, align 8, !dbg !1308
  %5 = getelementptr inbounds { i64, i64 }, { i64, i64 }* %0, i32 0, i32 1, !dbg !1308
  %6 = load i64, i64* %5, align 8, !dbg !1308, !range !398
  %7 = insertvalue { i64, i64 } undef, i64 %4, 0, !dbg !1308
  %8 = insertvalue { i64, i64 } %7, i64 %6, 1, !dbg !1308
  ret { i64, i64 } %8, !dbg !1308
}

; core::alloc::layout::Layout::size
; Function Attrs: inlinehint nounwind
define internal i64 @_ZN4core5alloc6layout6Layout4size17hca946836db7937adE({ i64, i64 }* align 8 dereferenceable(16) %self) unnamed_addr #0 !dbg !1309 {
start:
  %self.dbg.spill = alloca { i64, i64 }*, align 8
  store { i64, i64 }* %self, { i64, i64 }** %self.dbg.spill, align 8
  call void @llvm.dbg.declare(metadata { i64, i64 }** %self.dbg.spill, metadata !1314, metadata !DIExpression()), !dbg !1315
  %0 = bitcast { i64, i64 }* %self to i64*, !dbg !1316
  %1 = load i64, i64* %0, align 8, !dbg !1316
  ret i64 %1, !dbg !1317
}

; core::alloc::layout::Layout::align
; Function Attrs: inlinehint nounwind
define internal i64 @_ZN4core5alloc6layout6Layout5align17ha0bc2206b26cef89E({ i64, i64 }* align 8 dereferenceable(16) %self) unnamed_addr #0 !dbg !1318 {
start:
  %self.dbg.spill = alloca { i64, i64 }*, align 8
  store { i64, i64 }* %self, { i64, i64 }** %self.dbg.spill, align 8
  call void @llvm.dbg.declare(metadata { i64, i64 }** %self.dbg.spill, metadata !1320, metadata !DIExpression()), !dbg !1321
  %0 = getelementptr inbounds { i64, i64 }, { i64, i64 }* %self, i32 0, i32 1, !dbg !1322
  %_2 = load i64, i64* %0, align 8, !dbg !1322, !range !398
; call core::num::nonzero::NonZeroUsize::get
  %1 = call i64 @_ZN4core3num7nonzero12NonZeroUsize3get17h25b2c6c077f320b9E(i64 %_2), !dbg !1322
  br label %bb1, !dbg !1322

bb1:                                              ; preds = %start
  ret i64 %1, !dbg !1323
}

; core::slice::<impl [T]>::get_unchecked_mut
; Function Attrs: inlinehint nounwind
define align 1 dereferenceable(1) i8* @"_ZN4core5slice29_$LT$impl$u20$$u5b$T$u5d$$GT$17get_unchecked_mut17h3b145b426f022a98E"([0 x i8]* nonnull align 1 %self.0, i64 %self.1, i64 %index) unnamed_addr #0 !dbg !1324 {
start:
  %index.dbg.spill = alloca i64, align 8
  %self.dbg.spill = alloca { [0 x i8]*, i64 }, align 8
  %0 = getelementptr inbounds { [0 x i8]*, i64 }, { [0 x i8]*, i64 }* %self.dbg.spill, i32 0, i32 0
  store [0 x i8]* %self.0, [0 x i8]** %0, align 8
  %1 = getelementptr inbounds { [0 x i8]*, i64 }, { [0 x i8]*, i64 }* %self.dbg.spill, i32 0, i32 1
  store i64 %self.1, i64* %1, align 8
  call void @llvm.dbg.declare(metadata { [0 x i8]*, i64 }* %self.dbg.spill, metadata !1336, metadata !DIExpression()), !dbg !1340
  store i64 %index, i64* %index.dbg.spill, align 8
  call void @llvm.dbg.declare(metadata i64* %index.dbg.spill, metadata !1337, metadata !DIExpression()), !dbg !1341
; call <usize as core::slice::index::SliceIndex<[T]>>::get_unchecked_mut
  %_6 = call i8* @"_ZN75_$LT$usize$u20$as$u20$core..slice..index..SliceIndex$LT$$u5b$T$u5d$$GT$$GT$17get_unchecked_mut17h71b19abaaf6f1548E"(i64 %index, [0 x i8]* %self.0, i64 %self.1), !dbg !1342
  br label %bb1, !dbg !1342

bb1:                                              ; preds = %start
  ret i8* %_6, !dbg !1343
}

; core::option::Option<T>::unwrap
; Function Attrs: inlinehint nounwind
define nonnull i64* @"_ZN4core6option15Option$LT$T$GT$6unwrap17h9414da90a08cbbe6E"(i64* %0, %"std::panic::Location"* align 8 dereferenceable(24) %1) unnamed_addr #0 !dbg !1344 {
start:
  %val.dbg.spill = alloca i64*, align 8
  %self = alloca i64*, align 8
  store i64* %0, i64** %self, align 8
  call void @llvm.dbg.declare(metadata i64** %self, metadata !1349, metadata !DIExpression()), !dbg !1352
  %2 = bitcast i64** %self to {}**, !dbg !1353
  %3 = load {}*, {}** %2, align 8, !dbg !1353
  %4 = icmp eq {}* %3, null, !dbg !1353
  %_2 = select i1 %4, i64 0, i64 1, !dbg !1353
  switch i64 %_2, label %bb2 [
    i64 0, label %bb1
    i64 1, label %bb3
  ], !dbg !1354

bb2:                                              ; preds = %start
  unreachable, !dbg !1353

bb1:                                              ; preds = %start
; call core::panicking::panic
  call void @_ZN4core9panicking5panic17h560e3e4b7752857aE([0 x i8]* nonnull align 1 bitcast (<{ [43 x i8] }>* @alloc196 to [0 x i8]*), i64 43, %"std::panic::Location"* align 8 dereferenceable(24) %1), !dbg !1355
  unreachable, !dbg !1355

bb3:                                              ; preds = %start
  %val = load i64*, i64** %self, align 8, !dbg !1356, !nonnull !4
  store i64* %val, i64** %val.dbg.spill, align 8, !dbg !1356
  call void @llvm.dbg.declare(metadata i64** %val.dbg.spill, metadata !1350, metadata !DIExpression()), !dbg !1357
  ret i64* %val, !dbg !1358
}

; core::panicking::assert_failed
; Function Attrs: cold noreturn nounwind
define void @_ZN4core9panicking13assert_failed17hd134dd65848ef886E(i8 %kind, i64* align 8 dereferenceable(8) %0, i64* align 8 dereferenceable(8) %1, %"std::option::Option<std::fmt::Arguments>"* noalias nocapture dereferenceable(48) %args, %"std::panic::Location"* align 8 dereferenceable(24) %2) unnamed_addr #2 !dbg !1359 {
start:
  %kind.dbg.spill = alloca i8, align 1
  %_12 = alloca %"std::option::Option<std::fmt::Arguments>", align 8
  %right = alloca i64*, align 8
  %left = alloca i64*, align 8
  store i64* %0, i64** %left, align 8
  store i64* %1, i64** %right, align 8
  store i8 %kind, i8* %kind.dbg.spill, align 1
  call void @llvm.dbg.declare(metadata i8* %kind.dbg.spill, metadata !1443, metadata !DIExpression()), !dbg !1449
  call void @llvm.dbg.declare(metadata i64** %left, metadata !1444, metadata !DIExpression()), !dbg !1450
  call void @llvm.dbg.declare(metadata i64** %right, metadata !1445, metadata !DIExpression()), !dbg !1451
  call void @llvm.dbg.declare(metadata %"std::option::Option<std::fmt::Arguments>"* %args, metadata !1446, metadata !DIExpression()), !dbg !1452
  %_6.0 = bitcast i64** %left to {}*, !dbg !1453
  %_9.0 = bitcast i64** %right to {}*, !dbg !1454
  %3 = bitcast %"std::option::Option<std::fmt::Arguments>"* %_12 to i8*, !dbg !1455
  %4 = bitcast %"std::option::Option<std::fmt::Arguments>"* %args to i8*, !dbg !1455
  call void @llvm.memcpy.p0i8.p0i8.i64(i8* align 8 %3, i8* align 8 %4, i64 48, i1 false), !dbg !1455
; call core::panicking::assert_failed_inner
  call void @_ZN4core9panicking19assert_failed_inner17hb980cfe34185be0eE(i8 %kind, {}* nonnull align 1 %_6.0, [3 x i64]* align 8 dereferenceable(24) bitcast (<{ i8*, [16 x i8], i8*, [0 x i8] }>* @vtable.0 to [3 x i64]*), {}* nonnull align 1 %_9.0, [3 x i64]* align 8 dereferenceable(24) bitcast (<{ i8*, [16 x i8], i8*, [0 x i8] }>* @vtable.0 to [3 x i64]*), %"std::option::Option<std::fmt::Arguments>"* noalias nocapture dereferenceable(48) %_12, %"std::panic::Location"* align 8 dereferenceable(24) %2), !dbg !1456
  unreachable, !dbg !1456
}

; <T as core::convert::Into<U>>::into
; Function Attrs: nounwind
define nonnull i8* @"_ZN50_$LT$T$u20$as$u20$core..convert..Into$LT$U$GT$$GT$4into17hc54be3bfe881c6aeE"(i8* nonnull %self) unnamed_addr #1 !dbg !1457 {
start:
  %self.dbg.spill = alloca i8*, align 8
  store i8* %self, i8** %self.dbg.spill, align 8
  call void @llvm.dbg.declare(metadata i8** %self.dbg.spill, metadata !1462, metadata !DIExpression()), !dbg !1466
; call <core::ptr::non_null::NonNull<T> as core::convert::From<core::ptr::unique::Unique<T>>>::from
  %0 = call nonnull i8* @"_ZN119_$LT$core..ptr..non_null..NonNull$LT$T$GT$$u20$as$u20$core..convert..From$LT$core..ptr..unique..Unique$LT$T$GT$$GT$$GT$4from17h4e53aa90cdddc93dE"(i8* nonnull %self), !dbg !1467
  br label %bb1, !dbg !1467

bb1:                                              ; preds = %start
  ret i8* %0, !dbg !1468
}

; alloc::rc::is_dangling
; Function Attrs: nounwind
define zeroext i1 @_ZN5alloc2rc11is_dangling17h14c41ecd45279010E(%"alloc::sync::ArcInner<std::thread::Inner>"* %ptr) unnamed_addr #1 !dbg !1469 {
start:
  %address.dbg.spill = alloca i64, align 8
  %ptr.dbg.spill = alloca %"alloc::sync::ArcInner<std::thread::Inner>"*, align 8
  store %"alloc::sync::ArcInner<std::thread::Inner>"* %ptr, %"alloc::sync::ArcInner<std::thread::Inner>"** %ptr.dbg.spill, align 8
  call void @llvm.dbg.declare(metadata %"alloc::sync::ArcInner<std::thread::Inner>"** %ptr.dbg.spill, metadata !1475, metadata !DIExpression()), !dbg !1478
  %_3 = bitcast %"alloc::sync::ArcInner<std::thread::Inner>"* %ptr to {}*, !dbg !1479
  %address = ptrtoint {}* %_3 to i64, !dbg !1479
  store i64 %address, i64* %address.dbg.spill, align 8, !dbg !1479
  call void @llvm.dbg.declare(metadata i64* %address.dbg.spill, metadata !1476, metadata !DIExpression()), !dbg !1480
  %0 = icmp eq i64 %address, -1, !dbg !1481
  ret i1 %0, !dbg !1482
}

; alloc::sync::Arc<T>::get_mut_unchecked
; Function Attrs: inlinehint nounwind
define align 8 dereferenceable(64) %"std::thread::Inner"* @"_ZN5alloc4sync12Arc$LT$T$GT$17get_mut_unchecked17h4749c20807756ab3E"(i64** align 8 dereferenceable(8) %this) unnamed_addr #0 !dbg !1483 {
start:
  %this.dbg.spill = alloca i64**, align 8
  store i64** %this, i64*** %this.dbg.spill, align 8
  call void @llvm.dbg.declare(metadata i64*** %this.dbg.spill, metadata !1490, metadata !DIExpression()), !dbg !1491
  %_6 = load i64*, i64** %this, align 8, !dbg !1492, !nonnull !4
; call core::ptr::non_null::NonNull<T>::as_ptr
  %_5 = call %"alloc::sync::ArcInner<std::thread::Inner>"* @"_ZN4core3ptr8non_null16NonNull$LT$T$GT$6as_ptr17h2430046c2ff505c1E"(i64* nonnull %_6), !dbg !1492
  br label %bb1, !dbg !1492

bb1:                                              ; preds = %start
  %_4 = getelementptr inbounds %"alloc::sync::ArcInner<std::thread::Inner>", %"alloc::sync::ArcInner<std::thread::Inner>"* %_5, i32 0, i32 2, !dbg !1493
  ret %"std::thread::Inner"* %_4, !dbg !1494
}

; alloc::sync::Arc<T>::inner
; Function Attrs: inlinehint nounwind
define align 8 dereferenceable(80) %"alloc::sync::ArcInner<std::thread::Inner>"* @"_ZN5alloc4sync12Arc$LT$T$GT$5inner17hb75aac1d05a2578eE"(i64** align 8 dereferenceable(8) %self) unnamed_addr #0 !dbg !1495 {
start:
  %self.dbg.spill = alloca i64**, align 8
  store i64** %self, i64*** %self.dbg.spill, align 8
  call void @llvm.dbg.declare(metadata i64*** %self.dbg.spill, metadata !1500, metadata !DIExpression()), !dbg !1501
; call core::ptr::non_null::NonNull<T>::as_ref
  %0 = call align 8 dereferenceable(80) %"alloc::sync::ArcInner<std::thread::Inner>"* @"_ZN4core3ptr8non_null16NonNull$LT$T$GT$6as_ref17h53b014798c358dc4E"(i64** align 8 dereferenceable(8) %self), !dbg !1502
  br label %bb1, !dbg !1502

bb1:                                              ; preds = %start
  ret %"alloc::sync::ArcInner<std::thread::Inner>"* %0, !dbg !1503
}

; alloc::sync::Arc<T>::drop_slow
; Function Attrs: noinline nounwind
define void @"_ZN5alloc4sync12Arc$LT$T$GT$9drop_slow17he1850bedb086144fE"(i64** align 8 dereferenceable(8) %self) unnamed_addr #3 !dbg !1504 {
start:
  %self.dbg.spill = alloca i64**, align 8
  %_7 = alloca i64*, align 8
  store i64** %self, i64*** %self.dbg.spill, align 8
  call void @llvm.dbg.declare(metadata i64*** %self.dbg.spill, metadata !1508, metadata !DIExpression()), !dbg !1509
; call alloc::sync::Arc<T>::get_mut_unchecked
  %_4 = call align 8 dereferenceable(64) %"std::thread::Inner"* @"_ZN5alloc4sync12Arc$LT$T$GT$17get_mut_unchecked17h4749c20807756ab3E"(i64** align 8 dereferenceable(8) %self), !dbg !1510
  br label %bb1, !dbg !1510

bb1:                                              ; preds = %start
; call core::ptr::drop_in_place<std::thread::Inner>
  call void @"_ZN4core3ptr39drop_in_place$LT$std..thread..Inner$GT$17h3b34ca94d8c5eb6aE"(%"std::thread::Inner"* %_4), !dbg !1511
  br label %bb2, !dbg !1511

bb2:                                              ; preds = %bb1
  %_8 = load i64*, i64** %self, align 8, !dbg !1512, !nonnull !4
  store i64* %_8, i64** %_7, align 8, !dbg !1513
  %0 = load i64*, i64** %_7, align 8, !dbg !1514, !nonnull !4
; call core::mem::drop
  call void @_ZN4core3mem4drop17h35d88080159b6f83E(i64* nonnull %0), !dbg !1514
  br label %bb3, !dbg !1514

bb3:                                              ; preds = %bb2
  ret void, !dbg !1515
}

; alloc::sync::Weak<T>::inner
; Function Attrs: inlinehint nounwind
define { i64*, i8* } @"_ZN5alloc4sync13Weak$LT$T$GT$5inner17h5bb28a0ef6278b92E"(i64** align 8 dereferenceable(8) %self) unnamed_addr #0 !dbg !1516 {
start:
  %ptr.dbg.spill = alloca %"alloc::sync::ArcInner<std::thread::Inner>"*, align 8
  %self.dbg.spill = alloca i64**, align 8
  %_5 = alloca { i64*, i64* }, align 8
  %0 = alloca { i64*, i8* }, align 8
  store i64** %self, i64*** %self.dbg.spill, align 8
  call void @llvm.dbg.declare(metadata i64*** %self.dbg.spill, metadata !1537, metadata !DIExpression()), !dbg !1540
  %_4 = load i64*, i64** %self, align 8, !dbg !1541, !nonnull !4
; call core::ptr::non_null::NonNull<T>::as_ptr
  %_3 = call %"alloc::sync::ArcInner<std::thread::Inner>"* @"_ZN4core3ptr8non_null16NonNull$LT$T$GT$6as_ptr17h2430046c2ff505c1E"(i64* nonnull %_4), !dbg !1541
  br label %bb1, !dbg !1541

bb1:                                              ; preds = %start
; call alloc::rc::is_dangling
  %_2 = call zeroext i1 @_ZN5alloc2rc11is_dangling17h14c41ecd45279010E(%"alloc::sync::ArcInner<std::thread::Inner>"* %_3), !dbg !1542
  br label %bb2, !dbg !1542

bb2:                                              ; preds = %bb1
  br i1 %_2, label %bb3, label %bb4, !dbg !1542

bb4:                                              ; preds = %bb2
  %_7 = load i64*, i64** %self, align 8, !dbg !1543, !nonnull !4
; call core::ptr::non_null::NonNull<T>::as_ptr
  %ptr = call %"alloc::sync::ArcInner<std::thread::Inner>"* @"_ZN4core3ptr8non_null16NonNull$LT$T$GT$6as_ptr17h2430046c2ff505c1E"(i64* nonnull %_7), !dbg !1543
  store %"alloc::sync::ArcInner<std::thread::Inner>"* %ptr, %"alloc::sync::ArcInner<std::thread::Inner>"** %ptr.dbg.spill, align 8, !dbg !1543
  call void @llvm.dbg.declare(metadata %"alloc::sync::ArcInner<std::thread::Inner>"** %ptr.dbg.spill, metadata !1538, metadata !DIExpression()), !dbg !1544
  br label %bb5, !dbg !1543

bb3:                                              ; preds = %bb2
  %1 = bitcast { i64*, i8* }* %0 to {}**, !dbg !1545
  store {}* null, {}** %1, align 8, !dbg !1545
  br label %bb6, !dbg !1546

bb6:                                              ; preds = %bb5, %bb3
  %2 = getelementptr inbounds { i64*, i8* }, { i64*, i8* }* %0, i32 0, i32 0, !dbg !1547
  %3 = load i64*, i64** %2, align 8, !dbg !1547
  %4 = getelementptr inbounds { i64*, i8* }, { i64*, i8* }* %0, i32 0, i32 1, !dbg !1547
  %5 = load i8*, i8** %4, align 8, !dbg !1547
  %6 = insertvalue { i64*, i8* } undef, i64* %3, 0, !dbg !1547
  %7 = insertvalue { i64*, i8* } %6, i8* %5, 1, !dbg !1547
  ret { i64*, i8* } %7, !dbg !1547

bb5:                                              ; preds = %bb4
  %_9 = bitcast %"alloc::sync::ArcInner<std::thread::Inner>"* %ptr to %"std::sync::atomic::AtomicUsize"*, !dbg !1548
  %_11 = getelementptr inbounds %"alloc::sync::ArcInner<std::thread::Inner>", %"alloc::sync::ArcInner<std::thread::Inner>"* %ptr, i32 0, i32 1, !dbg !1549
  %8 = bitcast { i64*, i64* }* %_5 to %"std::sync::atomic::AtomicUsize"**, !dbg !1550
  store %"std::sync::atomic::AtomicUsize"* %_11, %"std::sync::atomic::AtomicUsize"** %8, align 8, !dbg !1550
  %9 = getelementptr inbounds { i64*, i64* }, { i64*, i64* }* %_5, i32 0, i32 1, !dbg !1550
  %10 = bitcast i64** %9 to %"std::sync::atomic::AtomicUsize"**, !dbg !1550
  store %"std::sync::atomic::AtomicUsize"* %_9, %"std::sync::atomic::AtomicUsize"** %10, align 8, !dbg !1550
  %11 = bitcast { i64*, i8* }* %0 to { i64*, i64* }*, !dbg !1551
  %12 = getelementptr inbounds { i64*, i64* }, { i64*, i64* }* %_5, i32 0, i32 0, !dbg !1551
  %13 = load i64*, i64** %12, align 8, !dbg !1551, !nonnull !4
  %14 = getelementptr inbounds { i64*, i64* }, { i64*, i64* }* %_5, i32 0, i32 1, !dbg !1551
  %15 = load i64*, i64** %14, align 8, !dbg !1551, !nonnull !4
  %16 = getelementptr inbounds { i64*, i64* }, { i64*, i64* }* %11, i32 0, i32 0, !dbg !1551
  store i64* %13, i64** %16, align 8, !dbg !1551
  %17 = getelementptr inbounds { i64*, i64* }, { i64*, i64* }* %11, i32 0, i32 1, !dbg !1551
  store i64* %15, i64** %17, align 8, !dbg !1551
  br label %bb6, !dbg !1546
}

; alloc::alloc::dealloc
; Function Attrs: inlinehint nounwind
define internal void @_ZN5alloc5alloc7dealloc17h248befa91d26e626E(i8* %ptr, i64 %0, i64 %1) unnamed_addr #0 !dbg !1552 {
start:
  %ptr.dbg.spill = alloca i8*, align 8
  %layout = alloca { i64, i64 }, align 8
  %2 = getelementptr inbounds { i64, i64 }, { i64, i64 }* %layout, i32 0, i32 0
  store i64 %0, i64* %2, align 8
  %3 = getelementptr inbounds { i64, i64 }, { i64, i64 }* %layout, i32 0, i32 1
  store i64 %1, i64* %3, align 8
  store i8* %ptr, i8** %ptr.dbg.spill, align 8
  call void @llvm.dbg.declare(metadata i8** %ptr.dbg.spill, metadata !1557, metadata !DIExpression()), !dbg !1559
  call void @llvm.dbg.declare(metadata { i64, i64 }* %layout, metadata !1558, metadata !DIExpression()), !dbg !1560
; call core::alloc::layout::Layout::size
  %_4 = call i64 @_ZN4core5alloc6layout6Layout4size17hca946836db7937adE({ i64, i64 }* align 8 dereferenceable(16) %layout), !dbg !1561
  br label %bb1, !dbg !1561

bb1:                                              ; preds = %start
; call core::alloc::layout::Layout::align
  %_6 = call i64 @_ZN4core5alloc6layout6Layout5align17ha0bc2206b26cef89E({ i64, i64 }* align 8 dereferenceable(16) %layout), !dbg !1562
  br label %bb2, !dbg !1562

bb2:                                              ; preds = %bb1
  call void @__rust_dealloc(i8* %ptr, i64 %_4, i64 %_6), !dbg !1563
  br label %bb3, !dbg !1563

bb3:                                              ; preds = %bb2
  ret void, !dbg !1564
}

; alloc::alloc::box_free
; Function Attrs: inlinehint nounwind
define void @_ZN5alloc5alloc8box_free17h25d71aaf15382d92E(i8* nonnull %0) unnamed_addr #0 !dbg !1565 {
start:
  %layout.dbg.spill = alloca { i64, i64 }, align 8
  %align.dbg.spill = alloca i64, align 8
  %1 = alloca i64, align 8
  %size.dbg.spill = alloca i64, align 8
  %2 = alloca i64, align 8
  %alloc = alloca %"std::alloc::Global", align 1
  %ptr = alloca i8*, align 8
  store i8* %0, i8** %ptr, align 8
  call void @llvm.dbg.declare(metadata i8** %ptr, metadata !1569, metadata !DIExpression()), !dbg !1578
  call void @llvm.dbg.declare(metadata %"std::alloc::Global"* %alloc, metadata !1570, metadata !DIExpression()), !dbg !1579
; call core::ptr::unique::Unique<T>::as_ref
  %_5 = call nonnull align 1 %"std::sys::sbf::condvar::Condvar"* @"_ZN4core3ptr6unique15Unique$LT$T$GT$6as_ref17ha20fdabc9db35785E"(i8** align 8 dereferenceable(8) %ptr), !dbg !1580
  br label %bb1, !dbg !1580

bb1:                                              ; preds = %start
  store i64 0, i64* %2, align 8, !dbg !1581
  %size = load i64, i64* %2, align 8, !dbg !1581
  store i64 %size, i64* %size.dbg.spill, align 8, !dbg !1581
  call void @llvm.dbg.declare(metadata i64* %size.dbg.spill, metadata !1571, metadata !DIExpression()), !dbg !1582
  br label %bb2, !dbg !1581

bb2:                                              ; preds = %bb1
; call core::ptr::unique::Unique<T>::as_ref
  %_9 = call nonnull align 1 %"std::sys::sbf::condvar::Condvar"* @"_ZN4core3ptr6unique15Unique$LT$T$GT$6as_ref17ha20fdabc9db35785E"(i8** align 8 dereferenceable(8) %ptr), !dbg !1583
  br label %bb3, !dbg !1583

bb3:                                              ; preds = %bb2
  store i64 1, i64* %1, align 8, !dbg !1584
  %align = load i64, i64* %1, align 8, !dbg !1584
  store i64 %align, i64* %align.dbg.spill, align 8, !dbg !1584
  call void @llvm.dbg.declare(metadata i64* %align.dbg.spill, metadata !1573, metadata !DIExpression()), !dbg !1585
  br label %bb4, !dbg !1584

bb4:                                              ; preds = %bb3
; call core::alloc::layout::Layout::from_size_align_unchecked
  %3 = call { i64, i64 } @_ZN4core5alloc6layout6Layout25from_size_align_unchecked17he4138ce81b342133E(i64 %size, i64 %align), !dbg !1586
  %layout.0 = extractvalue { i64, i64 } %3, 0, !dbg !1586
  %layout.1 = extractvalue { i64, i64 } %3, 1, !dbg !1586
  %4 = getelementptr inbounds { i64, i64 }, { i64, i64 }* %layout.dbg.spill, i32 0, i32 0, !dbg !1586
  store i64 %layout.0, i64* %4, align 8, !dbg !1586
  %5 = getelementptr inbounds { i64, i64 }, { i64, i64 }* %layout.dbg.spill, i32 0, i32 1, !dbg !1586
  store i64 %layout.1, i64* %5, align 8, !dbg !1586
  call void @llvm.dbg.declare(metadata { i64, i64 }* %layout.dbg.spill, metadata !1575, metadata !DIExpression()), !dbg !1587
  br label %bb5, !dbg !1586

bb5:                                              ; preds = %bb4
  %_17 = load i8*, i8** %ptr, align 8, !dbg !1588, !nonnull !4
; call core::ptr::unique::Unique<T>::cast
  %_16 = call nonnull i8* @"_ZN4core3ptr6unique15Unique$LT$T$GT$4cast17hc18d12e0427083ceE"(i8* nonnull %_17), !dbg !1588
  br label %bb6, !dbg !1588

bb6:                                              ; preds = %bb5
; call <T as core::convert::Into<U>>::into
  %_15 = call nonnull i8* @"_ZN50_$LT$T$u20$as$u20$core..convert..Into$LT$U$GT$$GT$4into17hc54be3bfe881c6aeE"(i8* nonnull %_16), !dbg !1588
  br label %bb7, !dbg !1588

bb7:                                              ; preds = %bb6
; call <alloc::alloc::Global as core::alloc::Allocator>::deallocate
  call void @"_ZN63_$LT$alloc..alloc..Global$u20$as$u20$core..alloc..Allocator$GT$10deallocate17hf0e4f6aeeddb975dE"(%"std::alloc::Global"* nonnull align 1 %alloc, i8* nonnull %_15, i64 %layout.0, i64 %layout.1), !dbg !1589
  br label %bb8, !dbg !1589

bb8:                                              ; preds = %bb7
  br label %bb9, !dbg !1590

bb9:                                              ; preds = %bb8
  ret void, !dbg !1591
}

; alloc::alloc::box_free
; Function Attrs: inlinehint nounwind
define void @_ZN5alloc5alloc8box_free17hdb81a7400236b307E(i8* nonnull %0, i64 %1) unnamed_addr #0 !dbg !1592 {
start:
  %layout.dbg.spill = alloca { i64, i64 }, align 8
  %align.dbg.spill = alloca i64, align 8
  %2 = alloca i64, align 8
  %size.dbg.spill = alloca i64, align 8
  %3 = alloca i64, align 8
  %alloc = alloca %"std::alloc::Global", align 1
  %ptr = alloca { i8*, i64 }, align 8
  %4 = getelementptr inbounds { i8*, i64 }, { i8*, i64 }* %ptr, i32 0, i32 0
  store i8* %0, i8** %4, align 8
  %5 = getelementptr inbounds { i8*, i64 }, { i8*, i64 }* %ptr, i32 0, i32 1
  store i64 %1, i64* %5, align 8
  call void @llvm.dbg.declare(metadata { i8*, i64 }* %ptr, metadata !1596, metadata !DIExpression()), !dbg !1604
  call void @llvm.dbg.declare(metadata %"std::alloc::Global"* %alloc, metadata !1597, metadata !DIExpression()), !dbg !1605
; call core::ptr::unique::Unique<T>::as_ref
  %6 = call { [0 x i8]*, i64 } @"_ZN4core3ptr6unique15Unique$LT$T$GT$6as_ref17h2c6e2dee980c7414E"({ i8*, i64 }* align 8 dereferenceable(16) %ptr), !dbg !1606
  %_5.0 = extractvalue { [0 x i8]*, i64 } %6, 0, !dbg !1606
  %_5.1 = extractvalue { [0 x i8]*, i64 } %6, 1, !dbg !1606
  br label %bb1, !dbg !1606

bb1:                                              ; preds = %start
  %7 = mul i64 %_5.1, 1, !dbg !1607
  store i64 %7, i64* %3, align 8, !dbg !1607
  %size = load i64, i64* %3, align 8, !dbg !1607
  store i64 %size, i64* %size.dbg.spill, align 8, !dbg !1607
  call void @llvm.dbg.declare(metadata i64* %size.dbg.spill, metadata !1598, metadata !DIExpression()), !dbg !1608
  br label %bb2, !dbg !1607

bb2:                                              ; preds = %bb1
; call core::ptr::unique::Unique<T>::as_ref
  %8 = call { [0 x i8]*, i64 } @"_ZN4core3ptr6unique15Unique$LT$T$GT$6as_ref17h2c6e2dee980c7414E"({ i8*, i64 }* align 8 dereferenceable(16) %ptr), !dbg !1609
  %_9.0 = extractvalue { [0 x i8]*, i64 } %8, 0, !dbg !1609
  %_9.1 = extractvalue { [0 x i8]*, i64 } %8, 1, !dbg !1609
  br label %bb3, !dbg !1609

bb3:                                              ; preds = %bb2
  %9 = mul i64 %_9.1, 1, !dbg !1610
  store i64 1, i64* %2, align 8, !dbg !1610
  %align = load i64, i64* %2, align 8, !dbg !1610
  store i64 %align, i64* %align.dbg.spill, align 8, !dbg !1610
  call void @llvm.dbg.declare(metadata i64* %align.dbg.spill, metadata !1600, metadata !DIExpression()), !dbg !1611
  br label %bb4, !dbg !1610

bb4:                                              ; preds = %bb3
; call core::alloc::layout::Layout::from_size_align_unchecked
  %10 = call { i64, i64 } @_ZN4core5alloc6layout6Layout25from_size_align_unchecked17he4138ce81b342133E(i64 %size, i64 %align), !dbg !1612
  %layout.0 = extractvalue { i64, i64 } %10, 0, !dbg !1612
  %layout.1 = extractvalue { i64, i64 } %10, 1, !dbg !1612
  %11 = getelementptr inbounds { i64, i64 }, { i64, i64 }* %layout.dbg.spill, i32 0, i32 0, !dbg !1612
  store i64 %layout.0, i64* %11, align 8, !dbg !1612
  %12 = getelementptr inbounds { i64, i64 }, { i64, i64 }* %layout.dbg.spill, i32 0, i32 1, !dbg !1612
  store i64 %layout.1, i64* %12, align 8, !dbg !1612
  call void @llvm.dbg.declare(metadata { i64, i64 }* %layout.dbg.spill, metadata !1602, metadata !DIExpression()), !dbg !1613
  br label %bb5, !dbg !1612

bb5:                                              ; preds = %bb4
  %13 = getelementptr inbounds { i8*, i64 }, { i8*, i64 }* %ptr, i32 0, i32 0, !dbg !1614
  %_17.0 = load i8*, i8** %13, align 8, !dbg !1614, !nonnull !4
  %14 = getelementptr inbounds { i8*, i64 }, { i8*, i64 }* %ptr, i32 0, i32 1, !dbg !1614
  %_17.1 = load i64, i64* %14, align 8, !dbg !1614
; call core::ptr::unique::Unique<T>::cast
  %_16 = call nonnull i8* @"_ZN4core3ptr6unique15Unique$LT$T$GT$4cast17hd17e5e122224cdd0E"(i8* nonnull %_17.0, i64 %_17.1), !dbg !1614
  br label %bb6, !dbg !1614

bb6:                                              ; preds = %bb5
; call <T as core::convert::Into<U>>::into
  %_15 = call nonnull i8* @"_ZN50_$LT$T$u20$as$u20$core..convert..Into$LT$U$GT$$GT$4into17hc54be3bfe881c6aeE"(i8* nonnull %_16), !dbg !1614
  br label %bb7, !dbg !1614

bb7:                                              ; preds = %bb6
; call <alloc::alloc::Global as core::alloc::Allocator>::deallocate
  call void @"_ZN63_$LT$alloc..alloc..Global$u20$as$u20$core..alloc..Allocator$GT$10deallocate17hf0e4f6aeeddb975dE"(%"std::alloc::Global"* nonnull align 1 %alloc, i8* nonnull %_15, i64 %layout.0, i64 %layout.1), !dbg !1615
  br label %bb8, !dbg !1615

bb8:                                              ; preds = %bb7
  br label %bb9, !dbg !1616

bb9:                                              ; preds = %bb8
  ret void, !dbg !1617
}

; alloc::alloc::box_free
; Function Attrs: inlinehint nounwind
define void @_ZN5alloc5alloc8box_free17he225b539013738b3E(i8* nonnull %0) unnamed_addr #0 !dbg !1618 {
start:
  %layout.dbg.spill = alloca { i64, i64 }, align 8
  %align.dbg.spill = alloca i64, align 8
  %1 = alloca i64, align 8
  %size.dbg.spill = alloca i64, align 8
  %2 = alloca i64, align 8
  %alloc = alloca %"std::alloc::Global", align 1
  %ptr = alloca i8*, align 8
  store i8* %0, i8** %ptr, align 8
  call void @llvm.dbg.declare(metadata i8** %ptr, metadata !1622, metadata !DIExpression()), !dbg !1631
  call void @llvm.dbg.declare(metadata %"std::alloc::Global"* %alloc, metadata !1623, metadata !DIExpression()), !dbg !1632
; call core::ptr::unique::Unique<T>::as_ref
  %_5 = call align 1 dereferenceable(1) i8* @"_ZN4core3ptr6unique15Unique$LT$T$GT$6as_ref17hc00a3cf9932816fdE"(i8** align 8 dereferenceable(8) %ptr), !dbg !1633
  br label %bb1, !dbg !1633

bb1:                                              ; preds = %start
  store i64 1, i64* %2, align 8, !dbg !1634
  %size = load i64, i64* %2, align 8, !dbg !1634
  store i64 %size, i64* %size.dbg.spill, align 8, !dbg !1634
  call void @llvm.dbg.declare(metadata i64* %size.dbg.spill, metadata !1624, metadata !DIExpression()), !dbg !1635
  br label %bb2, !dbg !1634

bb2:                                              ; preds = %bb1
; call core::ptr::unique::Unique<T>::as_ref
  %_9 = call align 1 dereferenceable(1) i8* @"_ZN4core3ptr6unique15Unique$LT$T$GT$6as_ref17hc00a3cf9932816fdE"(i8** align 8 dereferenceable(8) %ptr), !dbg !1636
  br label %bb3, !dbg !1636

bb3:                                              ; preds = %bb2
  store i64 1, i64* %1, align 8, !dbg !1637
  %align = load i64, i64* %1, align 8, !dbg !1637
  store i64 %align, i64* %align.dbg.spill, align 8, !dbg !1637
  call void @llvm.dbg.declare(metadata i64* %align.dbg.spill, metadata !1626, metadata !DIExpression()), !dbg !1638
  br label %bb4, !dbg !1637

bb4:                                              ; preds = %bb3
; call core::alloc::layout::Layout::from_size_align_unchecked
  %3 = call { i64, i64 } @_ZN4core5alloc6layout6Layout25from_size_align_unchecked17he4138ce81b342133E(i64 %size, i64 %align), !dbg !1639
  %layout.0 = extractvalue { i64, i64 } %3, 0, !dbg !1639
  %layout.1 = extractvalue { i64, i64 } %3, 1, !dbg !1639
  %4 = getelementptr inbounds { i64, i64 }, { i64, i64 }* %layout.dbg.spill, i32 0, i32 0, !dbg !1639
  store i64 %layout.0, i64* %4, align 8, !dbg !1639
  %5 = getelementptr inbounds { i64, i64 }, { i64, i64 }* %layout.dbg.spill, i32 0, i32 1, !dbg !1639
  store i64 %layout.1, i64* %5, align 8, !dbg !1639
  call void @llvm.dbg.declare(metadata { i64, i64 }* %layout.dbg.spill, metadata !1628, metadata !DIExpression()), !dbg !1640
  br label %bb5, !dbg !1639

bb5:                                              ; preds = %bb4
  %_17 = load i8*, i8** %ptr, align 8, !dbg !1641, !nonnull !4
; call core::ptr::unique::Unique<T>::cast
  %_16 = call nonnull i8* @"_ZN4core3ptr6unique15Unique$LT$T$GT$4cast17hd4842f59f5c64425E"(i8* nonnull %_17), !dbg !1641
  br label %bb6, !dbg !1641

bb6:                                              ; preds = %bb5
; call <T as core::convert::Into<U>>::into
  %_15 = call nonnull i8* @"_ZN50_$LT$T$u20$as$u20$core..convert..Into$LT$U$GT$$GT$4into17hc54be3bfe881c6aeE"(i8* nonnull %_16), !dbg !1641
  br label %bb7, !dbg !1641

bb7:                                              ; preds = %bb6
; call <alloc::alloc::Global as core::alloc::Allocator>::deallocate
  call void @"_ZN63_$LT$alloc..alloc..Global$u20$as$u20$core..alloc..Allocator$GT$10deallocate17hf0e4f6aeeddb975dE"(%"std::alloc::Global"* nonnull align 1 %alloc, i8* nonnull %_15, i64 %layout.0, i64 %layout.1), !dbg !1642
  br label %bb8, !dbg !1642

bb8:                                              ; preds = %bb7
  br label %bb9, !dbg !1643

bb9:                                              ; preds = %bb8
  ret void, !dbg !1644
}

; <alloc::alloc::Global as core::alloc::Allocator>::deallocate
; Function Attrs: inlinehint nounwind
define internal void @"_ZN63_$LT$alloc..alloc..Global$u20$as$u20$core..alloc..Allocator$GT$10deallocate17hf0e4f6aeeddb975dE"(%"std::alloc::Global"* nonnull align 1 %self, i8* nonnull %ptr, i64 %0, i64 %1) unnamed_addr #0 !dbg !1645 {
start:
  %ptr.dbg.spill = alloca i8*, align 8
  %self.dbg.spill = alloca %"std::alloc::Global"*, align 8
  %layout = alloca { i64, i64 }, align 8
  %2 = getelementptr inbounds { i64, i64 }, { i64, i64 }* %layout, i32 0, i32 0
  store i64 %0, i64* %2, align 8
  %3 = getelementptr inbounds { i64, i64 }, { i64, i64 }* %layout, i32 0, i32 1
  store i64 %1, i64* %3, align 8
  store %"std::alloc::Global"* %self, %"std::alloc::Global"** %self.dbg.spill, align 8
  call void @llvm.dbg.declare(metadata %"std::alloc::Global"** %self.dbg.spill, metadata !1651, metadata !DIExpression()), !dbg !1654
  store i8* %ptr, i8** %ptr.dbg.spill, align 8
  call void @llvm.dbg.declare(metadata i8** %ptr.dbg.spill, metadata !1652, metadata !DIExpression()), !dbg !1655
  call void @llvm.dbg.declare(metadata { i64, i64 }* %layout, metadata !1653, metadata !DIExpression()), !dbg !1656
; call core::alloc::layout::Layout::size
  %_4 = call i64 @_ZN4core5alloc6layout6Layout4size17hca946836db7937adE({ i64, i64 }* align 8 dereferenceable(16) %layout), !dbg !1657
  br label %bb1, !dbg !1657

bb1:                                              ; preds = %start
  %4 = icmp eq i64 %_4, 0, !dbg !1657
  br i1 %4, label %bb5, label %bb2, !dbg !1657

bb5:                                              ; preds = %bb1
  br label %bb6, !dbg !1658

bb2:                                              ; preds = %bb1
; call core::ptr::non_null::NonNull<T>::as_ptr
  %_6 = call i8* @"_ZN4core3ptr8non_null16NonNull$LT$T$GT$6as_ptr17hfd193d06c871ff80E"(i8* nonnull %ptr), !dbg !1659
  br label %bb3, !dbg !1659

bb3:                                              ; preds = %bb2
  %5 = getelementptr inbounds { i64, i64 }, { i64, i64 }* %layout, i32 0, i32 0, !dbg !1660
  %_8.0 = load i64, i64* %5, align 8, !dbg !1660
  %6 = getelementptr inbounds { i64, i64 }, { i64, i64 }* %layout, i32 0, i32 1, !dbg !1660
  %_8.1 = load i64, i64* %6, align 8, !dbg !1660, !range !398
; call alloc::alloc::dealloc
  call void @_ZN5alloc5alloc7dealloc17h248befa91d26e626E(i8* %_6, i64 %_8.0, i64 %_8.1), !dbg !1661
  br label %bb4, !dbg !1661

bb4:                                              ; preds = %bb3
  br label %bb6, !dbg !1658

bb6:                                              ; preds = %bb5, %bb4
  ret void, !dbg !1662
}

; <std::ffi::c_str::CString as core::ops::drop::Drop>::drop
; Function Attrs: inlinehint nounwind
define internal void @"_ZN66_$LT$std..ffi..c_str..CString$u20$as$u20$core..ops..drop..Drop$GT$4drop17h9eca852c5d1ce54bE"({ i8*, i64 }* align 8 dereferenceable(16) %self) unnamed_addr #0 !dbg !1663 {
start:
  %self.dbg.spill = alloca { i8*, i64 }*, align 8
  store { i8*, i64 }* %self, { i8*, i64 }** %self.dbg.spill, align 8
  call void @llvm.dbg.declare(metadata { i8*, i64 }** %self.dbg.spill, metadata !1670, metadata !DIExpression()), !dbg !1671
  %0 = bitcast { i8*, i64 }* %self to { [0 x i8]*, i64 }*, !dbg !1672
  %1 = getelementptr inbounds { [0 x i8]*, i64 }, { [0 x i8]*, i64 }* %0, i32 0, i32 0, !dbg !1672
  %_3.0 = load [0 x i8]*, [0 x i8]** %1, align 8, !dbg !1672, !nonnull !4
  %2 = getelementptr inbounds { [0 x i8]*, i64 }, { [0 x i8]*, i64 }* %0, i32 0, i32 1, !dbg !1672
  %_3.1 = load i64, i64* %2, align 8, !dbg !1672
; call core::slice::<impl [T]>::get_unchecked_mut
  %_2 = call align 1 dereferenceable(1) i8* @"_ZN4core5slice29_$LT$impl$u20$$u5b$T$u5d$$GT$17get_unchecked_mut17h3b145b426f022a98E"([0 x i8]* nonnull align 1 %_3.0, i64 %_3.1, i64 0), !dbg !1672
  br label %bb1, !dbg !1672

bb1:                                              ; preds = %start
  store i8 0, i8* %_2, align 1, !dbg !1673
  ret void, !dbg !1674
}

; <alloc::sync::Arc<T> as core::ops::drop::Drop>::drop
; Function Attrs: inlinehint nounwind
define void @"_ZN67_$LT$alloc..sync..Arc$LT$T$GT$$u20$as$u20$core..ops..drop..Drop$GT$4drop17h427a12e72ede8ad9E"(i64** align 8 dereferenceable(8) %self) unnamed_addr #0 !dbg !1675 {
start:
  %self.dbg.spill = alloca i64**, align 8
  %_8 = alloca i8, align 1
  %_6 = alloca i8, align 1
  store i64** %self, i64*** %self.dbg.spill, align 8
  call void @llvm.dbg.declare(metadata i64*** %self.dbg.spill, metadata !1678, metadata !DIExpression()), !dbg !1679
; call alloc::sync::Arc<T>::inner
  %_4 = call align 8 dereferenceable(80) %"alloc::sync::ArcInner<std::thread::Inner>"* @"_ZN5alloc4sync12Arc$LT$T$GT$5inner17hb75aac1d05a2578eE"(i64** align 8 dereferenceable(8) %self), !dbg !1680
  br label %bb1, !dbg !1680

bb1:                                              ; preds = %start
  %_3 = bitcast %"alloc::sync::ArcInner<std::thread::Inner>"* %_4 to %"std::sync::atomic::AtomicUsize"*, !dbg !1680
  store i8 1, i8* %_6, align 1, !dbg !1681
  %0 = load i8, i8* %_6, align 1, !dbg !1680, !range !1034
; call core::sync::atomic::AtomicUsize::fetch_sub
  %_2 = call i64 @_ZN4core4sync6atomic11AtomicUsize9fetch_sub17ha18a646234d3614dE(%"std::sync::atomic::AtomicUsize"* align 8 dereferenceable(8) %_3, i64 1, i8 %0), !dbg !1680
  br label %bb2, !dbg !1680

bb2:                                              ; preds = %bb1
  %1 = icmp eq i64 %_2, 1, !dbg !1680
  br i1 %1, label %bb4, label %bb3, !dbg !1680

bb4:                                              ; preds = %bb2
  store i8 2, i8* %_8, align 1, !dbg !1682
  %2 = load i8, i8* %_8, align 1, !dbg !1682, !range !1034
; call core::sync::atomic::fence
  call void @_ZN4core4sync6atomic5fence17hc00699a071f77af2E(i8 %2), !dbg !1682
  br label %bb5, !dbg !1682

bb3:                                              ; preds = %bb2
  br label %bb7, !dbg !1683

bb7:                                              ; preds = %bb6, %bb3
  ret void, !dbg !1683

bb5:                                              ; preds = %bb4
; call alloc::sync::Arc<T>::drop_slow
  call void @"_ZN5alloc4sync12Arc$LT$T$GT$9drop_slow17he1850bedb086144fE"(i64** align 8 dereferenceable(8) %self), !dbg !1684
  br label %bb6, !dbg !1684

bb6:                                              ; preds = %bb5
  br label %bb7, !dbg !1683
}

; <alloc::sync::Weak<T> as core::ops::drop::Drop>::drop
; Function Attrs: nounwind
define void @"_ZN68_$LT$alloc..sync..Weak$LT$T$GT$$u20$as$u20$core..ops..drop..Drop$GT$4drop17hba6faf08e567f26aE"(i64** align 8 dereferenceable(8) %self) unnamed_addr #1 !dbg !1685 {
start:
  %inner.dbg.spill1 = alloca { i64*, i64* }, align 8
  %inner.dbg.spill = alloca { i64*, i64* }, align 8
  %self.dbg.spill = alloca i64**, align 8
  %_11 = alloca i8, align 1
  %_9 = alloca i8, align 1
  %_3 = alloca { i64*, i8* }, align 8
  store i64** %self, i64*** %self.dbg.spill, align 8
  call void @llvm.dbg.declare(metadata i64*** %self.dbg.spill, metadata !1691, metadata !DIExpression()), !dbg !1696
; call alloc::sync::Weak<T>::inner
  %0 = call { i64*, i8* } @"_ZN5alloc4sync13Weak$LT$T$GT$5inner17h5bb28a0ef6278b92E"(i64** align 8 dereferenceable(8) %self), !dbg !1697
  store { i64*, i8* } %0, { i64*, i8* }* %_3, align 8, !dbg !1697
  br label %bb1, !dbg !1697

bb1:                                              ; preds = %start
  %1 = bitcast { i64*, i8* }* %_3 to {}**, !dbg !1698
  %2 = load {}*, {}** %1, align 8, !dbg !1698
  %3 = icmp eq {}* %2, null, !dbg !1698
  %_5 = select i1 %3, i64 0, i64 1, !dbg !1698
  %4 = icmp eq i64 %_5, 1, !dbg !1698
  br i1 %4, label %bb2, label %bb3, !dbg !1698

bb2:                                              ; preds = %bb1
  %5 = bitcast { i64*, i8* }* %_3 to { i64*, i64* }*, !dbg !1699
  %6 = getelementptr inbounds { i64*, i64* }, { i64*, i64* }* %5, i32 0, i32 0, !dbg !1699
  %inner.0 = load i64*, i64** %6, align 8, !dbg !1699, !nonnull !4
  %7 = getelementptr inbounds { i64*, i64* }, { i64*, i64* }* %5, i32 0, i32 1, !dbg !1699
  %inner.1 = load i64*, i64** %7, align 8, !dbg !1699, !nonnull !4
  %8 = getelementptr inbounds { i64*, i64* }, { i64*, i64* }* %inner.dbg.spill, i32 0, i32 0, !dbg !1699
  store i64* %inner.0, i64** %8, align 8, !dbg !1699
  %9 = getelementptr inbounds { i64*, i64* }, { i64*, i64* }* %inner.dbg.spill, i32 0, i32 1, !dbg !1699
  store i64* %inner.1, i64** %9, align 8, !dbg !1699
  call void @llvm.dbg.declare(metadata { i64*, i64* }* %inner.dbg.spill, metadata !1694, metadata !DIExpression()), !dbg !1700
  %10 = getelementptr inbounds { i64*, i64* }, { i64*, i64* }* %inner.dbg.spill1, i32 0, i32 0, !dbg !1701
  store i64* %inner.0, i64** %10, align 8, !dbg !1701
  %11 = getelementptr inbounds { i64*, i64* }, { i64*, i64* }* %inner.dbg.spill1, i32 0, i32 1, !dbg !1701
  store i64* %inner.1, i64** %11, align 8, !dbg !1701
  call void @llvm.dbg.declare(metadata { i64*, i64* }* %inner.dbg.spill1, metadata !1692, metadata !DIExpression()), !dbg !1702
  %_8 = bitcast i64* %inner.0 to %"std::sync::atomic::AtomicUsize"*, !dbg !1703
  store i8 1, i8* %_9, align 1, !dbg !1704
  %12 = load i8, i8* %_9, align 1, !dbg !1703, !range !1034
; call core::sync::atomic::AtomicUsize::fetch_sub
  %_7 = call i64 @_ZN4core4sync6atomic11AtomicUsize9fetch_sub17ha18a646234d3614dE(%"std::sync::atomic::AtomicUsize"* align 8 dereferenceable(8) %_8, i64 1, i8 %12), !dbg !1703
  br label %bb4, !dbg !1703

bb3:                                              ; preds = %bb1
  br label %bb13, !dbg !1705

bb13:                                             ; preds = %bb12, %bb3
  ret void, !dbg !1705

bb4:                                              ; preds = %bb2
  %13 = icmp eq i64 %_7, 1, !dbg !1703
  br i1 %13, label %bb5, label %bb11, !dbg !1703

bb5:                                              ; preds = %bb4
  store i8 2, i8* %_11, align 1, !dbg !1706
  %14 = load i8, i8* %_11, align 1, !dbg !1706, !range !1034
; call core::sync::atomic::fence
  call void @_ZN4core4sync6atomic5fence17hc00699a071f77af2E(i8 %14), !dbg !1706
  br label %bb6, !dbg !1706

bb11:                                             ; preds = %bb4
  br label %bb12, !dbg !1707

bb12:                                             ; preds = %bb10, %bb11
  br label %bb13, !dbg !1705

bb6:                                              ; preds = %bb5
  %_14 = load i64*, i64** %self, align 8, !dbg !1708, !nonnull !4
; call core::ptr::non_null::NonNull<T>::cast
  %_13 = call nonnull i8* @"_ZN4core3ptr8non_null16NonNull$LT$T$GT$4cast17h38f08ea6661bdd07E"(i64* nonnull %_14), !dbg !1708
  br label %bb7, !dbg !1708

bb7:                                              ; preds = %bb6
  %_18 = load i64*, i64** %self, align 8, !dbg !1709, !nonnull !4
; call core::ptr::non_null::NonNull<T>::as_ptr
  %_17 = call %"alloc::sync::ArcInner<std::thread::Inner>"* @"_ZN4core3ptr8non_null16NonNull$LT$T$GT$6as_ptr17h2430046c2ff505c1E"(i64* nonnull %_18), !dbg !1709
  br label %bb8, !dbg !1709

bb8:                                              ; preds = %bb7
; call core::alloc::layout::Layout::for_value_raw
  %15 = call { i64, i64 } @_ZN4core5alloc6layout6Layout13for_value_raw17hebbd0cbd6a977118E(%"alloc::sync::ArcInner<std::thread::Inner>"* %_17), !dbg !1710
  %_15.0 = extractvalue { i64, i64 } %15, 0, !dbg !1710
  %_15.1 = extractvalue { i64, i64 } %15, 1, !dbg !1710
  br label %bb9, !dbg !1710

bb9:                                              ; preds = %bb8
; call <alloc::alloc::Global as core::alloc::Allocator>::deallocate
  call void @"_ZN63_$LT$alloc..alloc..Global$u20$as$u20$core..alloc..Allocator$GT$10deallocate17hf0e4f6aeeddb975dE"(%"std::alloc::Global"* nonnull align 1 bitcast (<{ [0 x i8] }>* @alloc145 to %"std::alloc::Global"*), i8* nonnull %_13, i64 %_15.0, i64 %_15.1), !dbg !1711
  br label %bb10, !dbg !1711

bb10:                                             ; preds = %bb9
  br label %bb12, !dbg !1707
}

; <alloc::sync::Arc<T> as core::ops::deref::Deref>::deref
; Function Attrs: inlinehint nounwind
define align 8 dereferenceable(64) %"std::thread::Inner"* @"_ZN69_$LT$alloc..sync..Arc$LT$T$GT$$u20$as$u20$core..ops..deref..Deref$GT$5deref17h5c94363871e331ebE"(i64** align 8 dereferenceable(8) %self) unnamed_addr #0 !dbg !1712 {
start:
  %self.dbg.spill = alloca i64**, align 8
  store i64** %self, i64*** %self.dbg.spill, align 8
  call void @llvm.dbg.declare(metadata i64*** %self.dbg.spill, metadata !1718, metadata !DIExpression()), !dbg !1719
; call alloc::sync::Arc<T>::inner
  %_2 = call align 8 dereferenceable(80) %"alloc::sync::ArcInner<std::thread::Inner>"* @"_ZN5alloc4sync12Arc$LT$T$GT$5inner17hb75aac1d05a2578eE"(i64** align 8 dereferenceable(8) %self), !dbg !1720
  br label %bb1, !dbg !1720

bb1:                                              ; preds = %start
  %0 = getelementptr inbounds %"alloc::sync::ArcInner<std::thread::Inner>", %"alloc::sync::ArcInner<std::thread::Inner>"* %_2, i32 0, i32 2, !dbg !1721
  ret %"std::thread::Inner"* %0, !dbg !1722
}

; <core::option::Option<T> as core::default::Default>::default
; Function Attrs: inlinehint nounwind
define i64* @"_ZN72_$LT$core..option..Option$LT$T$GT$$u20$as$u20$core..default..Default$GT$7default17h0567c77893412ee8E"() unnamed_addr #0 !dbg !1723 {
start:
  %0 = alloca i64*, align 8
  %1 = bitcast i64** %0 to {}**, !dbg !1727
  store {}* null, {}** %1, align 8, !dbg !1727
  %2 = load i64*, i64** %0, align 8, !dbg !1728
  ret i64* %2, !dbg !1728
}

; <usize as core::slice::index::SliceIndex<[T]>>::get_unchecked_mut
; Function Attrs: inlinehint nounwind
define i8* @"_ZN75_$LT$usize$u20$as$u20$core..slice..index..SliceIndex$LT$$u5b$T$u5d$$GT$$GT$17get_unchecked_mut17h71b19abaaf6f1548E"(i64 %self, [0 x i8]* %slice.0, i64 %slice.1) unnamed_addr #0 !dbg !1729 {
start:
  %0 = alloca i8*, align 8
  %count.dbg.spill.i.i = alloca i64, align 8
  %self.dbg.spill.i.i = alloca i8*, align 8
  %count.dbg.spill.i = alloca i64, align 8
  %self.dbg.spill.i1 = alloca i8*, align 8
  %self.dbg.spill.i = alloca { [0 x i8]*, i64 }, align 8
  %slice.dbg.spill = alloca { [0 x i8]*, i64 }, align 8
  %self.dbg.spill = alloca i64, align 8
  store i64 %self, i64* %self.dbg.spill, align 8
  call void @llvm.dbg.declare(metadata i64* %self.dbg.spill, metadata !1736, metadata !DIExpression()), !dbg !1738
  %1 = getelementptr inbounds { [0 x i8]*, i64 }, { [0 x i8]*, i64 }* %slice.dbg.spill, i32 0, i32 0
  store [0 x i8]* %slice.0, [0 x i8]** %1, align 8
  %2 = getelementptr inbounds { [0 x i8]*, i64 }, { [0 x i8]*, i64 }* %slice.dbg.spill, i32 0, i32 1
  store i64 %slice.1, i64* %2, align 8
  call void @llvm.dbg.declare(metadata { [0 x i8]*, i64 }* %slice.dbg.spill, metadata !1737, metadata !DIExpression()), !dbg !1739
  %3 = getelementptr inbounds { [0 x i8]*, i64 }, { [0 x i8]*, i64 }* %self.dbg.spill.i, i32 0, i32 0
  store [0 x i8]* %slice.0, [0 x i8]** %3, align 8
  %4 = getelementptr inbounds { [0 x i8]*, i64 }, { [0 x i8]*, i64 }* %self.dbg.spill.i, i32 0, i32 1
  store i64 %slice.1, i64* %4, align 8
  call void @llvm.dbg.declare(metadata { [0 x i8]*, i64 }* %self.dbg.spill.i, metadata !1740, metadata !DIExpression()), !dbg !1748
  %5 = bitcast [0 x i8]* %slice.0 to i8*, !dbg !1750
  br label %bb1, !dbg !1751

bb1:                                              ; preds = %start
  store i8* %5, i8** %self.dbg.spill.i1, align 8
  call void @llvm.dbg.declare(metadata i8** %self.dbg.spill.i1, metadata !1752, metadata !DIExpression()), !dbg !1759
  store i64 %self, i64* %count.dbg.spill.i, align 8
  call void @llvm.dbg.declare(metadata i64* %count.dbg.spill.i, metadata !1758, metadata !DIExpression()), !dbg !1761
  store i8* %5, i8** %self.dbg.spill.i.i, align 8
  call void @llvm.dbg.declare(metadata i8** %self.dbg.spill.i.i, metadata !1762, metadata !DIExpression()), !dbg !1769
  store i64 %self, i64* %count.dbg.spill.i.i, align 8
  call void @llvm.dbg.declare(metadata i64* %count.dbg.spill.i.i, metadata !1768, metadata !DIExpression()), !dbg !1771
  %6 = getelementptr inbounds i8, i8* %5, i64 %self, !dbg !1772
  store i8* %6, i8** %0, align 8, !dbg !1772
  %_3.i.i = load i8*, i8** %0, align 8, !dbg !1772
  br label %bb2, !dbg !1751

bb2:                                              ; preds = %bb1
  ret i8* %_3.i.i, !dbg !1773
}

; <once_cell::imp::Guard as core::ops::drop::Drop>::drop
; Function Attrs: nounwind
define void @"_ZN63_$LT$once_cell..imp..Guard$u20$as$u20$core..ops..drop..Drop$GT$4drop17ha227978622eba750E"({ i64*, i64 }* align 8 dereferenceable(16) %self) unnamed_addr #1 !dbg !1774 {
start:
  %next.dbg.spill = alloca %"imp::Waiter"*, align 8
  %right_val.dbg.spill = alloca i64*, align 8
  %left_val.dbg.spill = alloca i64*, align 8
  %queue.dbg.spill = alloca i64, align 8
  %self.dbg.spill = alloca { i64*, i64 }*, align 8
  %_37 = alloca i8, align 1
  %thread = alloca i64*, align 8
  %waiter = alloca %"imp::Waiter"*, align 8
  %_23 = alloca %"std::option::Option<std::fmt::Arguments>", align 8
  %kind = alloca i8, align 1
  %_8 = alloca i64, align 8
  %_6 = alloca { i64*, i64* }, align 8
  %_5 = alloca i8, align 1
  store { i64*, i64 }* %self, { i64*, i64 }** %self.dbg.spill, align 8
  call void @llvm.dbg.declare(metadata { i64*, i64 }** %self.dbg.spill, metadata !1781, metadata !DIExpression()), !dbg !1798
  call void @llvm.dbg.declare(metadata i8* %kind, metadata !1789, metadata !DIExpression()), !dbg !1799
  call void @llvm.dbg.declare(metadata %"imp::Waiter"** %waiter, metadata !1792, metadata !DIExpression()), !dbg !1800
  call void @llvm.dbg.declare(metadata i64** %thread, metadata !1796, metadata !DIExpression()), !dbg !1801
  %0 = bitcast { i64*, i64 }* %self to %"std::sync::atomic::AtomicUsize"**, !dbg !1802
  %_3 = load %"std::sync::atomic::AtomicUsize"*, %"std::sync::atomic::AtomicUsize"** %0, align 8, !dbg !1802, !nonnull !4
  %1 = getelementptr inbounds { i64*, i64 }, { i64*, i64 }* %self, i32 0, i32 1, !dbg !1803
  %_4 = load i64, i64* %1, align 8, !dbg !1803
  store i8 3, i8* %_5, align 1, !dbg !1804
  %2 = load i8, i8* %_5, align 1, !dbg !1802, !range !1034
; call core::sync::atomic::AtomicUsize::swap
  %queue = call i64 @_ZN4core4sync6atomic11AtomicUsize4swap17h8052d8bf143097f7E(%"std::sync::atomic::AtomicUsize"* align 8 dereferenceable(8) %_3, i64 %_4, i8 %2), !dbg !1802
  store i64 %queue, i64* %queue.dbg.spill, align 8, !dbg !1802
  call void @llvm.dbg.declare(metadata i64* %queue.dbg.spill, metadata !1782, metadata !DIExpression()), !dbg !1805
  br label %bb1, !dbg !1802

bb1:                                              ; preds = %start
  %3 = and i64 %queue, 3, !dbg !1806
  store i64 %3, i64* %_8, align 8, !dbg !1806
  %4 = bitcast { i64*, i64* }* %_6 to i64**, !dbg !1807
  store i64* %_8, i64** %4, align 8, !dbg !1807
  %5 = getelementptr inbounds { i64*, i64* }, { i64*, i64* }* %_6, i32 0, i32 1, !dbg !1807
  store i64* bitcast (<{ [8 x i8] }>* @alloc138 to i64*), i64** %5, align 8, !dbg !1807
  %6 = bitcast { i64*, i64* }* %_6 to i64**, !dbg !1807
  %left_val = load i64*, i64** %6, align 8, !dbg !1807, !nonnull !4
  store i64* %left_val, i64** %left_val.dbg.spill, align 8, !dbg !1807
  call void @llvm.dbg.declare(metadata i64** %left_val.dbg.spill, metadata !1784, metadata !DIExpression()), !dbg !1808
  %7 = getelementptr inbounds { i64*, i64* }, { i64*, i64* }* %_6, i32 0, i32 1, !dbg !1807
  %right_val = load i64*, i64** %7, align 8, !dbg !1807, !nonnull !4
  store i64* %right_val, i64** %right_val.dbg.spill, align 8, !dbg !1807
  call void @llvm.dbg.declare(metadata i64** %right_val.dbg.spill, metadata !1788, metadata !DIExpression()), !dbg !1808
  %_15 = load i64, i64* %left_val, align 8, !dbg !1808
  %_14 = icmp eq i64 %_15, 1, !dbg !1808
  %_13 = xor i1 %_14, true, !dbg !1808
  br i1 %_13, label %bb2, label %bb3, !dbg !1808

bb3:                                              ; preds = %bb1
  %_25 = and i64 %queue, -4, !dbg !1809
  %8 = inttoptr i64 %_25 to %"imp::Waiter"*, !dbg !1809
  store %"imp::Waiter"* %8, %"imp::Waiter"** %waiter, align 8, !dbg !1809
  br label %bb4, !dbg !1810

bb2:                                              ; preds = %bb1
  store i8 0, i8* %kind, align 1, !dbg !1808
  %9 = bitcast %"std::option::Option<std::fmt::Arguments>"* %_23 to {}**, !dbg !1799
  store {}* null, {}** %9, align 8, !dbg !1799
; call core::panicking::assert_failed
  call void @_ZN4core9panicking13assert_failed17hd134dd65848ef886E(i8 0, i64* align 8 dereferenceable(8) %left_val, i64* align 8 dereferenceable(8) %right_val, %"std::option::Option<std::fmt::Arguments>"* noalias nocapture dereferenceable(48) %_23, %"std::panic::Location"* align 8 dereferenceable(24) bitcast (<{ i8*, [16 x i8] }>* @alloc201 to %"std::panic::Location"*)), !dbg !1799
  unreachable, !dbg !1799

bb4:                                              ; preds = %bb10, %bb3
  %_30 = load %"imp::Waiter"*, %"imp::Waiter"** %waiter, align 8, !dbg !1811
; call core::ptr::const_ptr::<impl *const T>::is_null
  %_29 = call zeroext i1 @"_ZN4core3ptr9const_ptr33_$LT$impl$u20$$BP$const$u20$T$GT$7is_null17h4246272efcc22498E"(%"imp::Waiter"* %_30), !dbg !1811
  br label %bb5, !dbg !1811

bb5:                                              ; preds = %bb4
  %_28 = xor i1 %_29, true, !dbg !1812
  br i1 %_28, label %bb6, label %bb11, !dbg !1812

bb11:                                             ; preds = %bb5
  ret void, !dbg !1813

bb6:                                              ; preds = %bb5
  %10 = load %"imp::Waiter"*, %"imp::Waiter"** %waiter, align 8, !dbg !1814
  %11 = getelementptr inbounds %"imp::Waiter", %"imp::Waiter"* %10, i32 0, i32 1, !dbg !1814
  %next = load %"imp::Waiter"*, %"imp::Waiter"** %11, align 8, !dbg !1814
  store %"imp::Waiter"* %next, %"imp::Waiter"** %next.dbg.spill, align 8, !dbg !1814
  call void @llvm.dbg.declare(metadata %"imp::Waiter"** %next.dbg.spill, metadata !1794, metadata !DIExpression()), !dbg !1815
  %12 = load %"imp::Waiter"*, %"imp::Waiter"** %waiter, align 8, !dbg !1816
  %_34 = bitcast %"imp::Waiter"* %12 to i64**, !dbg !1816
; call core::cell::Cell<T>::take
  %_33 = call i64* @"_ZN4core4cell13Cell$LT$T$GT$4take17hea3ebbc7d5a715efE"(i64** align 8 dereferenceable(8) %_34), !dbg !1816
  br label %bb7, !dbg !1816

bb7:                                              ; preds = %bb6
; call core::option::Option<T>::unwrap
  %13 = call nonnull i64* @"_ZN4core6option15Option$LT$T$GT$6unwrap17h9414da90a08cbbe6E"(i64* %_33, %"std::panic::Location"* align 8 dereferenceable(24) bitcast (<{ i8*, [16 x i8] }>* @alloc203 to %"std::panic::Location"*)), !dbg !1816
  store i64* %13, i64** %thread, align 8, !dbg !1816
  br label %bb8, !dbg !1816

bb8:                                              ; preds = %bb7
  %14 = load %"imp::Waiter"*, %"imp::Waiter"** %waiter, align 8, !dbg !1817
  %_36 = getelementptr inbounds %"imp::Waiter", %"imp::Waiter"* %14, i32 0, i32 2, !dbg !1817
  store i8 1, i8* %_37, align 1, !dbg !1818
  %15 = load i8, i8* %_37, align 1, !dbg !1817, !range !1034
; call core::sync::atomic::AtomicBool::store
  call void @_ZN4core4sync6atomic10AtomicBool5store17h527aeff2e222ca02E(%"std::sync::atomic::AtomicBool"* align 1 dereferenceable(1) %_36, i1 zeroext true, i8 %15), !dbg !1817
  br label %bb9, !dbg !1817

bb9:                                              ; preds = %bb8
  store %"imp::Waiter"* %next, %"imp::Waiter"** %waiter, align 8, !dbg !1819
; call std::thread::Thread::unpark
  call void @_ZN3std6thread6Thread6unpark17h49c8ec9aec038c4dE(i64** align 8 dereferenceable(8) %thread), !dbg !1820
  br label %bb10, !dbg !1820

bb10:                                             ; preds = %bb9
; call core::ptr::drop_in_place<std::thread::Thread>
  call void @"_ZN4core3ptr40drop_in_place$LT$std..thread..Thread$GT$17hb48cfdd790ddf0d1E"(i64** %thread), !dbg !1821
  br label %bb4, !dbg !1821
}

; once_cell::imp::initialize_or_wait
; Function Attrs: noinline nounwind
define void @_ZN9once_cell3imp18initialize_or_wait17h0e87fc10a2838aa1E(%"std::sync::atomic::AtomicUsize"* align 8 dereferenceable(8) %0, i8* align 1 %1, i8* %2) unnamed_addr #3 !dbg !1822 {
start:
  %new_queue.dbg.spill = alloca i64, align 8
  %init.dbg.spill = alloca { {}*, [3 x i64]* }*, align 8
  %curr_state.dbg.spill = alloca i64, align 8
  %_36 = alloca i8, align 1
  %guard = alloca { i64*, i64 }, align 8
  %_21 = alloca i8, align 1
  %_20 = alloca i8, align 1
  %exchange = alloca { i64, i64 }, align 8
  %_8 = alloca { i64, i64* }, align 8
  %_5 = alloca i8, align 1
  %curr_queue = alloca i64, align 8
  %init = alloca { i8*, i8* }, align 8
  %queue = alloca %"std::sync::atomic::AtomicUsize"*, align 8
  store %"std::sync::atomic::AtomicUsize"* %0, %"std::sync::atomic::AtomicUsize"** %queue, align 8
  %3 = getelementptr inbounds { i8*, i8* }, { i8*, i8* }* %init, i32 0, i32 0
  store i8* %1, i8** %3, align 8
  %4 = getelementptr inbounds { i8*, i8* }, { i8*, i8* }* %init, i32 0, i32 1
  store i8* %2, i8** %4, align 8
  call void @llvm.dbg.declare(metadata %"std::sync::atomic::AtomicUsize"** %queue, metadata !1838, metadata !DIExpression()), !dbg !1852
  call void @llvm.dbg.declare(metadata { i8*, i8* }* %init, metadata !1839, metadata !DIExpression()), !dbg !1853
  call void @llvm.dbg.declare(metadata i64* %curr_queue, metadata !1840, metadata !DIExpression()), !dbg !1854
  call void @llvm.dbg.declare(metadata { i64, i64 }* %exchange, metadata !1846, metadata !DIExpression()), !dbg !1855
  call void @llvm.dbg.declare(metadata { i64*, i64 }* %guard, metadata !1850, metadata !DIExpression()), !dbg !1856
  %_4 = load %"std::sync::atomic::AtomicUsize"*, %"std::sync::atomic::AtomicUsize"** %queue, align 8, !dbg !1857, !nonnull !4
  store i8 2, i8* %_5, align 1, !dbg !1858
  %5 = load i8, i8* %_5, align 1, !dbg !1857, !range !1034
; call core::sync::atomic::AtomicUsize::load
  %6 = call i64 @_ZN4core4sync6atomic11AtomicUsize4load17h02e68b9519446368E(%"std::sync::atomic::AtomicUsize"* align 8 dereferenceable(8) %_4, i8 %5), !dbg !1857
  store i64 %6, i64* %curr_queue, align 8, !dbg !1857
  br label %bb1, !dbg !1857

bb1:                                              ; preds = %bb13, %bb6, %start
  %_7 = load i64, i64* %curr_queue, align 8, !dbg !1859
  %curr_state = and i64 %_7, 3, !dbg !1859
  store i64 %curr_state, i64* %curr_state.dbg.spill, align 8, !dbg !1859
  call void @llvm.dbg.declare(metadata i64* %curr_state.dbg.spill, metadata !1842, metadata !DIExpression()), !dbg !1860
  %7 = bitcast { i64, i64* }* %_8 to i64*, !dbg !1861
  store i64 %curr_state, i64* %7, align 8, !dbg !1861
  %8 = getelementptr inbounds { i64, i64* }, { i64, i64* }* %_8, i32 0, i32 1, !dbg !1861
  %9 = bitcast i64** %8 to { i8*, i8* }**, !dbg !1861
  store { i8*, i8* }* %init, { i8*, i8* }** %9, align 8, !dbg !1861
  %10 = bitcast { i64, i64* }* %_8 to i64*, !dbg !1862
  %11 = load i64, i64* %10, align 8, !dbg !1862
  switch i64 %11, label %bb3 [
    i64 2, label %bb14
    i64 0, label %bb2
    i64 1, label %bb11
  ], !dbg !1862

bb3:                                              ; preds = %bb2, %bb1
; call core::panicking::panic
  call void @_ZN4core9panicking5panic17h560e3e4b7752857aE([0 x i8]* nonnull align 1 bitcast (<{ [23 x i8] }>* @alloc204 to [0 x i8]*), i64 23, %"std::panic::Location"* align 8 dereferenceable(24) bitcast (<{ i8*, [16 x i8] }>* @alloc206 to %"std::panic::Location"*)), !dbg !1863
  unreachable, !dbg !1863

bb14:                                             ; preds = %bb10, %bb1
  ret void, !dbg !1864

bb2:                                              ; preds = %bb1
  %12 = getelementptr inbounds { i64, i64* }, { i64, i64* }* %_8, i32 0, i32 1, !dbg !1861
  %13 = bitcast i64** %12 to { i8*, i8* }**, !dbg !1861
  %14 = load { i8*, i8* }*, { i8*, i8* }** %13, align 8, !dbg !1861, !nonnull !4
  %15 = bitcast { i8*, i8* }* %14 to {}**, !dbg !1861
  %16 = load {}*, {}** %15, align 8, !dbg !1861
  %17 = icmp eq {}* %16, null, !dbg !1861
  %_11 = select i1 %17, i64 0, i64 1, !dbg !1861
  switch i64 %_11, label %bb3 [
    i64 0, label %bb11
    i64 1, label %bb4
  ], !dbg !1862

bb11:                                             ; preds = %bb2, %bb1
  %_31 = load %"std::sync::atomic::AtomicUsize"*, %"std::sync::atomic::AtomicUsize"** %queue, align 8, !dbg !1865, !nonnull !4
  %_33 = load i64, i64* %curr_queue, align 8, !dbg !1866
; call once_cell::imp::wait
  call void @_ZN9once_cell3imp4wait17hdf5f10e791e0001bE(%"std::sync::atomic::AtomicUsize"* align 8 dereferenceable(8) %_31, i64 %_33), !dbg !1867
  br label %bb12, !dbg !1867

bb4:                                              ; preds = %bb2
  %18 = getelementptr inbounds { i64, i64* }, { i64, i64* }* %_8, i32 0, i32 1, !dbg !1868
  %19 = bitcast i64** %18 to { i8*, i8* }**, !dbg !1868
  %20 = load { i8*, i8* }*, { i8*, i8* }** %19, align 8, !dbg !1868, !nonnull !4
  %init1 = bitcast { i8*, i8* }* %20 to { {}*, [3 x i64]* }*, !dbg !1868
  store { {}*, [3 x i64]* }* %init1, { {}*, [3 x i64]* }** %init.dbg.spill, align 8, !dbg !1868
  call void @llvm.dbg.declare(metadata { {}*, [3 x i64]* }** %init.dbg.spill, metadata !1844, metadata !DIExpression()), !dbg !1869
  %_14 = load %"std::sync::atomic::AtomicUsize"*, %"std::sync::atomic::AtomicUsize"** %queue, align 8, !dbg !1870, !nonnull !4
  %_15 = load i64, i64* %curr_queue, align 8, !dbg !1871
  %_18 = load i64, i64* %curr_queue, align 8, !dbg !1872
  %_17 = and i64 %_18, -4, !dbg !1873
  %_16 = or i64 %_17, 1, !dbg !1873
  store i8 2, i8* %_20, align 1, !dbg !1874
  store i8 2, i8* %_21, align 1, !dbg !1875
  %21 = load i8, i8* %_20, align 1, !dbg !1870, !range !1034
  %22 = load i8, i8* %_21, align 1, !dbg !1870, !range !1034
; call core::sync::atomic::AtomicUsize::compare_exchange
  %23 = call { i64, i64 } @_ZN4core4sync6atomic11AtomicUsize16compare_exchange17hdd1e39c5d5afa098E(%"std::sync::atomic::AtomicUsize"* align 8 dereferenceable(8) %_14, i64 %_15, i64 %_16, i8 %21, i8 %22), !dbg !1870
  store { i64, i64 } %23, { i64, i64 }* %exchange, align 8, !dbg !1870
  br label %bb5, !dbg !1870

bb5:                                              ; preds = %bb4
  %24 = bitcast { i64, i64 }* %exchange to i64*, !dbg !1876
  %_22 = load i64, i64* %24, align 8, !dbg !1876, !range !1258
  %25 = icmp eq i64 %_22, 1, !dbg !1876
  br i1 %25, label %bb6, label %bb7, !dbg !1876

bb6:                                              ; preds = %bb5
  %26 = bitcast { i64, i64 }* %exchange to %"std::result::Result<usize, usize>::Err"*, !dbg !1877
  %27 = getelementptr inbounds %"std::result::Result<usize, usize>::Err", %"std::result::Result<usize, usize>::Err"* %26, i32 0, i32 1, !dbg !1877
  %new_queue = load i64, i64* %27, align 8, !dbg !1877
  store i64 %new_queue, i64* %new_queue.dbg.spill, align 8, !dbg !1877
  call void @llvm.dbg.declare(metadata i64* %new_queue.dbg.spill, metadata !1848, metadata !DIExpression()), !dbg !1878
  store i64 %new_queue, i64* %curr_queue, align 8, !dbg !1879
  br label %bb1, !dbg !1880

bb7:                                              ; preds = %bb5
  %_26 = load %"std::sync::atomic::AtomicUsize"*, %"std::sync::atomic::AtomicUsize"** %queue, align 8, !dbg !1883, !nonnull !4
  %28 = bitcast { i64*, i64 }* %guard to %"std::sync::atomic::AtomicUsize"**, !dbg !1884
  store %"std::sync::atomic::AtomicUsize"* %_26, %"std::sync::atomic::AtomicUsize"** %28, align 8, !dbg !1884
  %29 = getelementptr inbounds { i64*, i64 }, { i64*, i64 }* %guard, i32 0, i32 1, !dbg !1884
  store i64 0, i64* %29, align 8, !dbg !1884
; call core::ops::function::impls::<impl core::ops::function::FnMut<A> for &mut F>::call_mut
  %_27 = call zeroext i1 @"_ZN4core3ops8function5impls79_$LT$impl$u20$core..ops..function..FnMut$LT$A$GT$$u20$for$u20$$RF$mut$u20$F$GT$8call_mut17hfc53af94ffd8190cE"({ {}*, [3 x i64]* }* align 8 dereferenceable(16) %init1), !dbg !1885
  br label %bb8, !dbg !1885

bb8:                                              ; preds = %bb7
  br i1 %_27, label %bb9, label %bb10, !dbg !1885

bb10:                                             ; preds = %bb9, %bb8
; call core::ptr::drop_in_place<once_cell::imp::Guard>
  call void @"_ZN4core3ptr42drop_in_place$LT$once_cell..imp..Guard$GT$17hd8907b7a93b7d0d4E"({ i64*, i64 }* %guard), !dbg !1886
  br label %bb14, !dbg !1886

bb9:                                              ; preds = %bb8
  %30 = getelementptr inbounds { i64*, i64 }, { i64*, i64 }* %guard, i32 0, i32 1, !dbg !1887
  store i64 2, i64* %30, align 8, !dbg !1887
  br label %bb10, !dbg !1888

bb12:                                             ; preds = %bb11
  %_35 = load %"std::sync::atomic::AtomicUsize"*, %"std::sync::atomic::AtomicUsize"** %queue, align 8, !dbg !1889, !nonnull !4
  store i8 2, i8* %_36, align 1, !dbg !1890
  %31 = load i8, i8* %_36, align 1, !dbg !1889, !range !1034
; call core::sync::atomic::AtomicUsize::load
  %_34 = call i64 @_ZN4core4sync6atomic11AtomicUsize4load17h02e68b9519446368E(%"std::sync::atomic::AtomicUsize"* align 8 dereferenceable(8) %_35, i8 %31), !dbg !1889
  br label %bb13, !dbg !1889

bb13:                                             ; preds = %bb12
  store i64 %_34, i64* %curr_queue, align 8, !dbg !1891
  br label %bb1, !dbg !1892
}

; once_cell::imp::wait
; Function Attrs: nounwind
define internal void @_ZN9once_cell3imp4wait17hdf5f10e791e0001bE(%"std::sync::atomic::AtomicUsize"* align 8 dereferenceable(8) %queue, i64 %0) unnamed_addr #1 !dbg !1893 {
start:
  %new_queue.dbg.spill = alloca i64, align 8
  %me.dbg.spill = alloca i64, align 8
  %1 = alloca i8, align 1
  %curr_state.dbg.spill = alloca i64, align 8
  %queue.dbg.spill = alloca %"std::sync::atomic::AtomicUsize"*, align 8
  %_35 = alloca i8, align 1
  %_24 = alloca i8, align 1
  %_23 = alloca i8, align 1
  %exchange = alloca { i64, i64 }, align 8
  %_9 = alloca %"std::sync::atomic::AtomicBool", align 1
  %_7 = alloca i64*, align 8
  %node = alloca %"imp::Waiter", align 8
  %curr_queue = alloca i64, align 8
  store i64 %0, i64* %curr_queue, align 8
  store %"std::sync::atomic::AtomicUsize"* %queue, %"std::sync::atomic::AtomicUsize"** %queue.dbg.spill, align 8
  call void @llvm.dbg.declare(metadata %"std::sync::atomic::AtomicUsize"** %queue.dbg.spill, metadata !1897, metadata !DIExpression()), !dbg !1909
  call void @llvm.dbg.declare(metadata i64* %curr_queue, metadata !1898, metadata !DIExpression()), !dbg !1910
  call void @llvm.dbg.declare(metadata %"imp::Waiter"* %node, metadata !1901, metadata !DIExpression()), !dbg !1911
  call void @llvm.dbg.declare(metadata { i64, i64 }* %exchange, metadata !1905, metadata !DIExpression()), !dbg !1912
  %_4 = load i64, i64* %curr_queue, align 8, !dbg !1913
  %curr_state = and i64 %_4, 3, !dbg !1913
  store i64 %curr_state, i64* %curr_state.dbg.spill, align 8, !dbg !1913
  call void @llvm.dbg.declare(metadata i64* %curr_state.dbg.spill, metadata !1899, metadata !DIExpression()), !dbg !1914
  br label %bb1, !dbg !1915

bb1:                                              ; preds = %bb8, %start
; call std::thread::current
  %_8 = call nonnull i64* @_ZN3std6thread7current17h98daf07618069746E(), !dbg !1916
  br label %bb2, !dbg !1916

bb2:                                              ; preds = %bb1
  store i64* %_8, i64** %_7, align 8, !dbg !1917
  %2 = load i64*, i64** %_7, align 8, !dbg !1918
; call core::cell::Cell<T>::new
  %_6 = call i64* @"_ZN4core4cell13Cell$LT$T$GT$3new17h55368ac9f907d6f6E"(i64* %2), !dbg !1918
  br label %bb3, !dbg !1918

bb3:                                              ; preds = %bb2
; call core::sync::atomic::AtomicBool::new
  %3 = call i8 @_ZN4core4sync6atomic10AtomicBool3new17hcf2afd276021390dE(i1 zeroext false), !dbg !1919
  store i8 %3, i8* %1, align 1, !dbg !1919
  %4 = bitcast %"std::sync::atomic::AtomicBool"* %_9 to i8*, !dbg !1919
  call void @llvm.memcpy.p0i8.p0i8.i64(i8* align 1 %4, i8* align 1 %1, i64 1, i1 false), !dbg !1919
  br label %bb4, !dbg !1919

bb4:                                              ; preds = %bb3
  %_12 = load i64, i64* %curr_queue, align 8, !dbg !1920
  %_11 = and i64 %_12, -4, !dbg !1921
  %_10 = inttoptr i64 %_11 to %"imp::Waiter"*, !dbg !1921
  %5 = bitcast %"imp::Waiter"* %node to i64**, !dbg !1922
  store i64* %_6, i64** %5, align 8, !dbg !1922
  %6 = getelementptr inbounds %"imp::Waiter", %"imp::Waiter"* %node, i32 0, i32 2, !dbg !1922
  %7 = bitcast %"std::sync::atomic::AtomicBool"* %6 to i8*, !dbg !1922
  %8 = bitcast %"std::sync::atomic::AtomicBool"* %_9 to i8*, !dbg !1922
  call void @llvm.memcpy.p0i8.p0i8.i64(i8* align 8 %7, i8* align 1 %8, i64 1, i1 false), !dbg !1922
  %9 = getelementptr inbounds %"imp::Waiter", %"imp::Waiter"* %node, i32 0, i32 1, !dbg !1922
  store %"imp::Waiter"* %_10, %"imp::Waiter"** %9, align 8, !dbg !1922
  %me = ptrtoint %"imp::Waiter"* %node to i64, !dbg !1923
  store i64 %me, i64* %me.dbg.spill, align 8, !dbg !1923
  call void @llvm.dbg.declare(metadata i64* %me.dbg.spill, metadata !1903, metadata !DIExpression()), !dbg !1924
  %_19 = load i64, i64* %curr_queue, align 8, !dbg !1925
  %_20 = or i64 %me, %curr_state, !dbg !1926
  store i8 1, i8* %_23, align 1, !dbg !1927
  store i8 0, i8* %_24, align 1, !dbg !1928
  %10 = load i8, i8* %_23, align 1, !dbg !1929, !range !1034
  %11 = load i8, i8* %_24, align 1, !dbg !1929, !range !1034
; call core::sync::atomic::AtomicUsize::compare_exchange
  %12 = call { i64, i64 } @_ZN4core4sync6atomic11AtomicUsize16compare_exchange17hdd1e39c5d5afa098E(%"std::sync::atomic::AtomicUsize"* align 8 dereferenceable(8) %queue, i64 %_19, i64 %_20, i8 %10, i8 %11), !dbg !1929
  store { i64, i64 } %12, { i64, i64 }* %exchange, align 8, !dbg !1929
  br label %bb5, !dbg !1929

bb5:                                              ; preds = %bb4
  %13 = bitcast { i64, i64 }* %exchange to i64*, !dbg !1930
  %_25 = load i64, i64* %13, align 8, !dbg !1930, !range !1258
  %14 = icmp eq i64 %_25, 1, !dbg !1930
  br i1 %14, label %bb6, label %bb9, !dbg !1930

bb6:                                              ; preds = %bb5
  %15 = bitcast { i64, i64 }* %exchange to %"std::result::Result<usize, usize>::Err"*, !dbg !1931
  %16 = getelementptr inbounds %"std::result::Result<usize, usize>::Err", %"std::result::Result<usize, usize>::Err"* %15, i32 0, i32 1, !dbg !1931
  %new_queue = load i64, i64* %16, align 8, !dbg !1931
  store i64 %new_queue, i64* %new_queue.dbg.spill, align 8, !dbg !1931
  call void @llvm.dbg.declare(metadata i64* %new_queue.dbg.spill, metadata !1907, metadata !DIExpression()), !dbg !1932
  %_28 = and i64 %new_queue, 3, !dbg !1933
  %_27 = icmp ne i64 %_28, %curr_state, !dbg !1933
  br i1 %_27, label %bb7, label %bb8, !dbg !1933

bb9:                                              ; preds = %bb11, %bb5
  %_34 = getelementptr inbounds %"imp::Waiter", %"imp::Waiter"* %node, i32 0, i32 2, !dbg !1934
  store i8 2, i8* %_35, align 1, !dbg !1935
  %17 = load i8, i8* %_35, align 1, !dbg !1934, !range !1034
; call core::sync::atomic::AtomicBool::load
  %_33 = call zeroext i1 @_ZN4core4sync6atomic10AtomicBool4load17h6bac9222d229c151E(%"std::sync::atomic::AtomicBool"* align 1 dereferenceable(1) %_34, i8 %17), !dbg !1934
  br label %bb10, !dbg !1934

bb10:                                             ; preds = %bb9
  %_32 = xor i1 %_33, true, !dbg !1936
  br i1 %_32, label %bb11, label %bb12, !dbg !1936

bb12:                                             ; preds = %bb10
; call core::ptr::drop_in_place<once_cell::imp::Waiter>
  call void @"_ZN4core3ptr43drop_in_place$LT$once_cell..imp..Waiter$GT$17h3553431b8a11aeaaE"(%"imp::Waiter"* %node), !dbg !1937
  br label %bb13, !dbg !1937

bb11:                                             ; preds = %bb10
; call std::thread::park
  call void @_ZN3std6thread4park17h3ba0c438229a61e5E(), !dbg !1938
  br label %bb9, !dbg !1938

bb13:                                             ; preds = %bb7, %bb12
  ret void, !dbg !1939

bb8:                                              ; preds = %bb6
  store i64 %new_queue, i64* %curr_queue, align 8, !dbg !1940
; call core::ptr::drop_in_place<once_cell::imp::Waiter>
  call void @"_ZN4core3ptr43drop_in_place$LT$once_cell..imp..Waiter$GT$17h3553431b8a11aeaaE"(%"imp::Waiter"* %node), !dbg !1937
  br label %bb1, !dbg !1937

bb7:                                              ; preds = %bb6
; call core::ptr::drop_in_place<once_cell::imp::Waiter>
  call void @"_ZN4core3ptr43drop_in_place$LT$once_cell..imp..Waiter$GT$17h3553431b8a11aeaaE"(%"imp::Waiter"* %node), !dbg !1937
  br label %bb13, !dbg !1937
}

; <once_cell::race::OnceNonZeroUsize as core::fmt::Debug>::fmt
; Function Attrs: nounwind
define zeroext i1 @"_ZN70_$LT$once_cell..race..OnceNonZeroUsize$u20$as$u20$core..fmt..Debug$GT$3fmt17h07da78ab23c9a515E"(%"race::OnceNonZeroUsize"* align 8 dereferenceable(8) %self, %"std::fmt::Formatter"* align 8 dereferenceable(64) %f) unnamed_addr #1 !dbg !1941 {
start:
  %debug_trait_builder.dbg.spill = alloca %"std::fmt::DebugStruct"*, align 8
  %0 = alloca i128, align 8
  %__self_0_0.dbg.spill = alloca %"std::sync::atomic::AtomicUsize"*, align 8
  %f.dbg.spill = alloca %"std::fmt::Formatter"*, align 8
  %self.dbg.spill = alloca %"race::OnceNonZeroUsize"*, align 8
  %_16 = alloca %"std::sync::atomic::AtomicUsize"*, align 8
  %_5 = alloca %"std::fmt::DebugStruct", align 8
  store %"race::OnceNonZeroUsize"* %self, %"race::OnceNonZeroUsize"** %self.dbg.spill, align 8
  call void @llvm.dbg.declare(metadata %"race::OnceNonZeroUsize"** %self.dbg.spill, metadata !1947, metadata !DIExpression()), !dbg !1961
  store %"std::fmt::Formatter"* %f, %"std::fmt::Formatter"** %f.dbg.spill, align 8
  call void @llvm.dbg.declare(metadata %"std::fmt::Formatter"** %f.dbg.spill, metadata !1948, metadata !DIExpression()), !dbg !1961
  %__self_0_0 = bitcast %"race::OnceNonZeroUsize"* %self to %"std::sync::atomic::AtomicUsize"*, !dbg !1962
  store %"std::sync::atomic::AtomicUsize"* %__self_0_0, %"std::sync::atomic::AtomicUsize"** %__self_0_0.dbg.spill, align 8, !dbg !1962
  call void @llvm.dbg.declare(metadata %"std::sync::atomic::AtomicUsize"** %__self_0_0.dbg.spill, metadata !1949, metadata !DIExpression()), !dbg !1963
; call core::fmt::Formatter::debug_struct
  %1 = call i128 @_ZN4core3fmt9Formatter12debug_struct17h750ccbc2327a1bf8E(%"std::fmt::Formatter"* align 8 dereferenceable(64) %f, [0 x i8]* nonnull align 1 bitcast (<{ [16 x i8] }>* @alloc207 to [0 x i8]*), i64 16), !dbg !1964
  store i128 %1, i128* %0, align 8, !dbg !1964
  %2 = bitcast %"std::fmt::DebugStruct"* %_5 to i8*, !dbg !1964
  %3 = bitcast i128* %0 to i8*, !dbg !1964
  call void @llvm.memcpy.p0i8.p0i8.i64(i8* align 8 %2, i8* align 8 %3, i64 16, i1 false), !dbg !1964
  br label %bb1, !dbg !1964

bb1:                                              ; preds = %start
  store %"std::fmt::DebugStruct"* %_5, %"std::fmt::DebugStruct"** %debug_trait_builder.dbg.spill, align 8, !dbg !1964
  call void @llvm.dbg.declare(metadata %"std::fmt::DebugStruct"** %debug_trait_builder.dbg.spill, metadata !1951, metadata !DIExpression()), !dbg !1965
  store %"std::sync::atomic::AtomicUsize"* %__self_0_0, %"std::sync::atomic::AtomicUsize"** %_16, align 8, !dbg !1966
  %_13.0 = bitcast %"std::sync::atomic::AtomicUsize"** %_16 to {}*, !dbg !1966
; call core::fmt::builders::DebugStruct::field
  %_9 = call align 8 dereferenceable(16) %"std::fmt::DebugStruct"* @_ZN4core3fmt8builders11DebugStruct5field17h05961323261879b6E(%"std::fmt::DebugStruct"* align 8 dereferenceable(16) %_5, [0 x i8]* nonnull align 1 bitcast (<{ [5 x i8] }>* @alloc213 to [0 x i8]*), i64 5, {}* nonnull align 1 %_13.0, [3 x i64]* align 8 dereferenceable(24) bitcast (<{ i8*, [16 x i8], i8*, [0 x i8] }>* @vtable.1 to [3 x i64]*)), !dbg !1967
  br label %bb2, !dbg !1967

bb2:                                              ; preds = %bb1
; call core::fmt::builders::DebugStruct::finish
  %4 = call zeroext i1 @_ZN4core3fmt8builders11DebugStruct6finish17hcf4b93cba46a86c7E(%"std::fmt::DebugStruct"* align 8 dereferenceable(16) %_5), !dbg !1967
  br label %bb3, !dbg !1967

bb3:                                              ; preds = %bb2
  ret i1 %4, !dbg !1968
}

; <once_cell::race::OnceBool as core::fmt::Debug>::fmt
; Function Attrs: nounwind
define zeroext i1 @"_ZN62_$LT$once_cell..race..OnceBool$u20$as$u20$core..fmt..Debug$GT$3fmt17hba5cfa268a7a4e9fE"(%"race::OnceBool"* align 8 dereferenceable(8) %self, %"std::fmt::Formatter"* align 8 dereferenceable(64) %f) unnamed_addr #1 !dbg !1969 {
start:
  %debug_trait_builder.dbg.spill = alloca %"std::fmt::DebugStruct"*, align 8
  %0 = alloca i128, align 8
  %__self_0_0.dbg.spill = alloca %"race::OnceNonZeroUsize"*, align 8
  %f.dbg.spill = alloca %"std::fmt::Formatter"*, align 8
  %self.dbg.spill = alloca %"race::OnceBool"*, align 8
  %_16 = alloca %"race::OnceNonZeroUsize"*, align 8
  %_5 = alloca %"std::fmt::DebugStruct", align 8
  store %"race::OnceBool"* %self, %"race::OnceBool"** %self.dbg.spill, align 8
  call void @llvm.dbg.declare(metadata %"race::OnceBool"** %self.dbg.spill, metadata !1978, metadata !DIExpression()), !dbg !1985
  store %"std::fmt::Formatter"* %f, %"std::fmt::Formatter"** %f.dbg.spill, align 8
  call void @llvm.dbg.declare(metadata %"std::fmt::Formatter"** %f.dbg.spill, metadata !1979, metadata !DIExpression()), !dbg !1985
  %__self_0_0 = bitcast %"race::OnceBool"* %self to %"race::OnceNonZeroUsize"*, !dbg !1986
  store %"race::OnceNonZeroUsize"* %__self_0_0, %"race::OnceNonZeroUsize"** %__self_0_0.dbg.spill, align 8, !dbg !1986
  call void @llvm.dbg.declare(metadata %"race::OnceNonZeroUsize"** %__self_0_0.dbg.spill, metadata !1980, metadata !DIExpression()), !dbg !1987
; call core::fmt::Formatter::debug_struct
  %1 = call i128 @_ZN4core3fmt9Formatter12debug_struct17h750ccbc2327a1bf8E(%"std::fmt::Formatter"* align 8 dereferenceable(64) %f, [0 x i8]* nonnull align 1 bitcast (<{ [8 x i8] }>* @alloc212 to [0 x i8]*), i64 8), !dbg !1988
  store i128 %1, i128* %0, align 8, !dbg !1988
  %2 = bitcast %"std::fmt::DebugStruct"* %_5 to i8*, !dbg !1988
  %3 = bitcast i128* %0 to i8*, !dbg !1988
  call void @llvm.memcpy.p0i8.p0i8.i64(i8* align 8 %2, i8* align 8 %3, i64 16, i1 false), !dbg !1988
  br label %bb1, !dbg !1988

bb1:                                              ; preds = %start
  store %"std::fmt::DebugStruct"* %_5, %"std::fmt::DebugStruct"** %debug_trait_builder.dbg.spill, align 8, !dbg !1988
  call void @llvm.dbg.declare(metadata %"std::fmt::DebugStruct"** %debug_trait_builder.dbg.spill, metadata !1982, metadata !DIExpression()), !dbg !1989
  store %"race::OnceNonZeroUsize"* %__self_0_0, %"race::OnceNonZeroUsize"** %_16, align 8, !dbg !1990
  %_13.0 = bitcast %"race::OnceNonZeroUsize"** %_16 to {}*, !dbg !1990
; call core::fmt::builders::DebugStruct::field
  %_9 = call align 8 dereferenceable(16) %"std::fmt::DebugStruct"* @_ZN4core3fmt8builders11DebugStruct5field17h05961323261879b6E(%"std::fmt::DebugStruct"* align 8 dereferenceable(16) %_5, [0 x i8]* nonnull align 1 bitcast (<{ [5 x i8] }>* @alloc213 to [0 x i8]*), i64 5, {}* nonnull align 1 %_13.0, [3 x i64]* align 8 dereferenceable(24) bitcast (<{ i8*, [16 x i8], i8*, [0 x i8] }>* @vtable.2 to [3 x i64]*)), !dbg !1991
  br label %bb2, !dbg !1991

bb2:                                              ; preds = %bb1
; call core::fmt::builders::DebugStruct::finish
  %4 = call zeroext i1 @_ZN4core3fmt8builders11DebugStruct6finish17hcf4b93cba46a86c7E(%"std::fmt::DebugStruct"* align 8 dereferenceable(16) %_5), !dbg !1991
  br label %bb3, !dbg !1991

bb3:                                              ; preds = %bb2
  ret i1 %4, !dbg !1992
}

; Function Attrs: nofree nosync nounwind readnone speculatable willreturn
declare void @llvm.dbg.declare(metadata, metadata, metadata) #4

; std::sys_common::thread_parker::generic::Parker::unpark
; Function Attrs: nounwind
declare void @_ZN3std10sys_common13thread_parker7generic6Parker6unpark17h7c5c7a1f405ab637E(%"std::sys_common::thread_parker::generic::Parker"* align 8 dereferenceable(40)) unnamed_addr #1

; <core::sync::atomic::AtomicUsize as core::fmt::Debug>::fmt
; Function Attrs: nounwind
declare zeroext i1 @"_ZN68_$LT$core..sync..atomic..AtomicUsize$u20$as$u20$core..fmt..Debug$GT$3fmt17hce4030d0e0d16d94E"(%"std::sync::atomic::AtomicUsize"* align 8 dereferenceable(8), %"std::fmt::Formatter"* align 8 dereferenceable(64)) unnamed_addr #1

; core::fmt::Formatter::debug_lower_hex
; Function Attrs: nounwind
declare zeroext i1 @_ZN4core3fmt9Formatter15debug_lower_hex17h636482c5eb85995eE(%"std::fmt::Formatter"* align 8 dereferenceable(64)) unnamed_addr #1

; core::fmt::num::<impl core::fmt::LowerHex for usize>::fmt
; Function Attrs: nounwind
declare zeroext i1 @"_ZN4core3fmt3num55_$LT$impl$u20$core..fmt..LowerHex$u20$for$u20$usize$GT$3fmt17h1a12a50969152654E"(i64* align 8 dereferenceable(8), %"std::fmt::Formatter"* align 8 dereferenceable(64)) unnamed_addr #1

; core::fmt::Formatter::debug_upper_hex
; Function Attrs: nounwind
declare zeroext i1 @_ZN4core3fmt9Formatter15debug_upper_hex17habda22bb62de5f0bE(%"std::fmt::Formatter"* align 8 dereferenceable(64)) unnamed_addr #1

; core::fmt::num::<impl core::fmt::UpperHex for usize>::fmt
; Function Attrs: nounwind
declare zeroext i1 @"_ZN4core3fmt3num55_$LT$impl$u20$core..fmt..UpperHex$u20$for$u20$usize$GT$3fmt17h571918675fe47debE"(i64* align 8 dereferenceable(8), %"std::fmt::Formatter"* align 8 dereferenceable(64)) unnamed_addr #1

; core::fmt::num::imp::<impl core::fmt::Display for usize>::fmt
; Function Attrs: nounwind
declare zeroext i1 @"_ZN4core3fmt3num3imp54_$LT$impl$u20$core..fmt..Display$u20$for$u20$usize$GT$3fmt17hcb6674a6899bd26aE"(i64* align 8 dereferenceable(8), %"std::fmt::Formatter"* align 8 dereferenceable(64)) unnamed_addr #1

; Function Attrs: argmemonly nofree nounwind willreturn
declare void @llvm.memcpy.p0i8.p0i8.i64(i8* noalias nocapture writeonly, i8* noalias nocapture readonly, i64, i1 immarg) #5

; <std::sys_common::condvar::Condvar as core::ops::drop::Drop>::drop
; Function Attrs: nounwind
declare void @"_ZN75_$LT$std..sys_common..condvar..Condvar$u20$as$u20$core..ops..drop..Drop$GT$4drop17h145b148db91e623eE"(%"std::sys_common::condvar::Condvar"* align 8 dereferenceable(16)) unnamed_addr #1

; <std::sys_common::mutex::MovableMutex as core::ops::drop::Drop>::drop
; Function Attrs: nounwind
declare void @"_ZN78_$LT$std..sys_common..mutex..MovableMutex$u20$as$u20$core..ops..drop..Drop$GT$4drop17h61305c93115c5488E"(i8** align 8 dereferenceable(8)) unnamed_addr #1

; Function Attrs: inaccessiblememonly nofree nosync nounwind willreturn
declare void @llvm.assume(i1 noundef) #6

; core::panicking::panic
; Function Attrs: cold noinline noreturn nounwind
declare void @_ZN4core9panicking5panic17h560e3e4b7752857aE([0 x i8]* nonnull align 1, i64, %"std::panic::Location"* align 8 dereferenceable(24)) unnamed_addr #7

; core::panicking::assert_failed_inner
; Function Attrs: noreturn nounwind
declare void @_ZN4core9panicking19assert_failed_inner17hb980cfe34185be0eE(i8, {}* nonnull align 1, [3 x i64]* align 8 dereferenceable(24), {}* nonnull align 1, [3 x i64]* align 8 dereferenceable(24), %"std::option::Option<std::fmt::Arguments>"* noalias nocapture dereferenceable(48), %"std::panic::Location"* align 8 dereferenceable(24)) unnamed_addr #8

; Function Attrs: nounwind
declare void @__rust_dealloc(i8*, i64, i64) unnamed_addr #1

; std::thread::current
; Function Attrs: nounwind
declare nonnull i64* @_ZN3std6thread7current17h98daf07618069746E() unnamed_addr #1

; std::thread::park
; Function Attrs: nounwind
declare void @_ZN3std6thread4park17h3ba0c438229a61e5E() unnamed_addr #1

; core::fmt::Formatter::debug_struct
; Function Attrs: nounwind
declare i128 @_ZN4core3fmt9Formatter12debug_struct17h750ccbc2327a1bf8E(%"std::fmt::Formatter"* align 8 dereferenceable(64), [0 x i8]* nonnull align 1, i64) unnamed_addr #1

; core::fmt::builders::DebugStruct::field
; Function Attrs: nounwind
declare align 8 dereferenceable(16) %"std::fmt::DebugStruct"* @_ZN4core3fmt8builders11DebugStruct5field17h05961323261879b6E(%"std::fmt::DebugStruct"* align 8 dereferenceable(16), [0 x i8]* nonnull align 1, i64, {}* nonnull align 1, [3 x i64]* align 8 dereferenceable(24)) unnamed_addr #1

; core::fmt::builders::DebugStruct::finish
; Function Attrs: nounwind
declare zeroext i1 @_ZN4core3fmt8builders11DebugStruct6finish17hcf4b93cba46a86c7E(%"std::fmt::DebugStruct"* align 8 dereferenceable(16)) unnamed_addr #1

attributes #0 = { inlinehint nounwind "target-cpu"="generic" }
attributes #1 = { nounwind "target-cpu"="generic" }
attributes #2 = { cold noreturn nounwind "target-cpu"="generic" }
attributes #3 = { noinline nounwind "target-cpu"="generic" }
attributes #4 = { nofree nosync nounwind readnone speculatable willreturn }
attributes #5 = { argmemonly nofree nounwind willreturn }
attributes #6 = { inaccessiblememonly nofree nosync nounwind willreturn }
attributes #7 = { cold noinline noreturn nounwind "target-cpu"="generic" }
attributes #8 = { noreturn nounwind "target-cpu"="generic" }

!llvm.module.flags = !{!32, !33}
!llvm.dbg.cu = !{!34}

!0 = !DIGlobalVariableExpression(var: !1, expr: !DIExpression())
!1 = distinct !DIGlobalVariable(name: "vtable", scope: null, file: !2, type: !3, isLocal: true, isDefinition: true)
!2 = !DIFile(filename: "<unknown>", directory: "")
!3 = !DICompositeType(tag: DW_TAG_structure_type, name: "vtable", file: !2, align: 64, flags: DIFlagArtificial, elements: !4, vtableHolder: !5, identifier: "vtable")
!4 = !{}
!5 = !DIDerivedType(tag: DW_TAG_pointer_type, name: "&usize", baseType: !6, size: 64, align: 64, dwarfAddressSpace: 0)
!6 = !DIBasicType(name: "usize", size: 64, encoding: DW_ATE_unsigned)
!7 = !DIGlobalVariableExpression(var: !8, expr: !DIExpression())
!8 = distinct !DIGlobalVariable(name: "vtable", scope: null, file: !2, type: !9, isLocal: true, isDefinition: true)
!9 = !DICompositeType(tag: DW_TAG_structure_type, name: "vtable", file: !2, align: 64, flags: DIFlagArtificial, elements: !4, vtableHolder: !10, identifier: "vtable")
!10 = !DIDerivedType(tag: DW_TAG_pointer_type, name: "&AtomicUsize", baseType: !11, size: 64, align: 64, dwarfAddressSpace: 0)
!11 = !DICompositeType(tag: DW_TAG_structure_type, name: "AtomicUsize", scope: !12, file: !2, size: 64, align: 64, elements: !15, templateParams: !4, identifier: "5e41b245074eac955bc5023e46066561")
!12 = !DINamespace(name: "atomic", scope: !13)
!13 = !DINamespace(name: "sync", scope: !14)
!14 = !DINamespace(name: "core", scope: null)
!15 = !{!16}
!16 = !DIDerivedType(tag: DW_TAG_member, name: "v", scope: !11, file: !2, baseType: !17, size: 64, align: 64)
!17 = !DICompositeType(tag: DW_TAG_structure_type, name: "UnsafeCell<usize>", scope: !18, file: !2, size: 64, align: 64, elements: !19, templateParams: !21, identifier: "df37019b130d2c01fbc34865afbd6522")
!18 = !DINamespace(name: "cell", scope: !14)
!19 = !{!20}
!20 = !DIDerivedType(tag: DW_TAG_member, name: "value", scope: !17, file: !2, baseType: !6, size: 64, align: 64)
!21 = !{!22}
!22 = !DITemplateTypeParameter(name: "T", type: !6)
!23 = !DIGlobalVariableExpression(var: !24, expr: !DIExpression())
!24 = distinct !DIGlobalVariable(name: "vtable", scope: null, file: !2, type: !25, isLocal: true, isDefinition: true)
!25 = !DICompositeType(tag: DW_TAG_structure_type, name: "vtable", file: !2, align: 64, flags: DIFlagArtificial, elements: !4, vtableHolder: !26, identifier: "vtable")
!26 = !DIDerivedType(tag: DW_TAG_pointer_type, name: "&OnceNonZeroUsize", baseType: !27, size: 64, align: 64, dwarfAddressSpace: 0)
!27 = !DICompositeType(tag: DW_TAG_structure_type, name: "OnceNonZeroUsize", scope: !28, file: !2, size: 64, align: 64, elements: !30, templateParams: !4, identifier: "9fcc320b57fab02718b11712b693f25b")
!28 = !DINamespace(name: "race", scope: !29)
!29 = !DINamespace(name: "once_cell", scope: null)
!30 = !{!31}
!31 = !DIDerivedType(tag: DW_TAG_member, name: "inner", scope: !27, file: !2, baseType: !11, size: 64, align: 64)
!32 = !{i32 7, !"PIC Level", i32 2}
!33 = !{i32 2, !"Debug Info Version", i32 3}
!34 = distinct !DICompileUnit(language: DW_LANG_Rust, file: !35, producer: "clang LLVM (rustc version 1.56.0-dev)", isOptimized: false, runtimeVersion: 0, emissionKind: FullDebug, enums: !36, globals: !65)
!35 = !DIFile(filename: "/home/chinedum/.cargo/registry/src/github.com-1ecc6299db9ec823/once_cell-1.13.0/src/lib.rs", directory: "/home/chinedum/.cargo/registry/src/github.com-1ecc6299db9ec823/once_cell-1.13.0")
!36 = !{!37, !43, !52, !59}
!37 = !DICompositeType(tag: DW_TAG_enumeration_type, name: "Result", scope: !38, file: !2, baseType: !39, size: 8, align: 8, flags: DIFlagEnumClass, elements: !40)
!38 = !DINamespace(name: "result", scope: !14)
!39 = !DIBasicType(name: "u8", size: 8, encoding: DW_ATE_unsigned)
!40 = !{!41, !42}
!41 = !DIEnumerator(name: "Ok", value: 0)
!42 = !DIEnumerator(name: "Err", value: 1)
!43 = !DICompositeType(tag: DW_TAG_enumeration_type, name: "Alignment", scope: !44, file: !2, baseType: !39, size: 8, align: 8, flags: DIFlagEnumClass, elements: !47)
!44 = !DINamespace(name: "v1", scope: !45)
!45 = !DINamespace(name: "rt", scope: !46)
!46 = !DINamespace(name: "fmt", scope: !14)
!47 = !{!48, !49, !50, !51}
!48 = !DIEnumerator(name: "Left", value: 0)
!49 = !DIEnumerator(name: "Right", value: 1)
!50 = !DIEnumerator(name: "Center", value: 2)
!51 = !DIEnumerator(name: "Unknown", value: 3)
!52 = !DICompositeType(tag: DW_TAG_enumeration_type, name: "Ordering", scope: !12, file: !2, baseType: !39, size: 8, align: 8, flags: DIFlagEnumClass, elements: !53)
!53 = !{!54, !55, !56, !57, !58}
!54 = !DIEnumerator(name: "Relaxed", value: 0)
!55 = !DIEnumerator(name: "Release", value: 1)
!56 = !DIEnumerator(name: "Acquire", value: 2)
!57 = !DIEnumerator(name: "AcqRel", value: 3)
!58 = !DIEnumerator(name: "SeqCst", value: 4)
!59 = !DICompositeType(tag: DW_TAG_enumeration_type, name: "AssertKind", scope: !60, file: !2, baseType: !39, size: 8, align: 8, flags: DIFlagEnumClass, elements: !61)
!60 = !DINamespace(name: "panicking", scope: !14)
!61 = !{!62, !63, !64}
!62 = !DIEnumerator(name: "Eq", value: 0)
!63 = !DIEnumerator(name: "Ne", value: 1)
!64 = !DIEnumerator(name: "Match", value: 2)
!65 = !{!0, !7, !23}
!66 = distinct !DISubprogram(name: "from<u8>", linkageName: "_ZN119_$LT$core..ptr..non_null..NonNull$LT$T$GT$$u20$as$u20$core..convert..From$LT$core..ptr..unique..Unique$LT$T$GT$$GT$$GT$4from17h4e53aa90cdddc93dE", scope: !68, file: !67, line: 690, type: !71, scopeLine: 690, flags: DIFlagPrototyped, spFlags: DISPFlagLocalToUnit | DISPFlagDefinition, unit: !34, templateParams: !77, retainedNodes: !86)
!67 = !DIFile(filename: "/home/runner/work/bpf-tools/bpf-tools/out/rust/library/core/src/ptr/non_null.rs", directory: "", checksumkind: CSK_MD5, checksum: "c5d45e507157c14ac9b8f7e5ac0abc2b")
!68 = !DINamespace(name: "{impl#16}", scope: !69)
!69 = !DINamespace(name: "non_null", scope: !70)
!70 = !DINamespace(name: "ptr", scope: !14)
!71 = !DISubroutineType(types: !72)
!72 = !{!73, !79}
!73 = !DICompositeType(tag: DW_TAG_structure_type, name: "NonNull<u8>", scope: !69, file: !2, size: 64, align: 64, elements: !74, templateParams: !77, identifier: "406fec2678b8bb45d8db3433ccc0ff79")
!74 = !{!75}
!75 = !DIDerivedType(tag: DW_TAG_member, name: "pointer", scope: !73, file: !2, baseType: !76, size: 64, align: 64)
!76 = !DIDerivedType(tag: DW_TAG_pointer_type, name: "*const u8", baseType: !39, size: 64, align: 64, dwarfAddressSpace: 0)
!77 = !{!78}
!78 = !DITemplateTypeParameter(name: "T", type: !39)
!79 = !DICompositeType(tag: DW_TAG_structure_type, name: "Unique<u8>", scope: !80, file: !2, size: 64, align: 64, elements: !81, templateParams: !77, identifier: "76ad11c5918345b022d81965d637386")
!80 = !DINamespace(name: "unique", scope: !70)
!81 = !{!82, !83}
!82 = !DIDerivedType(tag: DW_TAG_member, name: "pointer", scope: !79, file: !2, baseType: !76, size: 64, align: 64)
!83 = !DIDerivedType(tag: DW_TAG_member, name: "_marker", scope: !79, file: !2, baseType: !84, align: 8)
!84 = !DICompositeType(tag: DW_TAG_structure_type, name: "PhantomData<u8>", scope: !85, file: !2, align: 8, elements: !4, templateParams: !77, identifier: "d9180f7e28d2761ea11f32bda27bf4b6")
!85 = !DINamespace(name: "marker", scope: !14)
!86 = !{!87}
!87 = !DILocalVariable(name: "unique", arg: 1, scope: !66, file: !67, line: 690, type: !79)
!88 = !DILocation(line: 690, column: 13, scope: !66)
!89 = !DILocation(line: 693, column: 41, scope: !66)
!90 = !DILocation(line: 693, column: 18, scope: !66)
!91 = !DILocation(line: 694, column: 6, scope: !66)
!92 = distinct !DISubprogram(name: "unpark", linkageName: "_ZN3std6thread6Thread6unpark17h49c8ec9aec038c4dE", scope: !94, file: !93, line: 1175, type: !228, scopeLine: 1175, flags: DIFlagPrototyped, spFlags: DISPFlagLocalToUnit | DISPFlagDefinition, unit: !34, templateParams: !4, retainedNodes: !231)
!93 = !DIFile(filename: "/home/runner/work/bpf-tools/bpf-tools/out/rust/library/std/src/thread/mod.rs", directory: "", checksumkind: CSK_MD5, checksum: "ee297decc75675eda8038b5225e72528")
!94 = !DICompositeType(tag: DW_TAG_structure_type, name: "Thread", scope: !95, file: !2, size: 64, align: 64, elements: !97, templateParams: !4, identifier: "a2a2c2a56481fb881a7eb6e01c9c89c4")
!95 = !DINamespace(name: "thread", scope: !96)
!96 = !DINamespace(name: "std", scope: null)
!97 = !{!98}
!98 = !DIDerivedType(tag: DW_TAG_member, name: "inner", scope: !94, file: !2, baseType: !99, size: 64, align: 64)
!99 = !DICompositeType(tag: DW_TAG_structure_type, name: "Arc<std::thread::Inner>", scope: !100, file: !2, size: 64, align: 64, elements: !102, templateParams: !222, identifier: "399839f28d289b51e76fbfc8f73895ab")
!100 = !DINamespace(name: "sync", scope: !101)
!101 = !DINamespace(name: "alloc", scope: null)
!102 = !{!103, !226}
!103 = !DIDerivedType(tag: DW_TAG_member, name: "ptr", scope: !99, file: !2, baseType: !104, size: 64, align: 64)
!104 = !DICompositeType(tag: DW_TAG_structure_type, name: "NonNull<alloc::sync::ArcInner<std::thread::Inner>>", scope: !69, file: !2, size: 64, align: 64, elements: !105, templateParams: !224, identifier: "e88946256462d456db13d8e314de6596")
!105 = !{!106}
!106 = !DIDerivedType(tag: DW_TAG_member, name: "pointer", scope: !104, file: !2, baseType: !107, size: 64, align: 64)
!107 = !DIDerivedType(tag: DW_TAG_pointer_type, name: "*const ArcInner<std::thread::Inner>", baseType: !108, size: 64, align: 64, dwarfAddressSpace: 0)
!108 = !DICompositeType(tag: DW_TAG_structure_type, name: "ArcInner<std::thread::Inner>", scope: !100, file: !2, size: 640, align: 64, elements: !109, templateParams: !222, identifier: "b6c840a43d4f180afe9725f007775656")
!109 = !{!110, !111, !112}
!110 = !DIDerivedType(tag: DW_TAG_member, name: "strong", scope: !108, file: !2, baseType: !11, size: 64, align: 64)
!111 = !DIDerivedType(tag: DW_TAG_member, name: "weak", scope: !108, file: !2, baseType: !11, size: 64, align: 64, offset: 64)
!112 = !DIDerivedType(tag: DW_TAG_member, name: "data", scope: !108, file: !2, baseType: !113, size: 512, align: 64, offset: 128)
!113 = !DICompositeType(tag: DW_TAG_structure_type, name: "Inner", scope: !95, file: !2, size: 512, align: 64, elements: !114, templateParams: !4, identifier: "7590b2094bafe2305ec36b1a296b9b3")
!114 = !{!115, !148, !157}
!115 = !DIDerivedType(tag: DW_TAG_member, name: "name", scope: !113, file: !2, baseType: !116, size: 128, align: 64)
!116 = !DICompositeType(tag: DW_TAG_structure_type, name: "Option<std::ffi::c_str::CString>", scope: !117, file: !2, size: 128, align: 64, elements: !118, identifier: "19c748e11c7d5f51ef35a5828a0443a3")
!117 = !DINamespace(name: "option", scope: !14)
!118 = !{!119}
!119 = !DICompositeType(tag: DW_TAG_variant_part, scope: !117, file: !2, size: 128, align: 64, elements: !120, templateParams: !123, identifier: "19c748e11c7d5f51ef35a5828a0443a3_variant_part", discriminator: !146)
!120 = !{!121, !142}
!121 = !DIDerivedType(tag: DW_TAG_member, name: "None", scope: !119, file: !2, baseType: !122, size: 128, align: 64, extraData: i64 0)
!122 = !DICompositeType(tag: DW_TAG_structure_type, name: "None", scope: !116, file: !2, size: 128, align: 64, elements: !4, templateParams: !123, identifier: "19c748e11c7d5f51ef35a5828a0443a3::None")
!123 = !{!124}
!124 = !DITemplateTypeParameter(name: "T", type: !125)
!125 = !DICompositeType(tag: DW_TAG_structure_type, name: "CString", scope: !126, file: !2, size: 128, align: 64, elements: !128, templateParams: !4, identifier: "839ab753bf6674f3b648cd0fddce5660")
!126 = !DINamespace(name: "c_str", scope: !127)
!127 = !DINamespace(name: "ffi", scope: !96)
!128 = !{!129}
!129 = !DIDerivedType(tag: DW_TAG_member, name: "inner", scope: !125, file: !2, baseType: !130, size: 128, align: 64)
!130 = !DICompositeType(tag: DW_TAG_structure_type, name: "alloc::boxed::Box<[u8], alloc::alloc::Global>", file: !2, size: 128, align: 64, elements: !131, templateParams: !134, identifier: "b59722a6be25bb6578cf3d4b11e88249")
!131 = !{!132, !133}
!132 = !DIDerivedType(tag: DW_TAG_member, name: "data_ptr", scope: !130, file: !2, baseType: !76, size: 64, align: 64)
!133 = !DIDerivedType(tag: DW_TAG_member, name: "length", scope: !130, file: !2, baseType: !6, size: 64, align: 64, offset: 64)
!134 = !{!135, !139}
!135 = !DITemplateTypeParameter(name: "T", type: !136)
!136 = !DICompositeType(tag: DW_TAG_array_type, baseType: !39, align: 8, elements: !137)
!137 = !{!138}
!138 = !DISubrange(count: -1, lowerBound: 0)
!139 = !DITemplateTypeParameter(name: "A", type: !140)
!140 = !DICompositeType(tag: DW_TAG_structure_type, name: "Global", scope: !141, file: !2, align: 8, elements: !4, templateParams: !4, identifier: "9d0734f8822fbd33e4e561ab380af08d")
!141 = !DINamespace(name: "alloc", scope: !101)
!142 = !DIDerivedType(tag: DW_TAG_member, name: "Some", scope: !119, file: !2, baseType: !143, size: 128, align: 64)
!143 = !DICompositeType(tag: DW_TAG_structure_type, name: "Some", scope: !116, file: !2, size: 128, align: 64, elements: !144, templateParams: !123, identifier: "19c748e11c7d5f51ef35a5828a0443a3::Some")
!144 = !{!145}
!145 = !DIDerivedType(tag: DW_TAG_member, name: "__0", scope: !143, file: !2, baseType: !125, size: 128, align: 64)
!146 = !DIDerivedType(tag: DW_TAG_member, scope: !117, file: !2, baseType: !147, size: 64, align: 64, flags: DIFlagArtificial)
!147 = !DIBasicType(name: "u64", size: 64, encoding: DW_ATE_unsigned)
!148 = !DIDerivedType(tag: DW_TAG_member, name: "id", scope: !113, file: !2, baseType: !149, size: 64, align: 64, offset: 128)
!149 = !DICompositeType(tag: DW_TAG_structure_type, name: "ThreadId", scope: !95, file: !2, size: 64, align: 64, elements: !150, templateParams: !4, identifier: "9fbb44571d59bf2b1c86dc63dce25f9c")
!150 = !{!151}
!151 = !DIDerivedType(tag: DW_TAG_member, name: "__0", scope: !149, file: !2, baseType: !152, size: 64, align: 64)
!152 = !DICompositeType(tag: DW_TAG_structure_type, name: "NonZeroU64", scope: !153, file: !2, size: 64, align: 64, elements: !155, templateParams: !4, identifier: "1e41a93ffc1e9a86a10273503e90f1e7")
!153 = !DINamespace(name: "nonzero", scope: !154)
!154 = !DINamespace(name: "num", scope: !14)
!155 = !{!156}
!156 = !DIDerivedType(tag: DW_TAG_member, name: "__0", scope: !152, file: !2, baseType: !147, size: 64, align: 64)
!157 = !DIDerivedType(tag: DW_TAG_member, name: "parker", scope: !113, file: !2, baseType: !158, size: 320, align: 64, offset: 192)
!158 = !DICompositeType(tag: DW_TAG_structure_type, name: "Parker", scope: !159, file: !2, size: 320, align: 64, elements: !162, templateParams: !4, identifier: "5cd505a94c61673a6b17193689631081")
!159 = !DINamespace(name: "generic", scope: !160)
!160 = !DINamespace(name: "thread_parker", scope: !161)
!161 = !DINamespace(name: "sys_common", scope: !96)
!162 = !{!163, !164, !205}
!163 = !DIDerivedType(tag: DW_TAG_member, name: "state", scope: !158, file: !2, baseType: !11, size: 64, align: 64)
!164 = !DIDerivedType(tag: DW_TAG_member, name: "lock", scope: !158, file: !2, baseType: !165, size: 128, align: 64, offset: 64)
!165 = !DICompositeType(tag: DW_TAG_structure_type, name: "Mutex<()>", scope: !166, file: !2, size: 128, align: 64, elements: !168, templateParams: !203, identifier: "c877ed3440fbdf58e2aeed8f758e4412")
!166 = !DINamespace(name: "mutex", scope: !167)
!167 = !DINamespace(name: "sync", scope: !96)
!168 = !{!169, !187, !198}
!169 = !DIDerivedType(tag: DW_TAG_member, name: "inner", scope: !165, file: !2, baseType: !170, size: 64, align: 64)
!170 = !DICompositeType(tag: DW_TAG_structure_type, name: "MovableMutex", scope: !171, file: !2, size: 64, align: 64, elements: !172, templateParams: !4, identifier: "11fefaf6ce17553de8c18e693c9ffb8b")
!171 = !DINamespace(name: "mutex", scope: !161)
!172 = !{!173}
!173 = !DIDerivedType(tag: DW_TAG_member, name: "__0", scope: !170, file: !2, baseType: !174, size: 64, align: 64)
!174 = !DIDerivedType(tag: DW_TAG_pointer_type, name: "Box<std::sys::sbf::mutex::Mutex, alloc::alloc::Global>", baseType: !175, size: 64, align: 64, dwarfAddressSpace: 0)
!175 = !DICompositeType(tag: DW_TAG_structure_type, name: "Mutex", scope: !176, file: !2, size: 8, align: 8, elements: !179, templateParams: !4, identifier: "ee97b508b1363844ffebba9dec77d76")
!176 = !DINamespace(name: "mutex", scope: !177)
!177 = !DINamespace(name: "sbf", scope: !178)
!178 = !DINamespace(name: "sys", scope: !96)
!179 = !{!180}
!180 = !DIDerivedType(tag: DW_TAG_member, name: "inner", scope: !175, file: !2, baseType: !181, size: 8, align: 8)
!181 = !DICompositeType(tag: DW_TAG_structure_type, name: "UnsafeCell<bool>", scope: !18, file: !2, size: 8, align: 8, elements: !182, templateParams: !185, identifier: "1d2efc1eecbe52d0c968aad4ca26331")
!182 = !{!183}
!183 = !DIDerivedType(tag: DW_TAG_member, name: "value", scope: !181, file: !2, baseType: !184, size: 8, align: 8)
!184 = !DIBasicType(name: "bool", size: 8, encoding: DW_ATE_boolean)
!185 = !{!186}
!186 = !DITemplateTypeParameter(name: "T", type: !184)
!187 = !DIDerivedType(tag: DW_TAG_member, name: "poison", scope: !165, file: !2, baseType: !188, size: 8, align: 8, offset: 64)
!188 = !DICompositeType(tag: DW_TAG_structure_type, name: "Flag", scope: !189, file: !2, size: 8, align: 8, elements: !190, templateParams: !4, identifier: "2287df844b97ce7e2ac5b6e5b5d659f9")
!189 = !DINamespace(name: "poison", scope: !167)
!190 = !{!191}
!191 = !DIDerivedType(tag: DW_TAG_member, name: "failed", scope: !188, file: !2, baseType: !192, size: 8, align: 8)
!192 = !DICompositeType(tag: DW_TAG_structure_type, name: "AtomicBool", scope: !12, file: !2, size: 8, align: 8, elements: !193, templateParams: !4, identifier: "ac8b099912c8a0b29442ebcbb2c8ea79")
!193 = !{!194}
!194 = !DIDerivedType(tag: DW_TAG_member, name: "v", scope: !192, file: !2, baseType: !195, size: 8, align: 8)
!195 = !DICompositeType(tag: DW_TAG_structure_type, name: "UnsafeCell<u8>", scope: !18, file: !2, size: 8, align: 8, elements: !196, templateParams: !77, identifier: "5e9abfe57acac594c6b4d5ace44dc91c")
!196 = !{!197}
!197 = !DIDerivedType(tag: DW_TAG_member, name: "value", scope: !195, file: !2, baseType: !39, size: 8, align: 8)
!198 = !DIDerivedType(tag: DW_TAG_member, name: "data", scope: !165, file: !2, baseType: !199, align: 8, offset: 72)
!199 = !DICompositeType(tag: DW_TAG_structure_type, name: "UnsafeCell<()>", scope: !18, file: !2, align: 8, elements: !200, templateParams: !203, identifier: "54e48b01b3396e13bdcd619567a2cf86")
!200 = !{!201}
!201 = !DIDerivedType(tag: DW_TAG_member, name: "value", scope: !199, file: !2, baseType: !202, align: 8)
!202 = !DIBasicType(name: "()", encoding: DW_ATE_unsigned)
!203 = !{!204}
!204 = !DITemplateTypeParameter(name: "T", type: !202)
!205 = !DIDerivedType(tag: DW_TAG_member, name: "cvar", scope: !158, file: !2, baseType: !206, size: 128, align: 64, offset: 192)
!206 = !DICompositeType(tag: DW_TAG_structure_type, name: "Condvar", scope: !207, file: !2, size: 128, align: 64, elements: !208, templateParams: !4, identifier: "a8ec5e8321e8200ca1b4ce8f571c9714")
!207 = !DINamespace(name: "condvar", scope: !167)
!208 = !{!209}
!209 = !DIDerivedType(tag: DW_TAG_member, name: "inner", scope: !206, file: !2, baseType: !210, size: 128, align: 64)
!210 = !DICompositeType(tag: DW_TAG_structure_type, name: "Condvar", scope: !211, file: !2, size: 128, align: 64, elements: !212, templateParams: !4, identifier: "7d2ed72ecc877b9946b2688a7dfacda0")
!211 = !DINamespace(name: "condvar", scope: !161)
!212 = !{!213, !217}
!213 = !DIDerivedType(tag: DW_TAG_member, name: "inner", scope: !210, file: !2, baseType: !214, size: 64, align: 64)
!214 = !DIDerivedType(tag: DW_TAG_pointer_type, name: "Box<std::sys::sbf::condvar::Condvar, alloc::alloc::Global>", baseType: !215, size: 64, align: 64, dwarfAddressSpace: 0)
!215 = !DICompositeType(tag: DW_TAG_structure_type, name: "Condvar", scope: !216, file: !2, align: 8, elements: !4, templateParams: !4, identifier: "524ebdfed447f5086ff1bc9f99b960f1")
!216 = !DINamespace(name: "condvar", scope: !177)
!217 = !DIDerivedType(tag: DW_TAG_member, name: "check", scope: !210, file: !2, baseType: !218, size: 64, align: 64, offset: 64)
!218 = !DICompositeType(tag: DW_TAG_structure_type, name: "SameMutexCheck", scope: !219, file: !2, size: 64, align: 64, elements: !220, templateParams: !4, identifier: "5aa845b4d55f1c3486fdc9e7cb31d136")
!219 = !DINamespace(name: "check", scope: !211)
!220 = !{!221}
!221 = !DIDerivedType(tag: DW_TAG_member, name: "addr", scope: !218, file: !2, baseType: !11, size: 64, align: 64)
!222 = !{!223}
!223 = !DITemplateTypeParameter(name: "T", type: !113)
!224 = !{!225}
!225 = !DITemplateTypeParameter(name: "T", type: !108)
!226 = !DIDerivedType(tag: DW_TAG_member, name: "phantom", scope: !99, file: !2, baseType: !227, align: 8)
!227 = !DICompositeType(tag: DW_TAG_structure_type, name: "PhantomData<alloc::sync::ArcInner<std::thread::Inner>>", scope: !85, file: !2, align: 8, elements: !4, templateParams: !224, identifier: "1df19217760f73b1cb5d05a2bc5fdd92")
!228 = !DISubroutineType(types: !229)
!229 = !{null, !230}
!230 = !DIDerivedType(tag: DW_TAG_pointer_type, name: "&Thread", baseType: !94, size: 64, align: 64, dwarfAddressSpace: 0)
!231 = !{!232}
!232 = !DILocalVariable(name: "self", arg: 1, scope: !92, file: !93, line: 1175, type: !230)
!233 = !DILocation(line: 1175, column: 19, scope: !92)
!234 = !DILocation(line: 1176, column: 9, scope: !92)
!235 = !DILocation(line: 1177, column: 6, scope: !92)
!236 = distinct !DISubprogram(name: "fmt<usize>", linkageName: "_ZN42_$LT$$RF$T$u20$as$u20$core..fmt..Debug$GT$3fmt17h17372f90346f32e8E", scope: !238, file: !237, line: 2088, type: !239, scopeLine: 2088, flags: DIFlagPrototyped, spFlags: DISPFlagLocalToUnit | DISPFlagDefinition, unit: !34, templateParams: !21, retainedNodes: !272)
!237 = !DIFile(filename: "/home/runner/work/bpf-tools/bpf-tools/out/rust/library/core/src/fmt/mod.rs", directory: "", checksumkind: CSK_MD5, checksum: "fc8dfb4543b7986b6225b25d4f76a5ce")
!238 = !DINamespace(name: "{impl#51}", scope: !46)
!239 = !DISubroutineType(types: !240)
!240 = !{!37, !241, !242}
!241 = !DIDerivedType(tag: DW_TAG_pointer_type, name: "&&usize", baseType: !5, size: 64, align: 64, dwarfAddressSpace: 0)
!242 = !DIDerivedType(tag: DW_TAG_pointer_type, name: "&mut Formatter", baseType: !243, size: 64, align: 64, dwarfAddressSpace: 0)
!243 = !DICompositeType(tag: DW_TAG_structure_type, name: "Formatter", scope: !46, file: !2, size: 512, align: 64, elements: !244, templateParams: !4, identifier: "37f4daa474efe0abec93026f6af11d04")
!244 = !{!245, !247, !249, !250, !261, !262}
!245 = !DIDerivedType(tag: DW_TAG_member, name: "flags", scope: !243, file: !2, baseType: !246, size: 32, align: 32, offset: 384)
!246 = !DIBasicType(name: "u32", size: 32, encoding: DW_ATE_unsigned)
!247 = !DIDerivedType(tag: DW_TAG_member, name: "fill", scope: !243, file: !2, baseType: !248, size: 32, align: 32, offset: 416)
!248 = !DIBasicType(name: "char", size: 32, encoding: DW_ATE_unsigned_char)
!249 = !DIDerivedType(tag: DW_TAG_member, name: "align", scope: !243, file: !2, baseType: !43, size: 8, align: 8, offset: 448)
!250 = !DIDerivedType(tag: DW_TAG_member, name: "width", scope: !243, file: !2, baseType: !251, size: 128, align: 64)
!251 = !DICompositeType(tag: DW_TAG_structure_type, name: "Option<usize>", scope: !117, file: !2, size: 128, align: 64, elements: !252, identifier: "4849786e80860f5416c4c6b259f5a683")
!252 = !{!253}
!253 = !DICompositeType(tag: DW_TAG_variant_part, scope: !117, file: !2, size: 128, align: 64, elements: !254, templateParams: !21, identifier: "4849786e80860f5416c4c6b259f5a683_variant_part", discriminator: !146)
!254 = !{!255, !257}
!255 = !DIDerivedType(tag: DW_TAG_member, name: "None", scope: !253, file: !2, baseType: !256, size: 128, align: 64, extraData: i64 0)
!256 = !DICompositeType(tag: DW_TAG_structure_type, name: "None", scope: !251, file: !2, size: 128, align: 64, elements: !4, templateParams: !21, identifier: "4849786e80860f5416c4c6b259f5a683::None")
!257 = !DIDerivedType(tag: DW_TAG_member, name: "Some", scope: !253, file: !2, baseType: !258, size: 128, align: 64, extraData: i64 1)
!258 = !DICompositeType(tag: DW_TAG_structure_type, name: "Some", scope: !251, file: !2, size: 128, align: 64, elements: !259, templateParams: !21, identifier: "4849786e80860f5416c4c6b259f5a683::Some")
!259 = !{!260}
!260 = !DIDerivedType(tag: DW_TAG_member, name: "__0", scope: !258, file: !2, baseType: !6, size: 64, align: 64, offset: 64)
!261 = !DIDerivedType(tag: DW_TAG_member, name: "precision", scope: !243, file: !2, baseType: !251, size: 128, align: 64, offset: 128)
!262 = !DIDerivedType(tag: DW_TAG_member, name: "buf", scope: !243, file: !2, baseType: !263, size: 128, align: 64, offset: 256)
!263 = !DICompositeType(tag: DW_TAG_structure_type, name: "&mut dyn core::fmt::Write", file: !2, size: 128, align: 64, elements: !264, templateParams: !4, identifier: "ab0a0458a7bfc4114bcaaa179b3e8910")
!264 = !{!265, !267}
!265 = !DIDerivedType(tag: DW_TAG_member, name: "pointer", scope: !263, file: !2, baseType: !266, size: 64, align: 64, flags: DIFlagArtificial)
!266 = !DIDerivedType(tag: DW_TAG_pointer_type, name: "*mut u8", baseType: !39, size: 64, align: 64, dwarfAddressSpace: 0)
!267 = !DIDerivedType(tag: DW_TAG_member, name: "vtable", scope: !263, file: !2, baseType: !268, size: 64, align: 64, offset: 64, flags: DIFlagArtificial)
!268 = !DIDerivedType(tag: DW_TAG_pointer_type, name: "&[usize; 3]", baseType: !269, size: 64, align: 64, dwarfAddressSpace: 0)
!269 = !DICompositeType(tag: DW_TAG_array_type, baseType: !6, size: 192, align: 64, elements: !270)
!270 = !{!271}
!271 = !DISubrange(count: 3, lowerBound: 0)
!272 = !{!273, !274}
!273 = !DILocalVariable(name: "self", arg: 1, scope: !236, file: !237, line: 2088, type: !241)
!274 = !DILocalVariable(name: "f", arg: 2, scope: !236, file: !237, line: 2088, type: !242)
!275 = !DILocation(line: 2088, column: 20, scope: !236)
!276 = !DILocation(line: 2088, column: 27, scope: !236)
!277 = !DILocation(line: 2088, column: 71, scope: !236)
!278 = !DILocation(line: 2088, column: 62, scope: !236)
!279 = !DILocation(line: 2088, column: 84, scope: !236)
!280 = distinct !DISubprogram(name: "fmt<once_cell::race::OnceNonZeroUsize>", linkageName: "_ZN42_$LT$$RF$T$u20$as$u20$core..fmt..Debug$GT$3fmt17h45cf96af03444b65E", scope: !238, file: !237, line: 2088, type: !281, scopeLine: 2088, flags: DIFlagPrototyped, spFlags: DISPFlagLocalToUnit | DISPFlagDefinition, unit: !34, templateParams: !287, retainedNodes: !284)
!281 = !DISubroutineType(types: !282)
!282 = !{!37, !283, !242}
!283 = !DIDerivedType(tag: DW_TAG_pointer_type, name: "&&OnceNonZeroUsize", baseType: !26, size: 64, align: 64, dwarfAddressSpace: 0)
!284 = !{!285, !286}
!285 = !DILocalVariable(name: "self", arg: 1, scope: !280, file: !237, line: 2088, type: !283)
!286 = !DILocalVariable(name: "f", arg: 2, scope: !280, file: !237, line: 2088, type: !242)
!287 = !{!288}
!288 = !DITemplateTypeParameter(name: "T", type: !27)
!289 = !DILocation(line: 2088, column: 20, scope: !280)
!290 = !DILocation(line: 2088, column: 27, scope: !280)
!291 = !DILocation(line: 2088, column: 71, scope: !280)
!292 = !DILocation(line: 2088, column: 62, scope: !280)
!293 = !DILocation(line: 2088, column: 84, scope: !280)
!294 = distinct !DISubprogram(name: "fmt<core::sync::atomic::AtomicUsize>", linkageName: "_ZN42_$LT$$RF$T$u20$as$u20$core..fmt..Debug$GT$3fmt17h6d3227077b98d62cE", scope: !238, file: !237, line: 2088, type: !295, scopeLine: 2088, flags: DIFlagPrototyped, spFlags: DISPFlagLocalToUnit | DISPFlagDefinition, unit: !34, templateParams: !301, retainedNodes: !298)
!295 = !DISubroutineType(types: !296)
!296 = !{!37, !297, !242}
!297 = !DIDerivedType(tag: DW_TAG_pointer_type, name: "&&AtomicUsize", baseType: !10, size: 64, align: 64, dwarfAddressSpace: 0)
!298 = !{!299, !300}
!299 = !DILocalVariable(name: "self", arg: 1, scope: !294, file: !237, line: 2088, type: !297)
!300 = !DILocalVariable(name: "f", arg: 2, scope: !294, file: !237, line: 2088, type: !242)
!301 = !{!302}
!302 = !DITemplateTypeParameter(name: "T", type: !11)
!303 = !DILocation(line: 2088, column: 20, scope: !294)
!304 = !DILocation(line: 2088, column: 27, scope: !294)
!305 = !DILocation(line: 2088, column: 71, scope: !294)
!306 = !DILocation(line: 2088, column: 62, scope: !294)
!307 = !DILocation(line: 2088, column: 84, scope: !294)
!308 = distinct !DISubprogram(name: "fmt", linkageName: "_ZN4core3fmt3num52_$LT$impl$u20$core..fmt..Debug$u20$for$u20$usize$GT$3fmt17he488f7816b8ba1a1E", scope: !310, file: !309, line: 185, type: !312, scopeLine: 185, flags: DIFlagPrototyped, spFlags: DISPFlagLocalToUnit | DISPFlagDefinition, unit: !34, templateParams: !4, retainedNodes: !314)
!309 = !DIFile(filename: "/home/runner/work/bpf-tools/bpf-tools/out/rust/library/core/src/fmt/num.rs", directory: "", checksumkind: CSK_MD5, checksum: "6524fcfb870cfd6b104419b40f655d55")
!310 = !DINamespace(name: "{impl#89}", scope: !311)
!311 = !DINamespace(name: "num", scope: !46)
!312 = !DISubroutineType(types: !313)
!313 = !{!37, !5, !242}
!314 = !{!315, !316}
!315 = !DILocalVariable(name: "self", arg: 1, scope: !308, file: !309, line: 185, type: !5)
!316 = !DILocalVariable(name: "f", arg: 2, scope: !308, file: !309, line: 185, type: !242)
!317 = !DILocation(line: 185, column: 20, scope: !308)
!318 = !DILocation(line: 185, column: 27, scope: !308)
!319 = !DILocation(line: 186, column: 20, scope: !308)
!320 = !DILocation(line: 188, column: 27, scope: !308)
!321 = !DILocation(line: 187, column: 21, scope: !308)
!322 = !DILocation(line: 186, column: 17, scope: !308)
!323 = !DILocation(line: 193, column: 14, scope: !308)
!324 = !{i8 0, i8 2}
!325 = !DILocation(line: 191, column: 21, scope: !308)
!326 = !DILocation(line: 189, column: 21, scope: !308)
!327 = !DILocation(line: 188, column: 24, scope: !308)
!328 = distinct !DISubprogram(name: "size_of_val_raw<alloc::sync::ArcInner<std::thread::Inner>>", linkageName: "_ZN4core3mem15size_of_val_raw17h33a9c41a9aac47b9E", scope: !330, file: !329, line: 378, type: !331, scopeLine: 378, flags: DIFlagPrototyped, spFlags: DISPFlagLocalToUnit | DISPFlagDefinition, unit: !34, templateParams: !224, retainedNodes: !333)
!329 = !DIFile(filename: "/home/runner/work/bpf-tools/bpf-tools/out/rust/library/core/src/mem/mod.rs", directory: "", checksumkind: CSK_MD5, checksum: "00a9ca3300eee460d5c61559b280a726")
!330 = !DINamespace(name: "mem", scope: !14)
!331 = !DISubroutineType(types: !332)
!332 = !{!6, !107}
!333 = !{!334}
!334 = !DILocalVariable(name: "val", arg: 1, scope: !328, file: !329, line: 378, type: !107)
!335 = !DILocation(line: 378, column: 48, scope: !328)
!336 = !DILocation(line: 380, column: 14, scope: !328)
!337 = !DILocation(line: 381, column: 2, scope: !328)
!338 = distinct !DISubprogram(name: "align_of_val_raw<alloc::sync::ArcInner<std::thread::Inner>>", linkageName: "_ZN4core3mem16align_of_val_raw17hea74d128fd138d54E", scope: !330, file: !329, line: 512, type: !331, scopeLine: 512, flags: DIFlagPrototyped, spFlags: DISPFlagLocalToUnit | DISPFlagDefinition, unit: !34, templateParams: !224, retainedNodes: !339)
!339 = !{!340}
!340 = !DILocalVariable(name: "val", arg: 1, scope: !338, file: !329, line: 512, type: !107)
!341 = !DILocation(line: 512, column: 49, scope: !338)
!342 = !DILocation(line: 514, column: 14, scope: !338)
!343 = !DILocation(line: 515, column: 2, scope: !338)
!344 = distinct !DISubprogram(name: "drop<alloc::sync::Weak<std::thread::Inner>>", linkageName: "_ZN4core3mem4drop17h35d88080159b6f83E", scope: !330, file: !329, line: 898, type: !345, scopeLine: 898, flags: DIFlagPrototyped, spFlags: DISPFlagLocalToUnit | DISPFlagDefinition, unit: !34, templateParams: !352, retainedNodes: !350)
!345 = !DISubroutineType(types: !346)
!346 = !{null, !347}
!347 = !DICompositeType(tag: DW_TAG_structure_type, name: "Weak<std::thread::Inner>", scope: !100, file: !2, size: 64, align: 64, elements: !348, templateParams: !222, identifier: "83e292f994cb41c658bfbe4e83c300f1")
!348 = !{!349}
!349 = !DIDerivedType(tag: DW_TAG_member, name: "ptr", scope: !347, file: !2, baseType: !104, size: 64, align: 64)
!350 = !{!351}
!351 = !DILocalVariable(name: "_x", arg: 1, scope: !344, file: !329, line: 898, type: !347)
!352 = !{!353}
!353 = !DITemplateTypeParameter(name: "T", type: !347)
!354 = !DILocation(line: 898, column: 16, scope: !344)
!355 = !DILocation(line: 898, column: 24, scope: !344)
!356 = !DILocation(line: 898, column: 25, scope: !344)
!357 = distinct !DISubprogram(name: "replace<core::option::Option<std::thread::Thread>>", linkageName: "_ZN4core3mem7replace17h7b76a71f315997b2E", scope: !330, file: !329, line: 823, type: !358, scopeLine: 823, flags: DIFlagPrototyped, spFlags: DISPFlagLocalToUnit | DISPFlagDefinition, unit: !34, templateParams: !378, retainedNodes: !373)
!358 = !DISubroutineType(types: !359)
!359 = !{!360, !372, !360}
!360 = !DICompositeType(tag: DW_TAG_structure_type, name: "Option<std::thread::Thread>", scope: !117, file: !2, size: 64, align: 64, elements: !361, identifier: "e1e809684530125715213d9f1b61af78")
!361 = !{!362}
!362 = !DICompositeType(tag: DW_TAG_variant_part, scope: !117, file: !2, size: 64, align: 64, elements: !363, templateParams: !366, identifier: "e1e809684530125715213d9f1b61af78_variant_part", discriminator: !146)
!363 = !{!364, !368}
!364 = !DIDerivedType(tag: DW_TAG_member, name: "None", scope: !362, file: !2, baseType: !365, size: 64, align: 64, extraData: i64 0)
!365 = !DICompositeType(tag: DW_TAG_structure_type, name: "None", scope: !360, file: !2, size: 64, align: 64, elements: !4, templateParams: !366, identifier: "e1e809684530125715213d9f1b61af78::None")
!366 = !{!367}
!367 = !DITemplateTypeParameter(name: "T", type: !94)
!368 = !DIDerivedType(tag: DW_TAG_member, name: "Some", scope: !362, file: !2, baseType: !369, size: 64, align: 64)
!369 = !DICompositeType(tag: DW_TAG_structure_type, name: "Some", scope: !360, file: !2, size: 64, align: 64, elements: !370, templateParams: !366, identifier: "e1e809684530125715213d9f1b61af78::Some")
!370 = !{!371}
!371 = !DIDerivedType(tag: DW_TAG_member, name: "__0", scope: !369, file: !2, baseType: !94, size: 64, align: 64)
!372 = !DIDerivedType(tag: DW_TAG_pointer_type, name: "&mut Option<std::thread::Thread>", baseType: !360, size: 64, align: 64, dwarfAddressSpace: 0)
!373 = !{!374, !375, !376}
!374 = !DILocalVariable(name: "dest", arg: 1, scope: !357, file: !329, line: 823, type: !372)
!375 = !DILocalVariable(name: "src", arg: 2, scope: !357, file: !329, line: 823, type: !360)
!376 = !DILocalVariable(name: "result", scope: !377, file: !329, line: 828, type: !360, align: 8)
!377 = distinct !DILexicalBlock(scope: !357, file: !329, line: 828, column: 9)
!378 = !{!379}
!379 = !DITemplateTypeParameter(name: "T", type: !360)
!380 = !DILocation(line: 823, column: 25, scope: !357)
!381 = !DILocation(line: 823, column: 39, scope: !357)
!382 = !DILocation(line: 828, column: 22, scope: !357)
!383 = !DILocation(line: 828, column: 13, scope: !377)
!384 = !DILocation(line: 829, column: 9, scope: !377)
!385 = !DILocation(line: 832, column: 2, scope: !357)
!386 = distinct !DISubprogram(name: "new_unchecked", linkageName: "_ZN4core3num7nonzero12NonZeroUsize13new_unchecked17hce34eacfec0562abE", scope: !388, file: !387, line: 54, type: !391, scopeLine: 54, flags: DIFlagPrototyped, spFlags: DISPFlagLocalToUnit | DISPFlagDefinition, unit: !34, templateParams: !4, retainedNodes: !393)
!387 = !DIFile(filename: "/home/runner/work/bpf-tools/bpf-tools/out/rust/library/core/src/num/nonzero.rs", directory: "", checksumkind: CSK_MD5, checksum: "07b0126d41e0d52cc6d98b96652bf4bd")
!388 = !DICompositeType(tag: DW_TAG_structure_type, name: "NonZeroUsize", scope: !153, file: !2, size: 64, align: 64, elements: !389, templateParams: !4, identifier: "21623c21723d1648102501c4f9f9b08d")
!389 = !{!390}
!390 = !DIDerivedType(tag: DW_TAG_member, name: "__0", scope: !388, file: !2, baseType: !6, size: 64, align: 64)
!391 = !DISubroutineType(types: !392)
!392 = !{!388, !6}
!393 = !{!394}
!394 = !DILocalVariable(name: "n", arg: 1, scope: !386, file: !387, line: 54, type: !6)
!395 = !DILocation(line: 54, column: 51, scope: !386)
!396 = !DILocation(line: 56, column: 30, scope: !386)
!397 = !DILocation(line: 57, column: 18, scope: !386)
!398 = !{i64 1, i64 0}
!399 = distinct !DISubprogram(name: "get", linkageName: "_ZN4core3num7nonzero12NonZeroUsize3get17h25b2c6c077f320b9E", scope: !388, file: !387, line: 76, type: !400, scopeLine: 76, flags: DIFlagPrototyped, spFlags: DISPFlagLocalToUnit | DISPFlagDefinition, unit: !34, templateParams: !4, retainedNodes: !402)
!400 = !DISubroutineType(types: !401)
!401 = !{!6, !388}
!402 = !{!403}
!403 = !DILocalVariable(name: "self", arg: 1, scope: !399, file: !387, line: 76, type: !388)
!404 = !DILocation(line: 76, column: 34, scope: !399)
!405 = !DILocation(line: 78, column: 18, scope: !399)
!406 = distinct !DISubprogram(name: "call_mut<(), dyn core::ops::function::FnMut<(), Output=bool>>", linkageName: "_ZN4core3ops8function5impls79_$LT$impl$u20$core..ops..function..FnMut$LT$A$GT$$u20$for$u20$$RF$mut$u20$F$GT$8call_mut17hfc53af94ffd8190cE", scope: !408, file: !407, line: 268, type: !412, scopeLine: 268, flags: DIFlagPrototyped, spFlags: DISPFlagLocalToUnit | DISPFlagDefinition, unit: !34, templateParams: !422, retainedNodes: !419)
!407 = !DIFile(filename: "/home/runner/work/bpf-tools/bpf-tools/out/rust/library/core/src/ops/function.rs", directory: "", checksumkind: CSK_MD5, checksum: "1a40c014f8a7b8b7cd612b461a47e902")
!408 = !DINamespace(name: "{impl#3}", scope: !409)
!409 = !DINamespace(name: "impls", scope: !410)
!410 = !DINamespace(name: "function", scope: !411)
!411 = !DINamespace(name: "ops", scope: !14)
!412 = !DISubroutineType(types: !413)
!413 = !{!184, !414}
!414 = !DIDerivedType(tag: DW_TAG_pointer_type, name: "&mut &mut dyn FnMut<(), Output=bool>", baseType: !415, size: 64, align: 64, dwarfAddressSpace: 0)
!415 = !DICompositeType(tag: DW_TAG_structure_type, name: "&mut dyn core::ops::function::FnMut<(), Output=bool>", file: !2, size: 128, align: 64, elements: !416, templateParams: !4, identifier: "fcf980fbcaa2d50394ef1bf3ae496cda")
!416 = !{!417, !418}
!417 = !DIDerivedType(tag: DW_TAG_member, name: "pointer", scope: !415, file: !2, baseType: !266, size: 64, align: 64, flags: DIFlagArtificial)
!418 = !DIDerivedType(tag: DW_TAG_member, name: "vtable", scope: !415, file: !2, baseType: !268, size: 64, align: 64, offset: 64, flags: DIFlagArtificial)
!419 = !{!420, !421}
!420 = !DILocalVariable(name: "self", arg: 1, scope: !406, file: !407, line: 268, type: !414)
!421 = !DILocalVariable(name: "args", arg: 2, scope: !406, file: !407, line: 268, type: !202)
!422 = !{!423, !424}
!423 = !DITemplateTypeParameter(name: "A", type: !202)
!424 = !DITemplateTypeParameter(name: "F", type: !425)
!425 = !DICompositeType(tag: DW_TAG_structure_type, name: "dyn core::ops::function::FnMut<(), Output=bool>", file: !2, align: 8, elements: !426, templateParams: !4, identifier: "e00bc68098067d317218145fb703d5d3")
!426 = !{!427, !428}
!427 = !DIDerivedType(tag: DW_TAG_member, name: "pointer", scope: !425, file: !2, baseType: !266, size: 64, align: 64, flags: DIFlagArtificial)
!428 = !DIDerivedType(tag: DW_TAG_member, name: "vtable", scope: !425, file: !2, baseType: !268, size: 64, align: 64, offset: 64, flags: DIFlagArtificial)
!429 = !DILocation(line: 268, column: 40, scope: !406)
!430 = !DILocation(line: 268, column: 51, scope: !406)
!431 = !DILocation(line: 269, column: 13, scope: !406)
!432 = !DILocation(line: 270, column: 10, scope: !406)
!433 = distinct !DISubprogram(name: "drop_in_place<&usize>", linkageName: "_ZN4core3ptr30drop_in_place$LT$$RF$usize$GT$17h5724b990b6ed0ce9E", scope: !70, file: !434, line: 188, type: !435, scopeLine: 188, flags: DIFlagPrototyped, spFlags: DISPFlagLocalToUnit | DISPFlagDefinition, unit: !34, templateParams: !440, retainedNodes: !438)
!434 = !DIFile(filename: "/home/runner/work/bpf-tools/bpf-tools/out/rust/library/core/src/ptr/mod.rs", directory: "", checksumkind: CSK_MD5, checksum: "207736266ff0d04d675044b37a0a2de6")
!435 = !DISubroutineType(types: !436)
!436 = !{null, !437}
!437 = !DIDerivedType(tag: DW_TAG_pointer_type, name: "*mut &usize", baseType: !5, size: 64, align: 64, dwarfAddressSpace: 0)
!438 = !{!439}
!439 = !DILocalVariable(arg: 1, scope: !433, file: !434, line: 188, type: !437)
!440 = !{!441}
!441 = !DITemplateTypeParameter(name: "T", type: !5)
!442 = !DILocation(line: 188, column: 1, scope: !433)
!443 = distinct !DISubprogram(name: "drop_in_place<std::thread::Inner>", linkageName: "_ZN4core3ptr39drop_in_place$LT$std..thread..Inner$GT$17h3b34ca94d8c5eb6aE", scope: !70, file: !434, line: 188, type: !444, scopeLine: 188, flags: DIFlagPrototyped, spFlags: DISPFlagLocalToUnit | DISPFlagDefinition, unit: !34, templateParams: !222, retainedNodes: !447)
!444 = !DISubroutineType(types: !445)
!445 = !{null, !446}
!446 = !DIDerivedType(tag: DW_TAG_pointer_type, name: "*mut Inner", baseType: !113, size: 64, align: 64, dwarfAddressSpace: 0)
!447 = !{!448}
!448 = !DILocalVariable(arg: 1, scope: !443, file: !434, line: 188, type: !446)
!449 = !DILocation(line: 188, column: 1, scope: !443)
!450 = distinct !DISubprogram(name: "drop_in_place<std::thread::Thread>", linkageName: "_ZN4core3ptr40drop_in_place$LT$std..thread..Thread$GT$17hb48cfdd790ddf0d1E", scope: !70, file: !434, line: 188, type: !451, scopeLine: 188, flags: DIFlagPrototyped, spFlags: DISPFlagLocalToUnit | DISPFlagDefinition, unit: !34, templateParams: !366, retainedNodes: !454)
!451 = !DISubroutineType(types: !452)
!452 = !{null, !453}
!453 = !DIDerivedType(tag: DW_TAG_pointer_type, name: "*mut Thread", baseType: !94, size: 64, align: 64, dwarfAddressSpace: 0)
!454 = !{!455}
!455 = !DILocalVariable(arg: 1, scope: !450, file: !434, line: 188, type: !453)
!456 = !DILocation(line: 188, column: 1, scope: !450)
!457 = distinct !DISubprogram(name: "drop_in_place<once_cell::imp::Guard>", linkageName: "_ZN4core3ptr42drop_in_place$LT$once_cell..imp..Guard$GT$17hd8907b7a93b7d0d4E", scope: !70, file: !434, line: 188, type: !458, scopeLine: 188, flags: DIFlagPrototyped, spFlags: DISPFlagLocalToUnit | DISPFlagDefinition, unit: !34, templateParams: !468, retainedNodes: !466)
!458 = !DISubroutineType(types: !459)
!459 = !{null, !460}
!460 = !DIDerivedType(tag: DW_TAG_pointer_type, name: "*mut Guard", baseType: !461, size: 64, align: 64, dwarfAddressSpace: 0)
!461 = !DICompositeType(tag: DW_TAG_structure_type, name: "Guard", scope: !462, file: !2, size: 128, align: 64, elements: !463, templateParams: !4, identifier: "98c2664e8f1eced58d5f4be2d36d6ae")
!462 = !DINamespace(name: "imp", scope: !29)
!463 = !{!464, !465}
!464 = !DIDerivedType(tag: DW_TAG_member, name: "queue", scope: !461, file: !2, baseType: !10, size: 64, align: 64)
!465 = !DIDerivedType(tag: DW_TAG_member, name: "new_queue", scope: !461, file: !2, baseType: !6, size: 64, align: 64, offset: 64)
!466 = !{!467}
!467 = !DILocalVariable(arg: 1, scope: !457, file: !434, line: 188, type: !460)
!468 = !{!469}
!469 = !DITemplateTypeParameter(name: "T", type: !461)
!470 = !DILocation(line: 188, column: 1, scope: !457)
!471 = distinct !DISubprogram(name: "drop_in_place<once_cell::imp::Waiter>", linkageName: "_ZN4core3ptr43drop_in_place$LT$once_cell..imp..Waiter$GT$17h3553431b8a11aeaaE", scope: !70, file: !434, line: 188, type: !472, scopeLine: 188, flags: DIFlagPrototyped, spFlags: DISPFlagLocalToUnit | DISPFlagDefinition, unit: !34, templateParams: !489, retainedNodes: !487)
!472 = !DISubroutineType(types: !473)
!473 = !{null, !474}
!474 = !DIDerivedType(tag: DW_TAG_pointer_type, name: "*mut Waiter", baseType: !475, size: 64, align: 64, dwarfAddressSpace: 0)
!475 = !DICompositeType(tag: DW_TAG_structure_type, name: "Waiter", scope: !462, file: !2, size: 192, align: 64, elements: !476, templateParams: !4, identifier: "e045764b1ed795a6cd91d52017690a55")
!476 = !{!477, !484, !485}
!477 = !DIDerivedType(tag: DW_TAG_member, name: "thread", scope: !475, file: !2, baseType: !478, size: 64, align: 64)
!478 = !DICompositeType(tag: DW_TAG_structure_type, name: "Cell<core::option::Option<std::thread::Thread>>", scope: !18, file: !2, size: 64, align: 64, elements: !479, templateParams: !378, identifier: "4bd3b60d175083b2d03638765edb81d8")
!479 = !{!480}
!480 = !DIDerivedType(tag: DW_TAG_member, name: "value", scope: !478, file: !2, baseType: !481, size: 64, align: 64)
!481 = !DICompositeType(tag: DW_TAG_structure_type, name: "UnsafeCell<core::option::Option<std::thread::Thread>>", scope: !18, file: !2, size: 64, align: 64, elements: !482, templateParams: !378, identifier: "914aea111ec7ffe680d5f7742aa8df32")
!482 = !{!483}
!483 = !DIDerivedType(tag: DW_TAG_member, name: "value", scope: !481, file: !2, baseType: !360, size: 64, align: 64)
!484 = !DIDerivedType(tag: DW_TAG_member, name: "signaled", scope: !475, file: !2, baseType: !192, size: 8, align: 8, offset: 128)
!485 = !DIDerivedType(tag: DW_TAG_member, name: "next", scope: !475, file: !2, baseType: !486, size: 64, align: 64, offset: 64)
!486 = !DIDerivedType(tag: DW_TAG_pointer_type, name: "*const Waiter", baseType: !475, size: 64, align: 64, dwarfAddressSpace: 0)
!487 = !{!488}
!488 = !DILocalVariable(arg: 1, scope: !471, file: !434, line: 188, type: !474)
!489 = !{!490}
!490 = !DITemplateTypeParameter(name: "T", type: !475)
!491 = !DILocation(line: 188, column: 1, scope: !471)
!492 = distinct !DISubprogram(name: "drop_in_place<std::ffi::c_str::CString>", linkageName: "_ZN4core3ptr45drop_in_place$LT$std..ffi..c_str..CString$GT$17h78aa8354dea43c1cE", scope: !70, file: !434, line: 188, type: !493, scopeLine: 188, flags: DIFlagPrototyped, spFlags: DISPFlagLocalToUnit | DISPFlagDefinition, unit: !34, templateParams: !123, retainedNodes: !496)
!493 = !DISubroutineType(types: !494)
!494 = !{null, !495}
!495 = !DIDerivedType(tag: DW_TAG_pointer_type, name: "*mut CString", baseType: !125, size: 64, align: 64, dwarfAddressSpace: 0)
!496 = !{!497}
!497 = !DILocalVariable(arg: 1, scope: !492, file: !434, line: 188, type: !495)
!498 = !DILocation(line: 188, column: 1, scope: !492)
!499 = distinct !DISubprogram(name: "drop_in_place<std::sync::condvar::Condvar>", linkageName: "_ZN4core3ptr48drop_in_place$LT$std..sync..condvar..Condvar$GT$17h941fd7debdf2746bE", scope: !70, file: !434, line: 188, type: !500, scopeLine: 188, flags: DIFlagPrototyped, spFlags: DISPFlagLocalToUnit | DISPFlagDefinition, unit: !34, templateParams: !505, retainedNodes: !503)
!500 = !DISubroutineType(types: !501)
!501 = !{null, !502}
!502 = !DIDerivedType(tag: DW_TAG_pointer_type, name: "*mut Condvar", baseType: !206, size: 64, align: 64, dwarfAddressSpace: 0)
!503 = !{!504}
!504 = !DILocalVariable(arg: 1, scope: !499, file: !434, line: 188, type: !502)
!505 = !{!506}
!506 = !DITemplateTypeParameter(name: "T", type: !206)
!507 = !DILocation(line: 188, column: 1, scope: !499)
!508 = distinct !DISubprogram(name: "read<core::option::Option<std::thread::Thread>>", linkageName: "_ZN4core3ptr4read17h59f91ade5d7f066dE", scope: !70, file: !434, line: 683, type: !509, scopeLine: 683, flags: DIFlagPrototyped, spFlags: DISPFlagLocalToUnit | DISPFlagDefinition, unit: !34, templateParams: !378, retainedNodes: !512)
!509 = !DISubroutineType(types: !510)
!510 = !{!360, !511}
!511 = !DIDerivedType(tag: DW_TAG_pointer_type, name: "*const Option<std::thread::Thread>", baseType: !360, size: 64, align: 64, dwarfAddressSpace: 0)
!512 = !{!513, !514}
!513 = !DILocalVariable(name: "src", arg: 1, scope: !508, file: !434, line: 683, type: !511)
!514 = !DILocalVariable(name: "tmp", scope: !515, file: !434, line: 691, type: !516, align: 8)
!515 = distinct !DILexicalBlock(scope: !508, file: !434, line: 691, column: 5)
!516 = !DICompositeType(tag: DW_TAG_union_type, name: "MaybeUninit<core::option::Option<std::thread::Thread>>", scope: !517, file: !2, size: 64, align: 64, elements: !518, templateParams: !378, identifier: "3b2407d38c862f148282b263b5832c73")
!517 = !DINamespace(name: "maybe_uninit", scope: !330)
!518 = !{!519, !520}
!519 = !DIDerivedType(tag: DW_TAG_member, name: "uninit", scope: !516, file: !2, baseType: !202, align: 8)
!520 = !DIDerivedType(tag: DW_TAG_member, name: "value", scope: !516, file: !2, baseType: !521, size: 64, align: 64)
!521 = !DICompositeType(tag: DW_TAG_structure_type, name: "ManuallyDrop<core::option::Option<std::thread::Thread>>", scope: !522, file: !2, size: 64, align: 64, elements: !523, templateParams: !378, identifier: "5b15f505e56943d8985a9d153aae6333")
!522 = !DINamespace(name: "manually_drop", scope: !330)
!523 = !{!524}
!524 = !DIDerivedType(tag: DW_TAG_member, name: "value", scope: !521, file: !2, baseType: !360, size: 64, align: 64)
!525 = !DILocation(line: 683, column: 29, scope: !508)
!526 = !DILocation(line: 691, column: 9, scope: !515)
!527 = !DILocation(line: 318, column: 9, scope: !528, inlinedAt: !532)
!528 = distinct !DISubprogram(name: "uninit<core::option::Option<std::thread::Thread>>", linkageName: "_ZN4core3mem12maybe_uninit20MaybeUninit$LT$T$GT$6uninit17h71cb824759a7e4e7E", scope: !516, file: !529, line: 317, type: !530, scopeLine: 317, flags: DIFlagPrototyped, spFlags: DISPFlagLocalToUnit | DISPFlagDefinition, unit: !34, templateParams: !378, retainedNodes: !4)
!529 = !DIFile(filename: "/home/runner/work/bpf-tools/bpf-tools/out/rust/library/core/src/mem/maybe_uninit.rs", directory: "", checksumkind: CSK_MD5, checksum: "d3671e1e568ab64028d26b6a3f5dc301")
!530 = !DISubroutineType(types: !531)
!531 = !{!516}
!532 = distinct !DILocation(line: 691, column: 19, scope: !508)
!533 = !DILocation(line: 319, column: 6, scope: !528, inlinedAt: !532)
!534 = !DILocation(line: 691, column: 19, scope: !508)
!535 = !DILocalVariable(name: "self", arg: 1, scope: !536, file: !529, line: 568, type: !540)
!536 = distinct !DISubprogram(name: "as_mut_ptr<core::option::Option<std::thread::Thread>>", linkageName: "_ZN4core3mem12maybe_uninit20MaybeUninit$LT$T$GT$10as_mut_ptr17ha10589724ffe774cE", scope: !516, file: !529, line: 568, type: !537, scopeLine: 568, flags: DIFlagPrototyped, spFlags: DISPFlagLocalToUnit | DISPFlagDefinition, unit: !34, templateParams: !378, retainedNodes: !541)
!537 = !DISubroutineType(types: !538)
!538 = !{!539, !540}
!539 = !DIDerivedType(tag: DW_TAG_pointer_type, name: "*mut Option<std::thread::Thread>", baseType: !360, size: 64, align: 64, dwarfAddressSpace: 0)
!540 = !DIDerivedType(tag: DW_TAG_pointer_type, name: "&mut MaybeUninit<core::option::Option<std::thread::Thread>>", baseType: !516, size: 64, align: 64, dwarfAddressSpace: 0)
!541 = !{!535}
!542 = !DILocation(line: 568, column: 29, scope: !536, inlinedAt: !543)
!543 = distinct !DILocation(line: 699, column: 34, scope: !515)
!544 = !DILocation(line: 570, column: 9, scope: !536, inlinedAt: !543)
!545 = !DILocation(line: 699, column: 34, scope: !515)
!546 = !DILocation(line: 699, column: 9, scope: !515)
!547 = !DILocation(line: 700, column: 9, scope: !515)
!548 = !DILocalVariable(name: "self", arg: 1, scope: !549, file: !529, line: 623, type: !516)
!549 = distinct !DISubprogram(name: "assume_init<core::option::Option<std::thread::Thread>>", linkageName: "_ZN4core3mem12maybe_uninit20MaybeUninit$LT$T$GT$11assume_init17hb0ae40e7aa24c15dE", scope: !516, file: !529, line: 623, type: !550, scopeLine: 623, flags: DIFlagPrototyped, spFlags: DISPFlagLocalToUnit | DISPFlagDefinition, unit: !34, templateParams: !378, retainedNodes: !564)
!550 = !DISubroutineType(types: !551)
!551 = !{!360, !516, !552}
!552 = !DIDerivedType(tag: DW_TAG_pointer_type, name: "&Location", baseType: !553, size: 64, align: 64, dwarfAddressSpace: 0)
!553 = !DICompositeType(tag: DW_TAG_structure_type, name: "Location", scope: !554, file: !2, size: 192, align: 64, elements: !556, templateParams: !4, identifier: "9f9749776572719cc82f4bbe4f5eb8d")
!554 = !DINamespace(name: "location", scope: !555)
!555 = !DINamespace(name: "panic", scope: !14)
!556 = !{!557, !562, !563}
!557 = !DIDerivedType(tag: DW_TAG_member, name: "file", scope: !553, file: !2, baseType: !558, size: 128, align: 64)
!558 = !DICompositeType(tag: DW_TAG_structure_type, name: "&str", file: !2, size: 128, align: 64, elements: !559, templateParams: !4, identifier: "7ef2a91eecc7bcf4b4aaea2dbce79437")
!559 = !{!560, !561}
!560 = !DIDerivedType(tag: DW_TAG_member, name: "data_ptr", scope: !558, file: !2, baseType: !76, size: 64, align: 64)
!561 = !DIDerivedType(tag: DW_TAG_member, name: "length", scope: !558, file: !2, baseType: !6, size: 64, align: 64, offset: 64)
!562 = !DIDerivedType(tag: DW_TAG_member, name: "line", scope: !553, file: !2, baseType: !246, size: 32, align: 32, offset: 128)
!563 = !DIDerivedType(tag: DW_TAG_member, name: "col", scope: !553, file: !2, baseType: !246, size: 32, align: 32, offset: 160)
!564 = !{!548}
!565 = !DILocation(line: 623, column: 37, scope: !549, inlinedAt: !566)
!566 = distinct !DILocation(line: 700, column: 9, scope: !515)
!567 = !DILocation(line: 628, column: 38, scope: !549, inlinedAt: !566)
!568 = !DILocalVariable(name: "slot", arg: 1, scope: !569, file: !570, line: 87, type: !521)
!569 = distinct !DISubprogram(name: "into_inner<core::option::Option<std::thread::Thread>>", linkageName: "_ZN4core3mem13manually_drop21ManuallyDrop$LT$T$GT$10into_inner17h5d9de892e288f8aeE", scope: !521, file: !570, line: 87, type: !571, scopeLine: 87, flags: DIFlagPrototyped, spFlags: DISPFlagLocalToUnit | DISPFlagDefinition, unit: !34, templateParams: !378, retainedNodes: !573)
!570 = !DIFile(filename: "/home/runner/work/bpf-tools/bpf-tools/out/rust/library/core/src/mem/manually_drop.rs", directory: "", checksumkind: CSK_MD5, checksum: "1ebb77b55900bbb941b074f7b36dbdc1")
!571 = !DISubroutineType(types: !572)
!572 = !{!360, !521}
!573 = !{!568}
!574 = !DILocation(line: 87, column: 29, scope: !569, inlinedAt: !575)
!575 = distinct !DILocation(line: 628, column: 13, scope: !549, inlinedAt: !566)
!576 = !DILocation(line: 702, column: 2, scope: !508)
!577 = distinct !DISubprogram(name: "drop_in_place<std::sys_common::condvar::Condvar>", linkageName: "_ZN4core3ptr54drop_in_place$LT$std..sys_common..condvar..Condvar$GT$17h07703e061d62bea8E", scope: !70, file: !434, line: 188, type: !578, scopeLine: 188, flags: DIFlagPrototyped, spFlags: DISPFlagLocalToUnit | DISPFlagDefinition, unit: !34, templateParams: !583, retainedNodes: !581)
!578 = !DISubroutineType(types: !579)
!579 = !{null, !580}
!580 = !DIDerivedType(tag: DW_TAG_pointer_type, name: "*mut Condvar", baseType: !210, size: 64, align: 64, dwarfAddressSpace: 0)
!581 = !{!582}
