; ModuleID = 'spl_token.8e078ed5-cgu.0'
source_filename = "spl_token.8e078ed5-cgu.0"
target datalayout = "e-m:e-p:64:64-i64:64-n32:64-S128"
target triple = "bpfel"

%"std::ops::RangeInclusive<usize>" = type { i64, i64, i8, [7 x i8] }
%"std::collections::Bound<&usize>::Included" = type { [1 x i64], i64* }
%"std::collections::Bound<&usize>::Excluded" = type { [1 x i64], i64* }
%"std::option::Option<(&[u8], &mut solana_program::pubkey::Pubkey)>" = type { {}*, [2 x i64] }
%"std::iter::Zip<std::slice::Chunks<u8>, std::slice::IterMut<solana_program::pubkey::Pubkey>>" = type { %"std::slice::Chunks<u8>", { i8*, i8* }, i64, i64, i64 }
%"std::slice::Chunks<u8>" = type { { [0 x i8]*, i64 }, i64 }
%"solana_program::pubkey::Pubkey" = type { [32 x i8] }
%"std::option::Option<(&[u8], &mut solana_program::pubkey::Pubkey)>::Some" = type { { { [0 x i8]*, i64 }, %"solana_program::pubkey::Pubkey"* } }
%"solana_program::program_option::COption<solana_program::pubkey::Pubkey>" = type { i32, [8 x i32] }
%"std::option::Option<solana_program::pubkey::Pubkey>" = type { i8, [32 x i8] }
%"std::option::Option<solana_program::pubkey::Pubkey>::Some" = type { [1 x i8], %"solana_program::pubkey::Pubkey" }
%"solana_program::program_option::COption<solana_program::pubkey::Pubkey>::Some" = type { [4 x i8], %"solana_program::pubkey::Pubkey" }
%"serde::de::impls::<impl serde::de::Deserialize<'de> for f64>::deserialize::PrimitiveVisitor" = type {}
%"std::result::Result<f64, std::boxed::Box<bincode::error::ErrorKind>>" = type { i64, [1 x i64] }
%"std::result::Result<f64, std::boxed::Box<bincode::error::ErrorKind>>::Ok" = type { [1 x i64], double }
%"std::result::Result<&solana_program::account_info::AccountInfo, solana_program::program_error::ProgramError>" = type { i64, [4 x i64] }
%"solana_program::program_error::ProgramError" = type { i32, [7 x i32] }
%"std::result::Result<state::Multisig, solana_program::program_error::ProgramError>" = type { i8, [359 x i8] }
%"std::result::Result<state::Multisig, solana_program::program_error::ProgramError>::Err" = type { [1 x i64], %"solana_program::program_error::ProgramError" }
%"std::result::Result<state::Mint, solana_program::program_error::ProgramError>" = type { i64, [11 x i64] }
%"std::result::Result<state::Mint, solana_program::program_error::ProgramError>::Err" = type { [1 x i64], %"solana_program::program_error::ProgramError" }
%"std::result::Result<state::Account, solana_program::program_error::ProgramError>" = type { i64, [22 x i64] }
%"std::result::Result<state::Account, solana_program::program_error::ProgramError>::Err" = type { [1 x i64], %"solana_program::program_error::ProgramError" }
%"std::result::Result<(), solana_program::program_error::ProgramError>" = type { i32, [7 x i32] }
%"state::Multisig" = type { i8, i8, i8, [11 x %"solana_program::pubkey::Pubkey"] }
%"std::result::Result<(), solana_program::program_error::ProgramError>::Err" = type { %"solana_program::program_error::ProgramError" }
%"state::Account" = type { %"solana_program::pubkey::Pubkey", %"solana_program::pubkey::Pubkey", i64, %"solana_program::program_option::COption<solana_program::pubkey::Pubkey>", i8, [3 x i8], { i32, i64 }, i64, %"solana_program::program_option::COption<solana_program::pubkey::Pubkey>", [1 x i32] }
%"state::Mint" = type { %"solana_program::program_option::COption<solana_program::pubkey::Pubkey>", [1 x i32], i64, i8, i8, [2 x i8], %"solana_program::program_option::COption<solana_program::pubkey::Pubkey>" }
%"std::result::Result<std::convert::Infallible, solana_program::program_error::ProgramError>::Err" = type { %"solana_program::program_error::ProgramError" }
%"std::ops::ControlFlow<std::result::Result<std::convert::Infallible, solana_program::program_error::ProgramError>, state::Mint>" = type { i64, [11 x i64] }
%"std::ops::ControlFlow<std::result::Result<std::convert::Infallible, solana_program::program_error::ProgramError>, state::Mint>::Continue" = type { [1 x i64], %"state::Mint" }
%"std::ops::ControlFlow<std::result::Result<std::convert::Infallible, solana_program::program_error::ProgramError>, state::Mint>::Break" = type { [1 x i64], %"std::result::Result<std::convert::Infallible, solana_program::program_error::ProgramError>::Err" }
%"std::result::Result<state::Mint, solana_program::program_error::ProgramError>::Ok" = type { [1 x i64], %"state::Mint" }
%"std::ops::ControlFlow<std::result::Result<std::convert::Infallible, solana_program::program_error::ProgramError>, state::Account>" = type { i64, [22 x i64] }
%"std::ops::ControlFlow<std::result::Result<std::convert::Infallible, solana_program::program_error::ProgramError>, state::Account>::Continue" = type { [1 x i64], %"state::Account" }
%"std::ops::ControlFlow<std::result::Result<std::convert::Infallible, solana_program::program_error::ProgramError>, state::Account>::Break" = type { [1 x i64], %"std::result::Result<std::convert::Infallible, solana_program::program_error::ProgramError>::Err" }
%"std::result::Result<state::Account, solana_program::program_error::ProgramError>::Ok" = type { [1 x i64], %"state::Account" }
%"std::ops::ControlFlow<std::result::Result<std::convert::Infallible, solana_program::program_error::ProgramError>, state::Multisig>" = type { i8, [359 x i8] }
%"std::ops::ControlFlow<std::result::Result<std::convert::Infallible, solana_program::program_error::ProgramError>, state::Multisig>::Continue" = type { [1 x i8], %"state::Multisig" }
%"std::ops::ControlFlow<std::result::Result<std::convert::Infallible, solana_program::program_error::ProgramError>, state::Multisig>::Break" = type { [1 x i64], %"std::result::Result<std::convert::Infallible, solana_program::program_error::ProgramError>::Err" }
%"std::result::Result<state::Multisig, solana_program::program_error::ProgramError>::Ok" = type { [1 x i8], %"state::Multisig" }
%"std::result::Result<solana_program::pubkey::Pubkey, solana_program::program_error::ProgramError>" = type { i8, [39 x i8] }
%"std::result::Result<solana_program::pubkey::Pubkey, solana_program::program_error::ProgramError>::Err" = type { [1 x i64], %"solana_program::program_error::ProgramError" }
%"std::result::Result<solana_program::pubkey::Pubkey, solana_program::program_error::ProgramError>::Ok" = type { [1 x i8], %"solana_program::pubkey::Pubkey" }
%"std::result::Result<solana_program::rent::Rent, std::boxed::Box<bincode::error::ErrorKind>>" = type { i64, [3 x i64] }
%"std::result::Result<solana_program::rent::Rent, solana_program::program_error::ProgramError>" = type { i64, [4 x i64] }
%"solana_program::account_info::AccountInfo" = type { %"solana_program::pubkey::Pubkey"*, i64*, i64*, %"solana_program::pubkey::Pubkey"*, i64, i8, i8, i8, [5 x i8] }
%"std::rc::RcBox<std::cell::RefCell<&mut [u8]>>" = type { i64, i64, %"std::cell::RefCell<&mut [u8]>" }
%"std::cell::RefCell<&mut [u8]>" = type { i64, { i8*, i64 } }
%"std::result::Result<solana_program::rent::Rent, solana_program::program_error::ProgramError>::Err" = type { [1 x i64], %"solana_program::program_error::ProgramError" }
%"std::panic::Location" = type { { [0 x i8]*, i64 }, i32, i32 }
%"bincode::error::ErrorKind" = type { i8, [31 x i8] }
%"[closure@<solana_program::rent::Rent as solana_program::sysvar::Sysvar>::from_account_info::{closure#0}]" = type {}
%"std::io::Error" = type { %"std::io::error::Repr" }
%"std::io::error::Repr" = type { i8, [15 x i8] }
%"std::result::Result<std::convert::Infallible, std::io::Error>::Err" = type { %"std::io::Error" }
%"std::result::Result<f64, std::boxed::Box<bincode::error::ErrorKind>>::Err" = type { [1 x i64], %"bincode::error::ErrorKind"* }
%"std::result::Result<instruction::TokenInstruction, solana_program::program_error::ProgramError>" = type { i64, [10 x i64] }
%"std::result::Result<instruction::TokenInstruction, solana_program::program_error::ProgramError>::Err" = type { [1 x i64], %"solana_program::program_error::ProgramError" }
%"std::result::Result<solana_program::rent::Rent, std::boxed::Box<bincode::error::ErrorKind>>::Err" = type { [1 x i64], %"bincode::error::ErrorKind"* }
%"std::result::Result<std::option::Option<f64>, std::boxed::Box<bincode::error::ErrorKind>>" = type { i64, [2 x i64] }
%"std::result::Result<std::option::Option<f64>, std::boxed::Box<bincode::error::ErrorKind>>::Err" = type { [1 x i64], %"bincode::error::ErrorKind"* }
%"std::result::Result<std::option::Option<u8>, std::boxed::Box<bincode::error::ErrorKind>>" = type { i8, [15 x i8] }
%"std::result::Result<std::option::Option<u8>, std::boxed::Box<bincode::error::ErrorKind>>::Err" = type { [1 x i64], %"bincode::error::ErrorKind"* }
%"std::result::Result<(instruction::AuthorityType, &[u8]), solana_program::program_error::ProgramError>" = type { i64, [4 x i64] }
%"std::result::Result<(instruction::AuthorityType, &[u8]), solana_program::program_error::ProgramError>::Err" = type { [1 x i64], %"solana_program::program_error::ProgramError" }
%"solana_program::rent::_::<impl serde::de::Deserialize<'de> for solana_program::rent::Rent>::deserialize::__Visitor" = type { %"std::marker::PhantomData<solana_program::rent::Rent>", %"std::marker::PhantomData<&()>" }
%"std::marker::PhantomData<solana_program::rent::Rent>" = type {}
%"std::marker::PhantomData<&()>" = type {}
%"solana_program::rent::Rent" = type { i64, double, i8, [7 x i8] }
%"std::result::Result<std::option::Option<u64>, std::boxed::Box<bincode::error::ErrorKind>>" = type { i64, [2 x i64] }
%"std::result::Result<std::option::Option<u64>, std::boxed::Box<bincode::error::ErrorKind>>::Ok" = type { [1 x i64], { i64, i64 } }
%"std::result::Result<std::option::Option<u64>, std::boxed::Box<bincode::error::ErrorKind>>::Err" = type { [1 x i64], %"bincode::error::ErrorKind"* }
%"std::option::Option<u64>::Some" = type { [1 x i64], i64 }
%"std::result::Result<std::option::Option<f64>, std::boxed::Box<bincode::error::ErrorKind>>::Ok" = type { [1 x i64], { i64, double } }
%"std::option::Option<f64>::Some" = type { [1 x i64], double }
%"std::result::Result<std::option::Option<u8>, std::boxed::Box<bincode::error::ErrorKind>>::Ok" = type { [1 x i8], { i8, i8 } }
%"std::option::Option<u8>::Some" = type { [1 x i8], i8 }
%"std::result::Result<solana_program::rent::Rent, std::boxed::Box<bincode::error::ErrorKind>>::Ok" = type { [1 x i64], %"solana_program::rent::Rent" }
%"std::marker::PhantomData<f64>" = type {}
%"std::ops::ControlFlow<std::result::Result<std::convert::Infallible, std::boxed::Box<bincode::error::ErrorKind>>, f64>" = type { i64, [1 x i64] }
%"std::ops::ControlFlow<std::result::Result<std::convert::Infallible, std::boxed::Box<bincode::error::ErrorKind>>, f64>::Continue" = type { [1 x i64], double }
%"std::ops::ControlFlow<std::result::Result<std::convert::Infallible, std::boxed::Box<bincode::error::ErrorKind>>, f64>::Break" = type { [1 x i64], i64* }
%"std::marker::PhantomData<u64>" = type {}
%"std::result::Result<u64, std::boxed::Box<bincode::error::ErrorKind>>" = type { i64, [1 x i64] }
%"std::ops::ControlFlow<std::result::Result<std::convert::Infallible, std::boxed::Box<bincode::error::ErrorKind>>, u64>" = type { i64, [1 x i64] }
%"std::ops::ControlFlow<std::result::Result<std::convert::Infallible, std::boxed::Box<bincode::error::ErrorKind>>, u64>::Continue" = type { [1 x i64], i64 }
%"std::ops::ControlFlow<std::result::Result<std::convert::Infallible, std::boxed::Box<bincode::error::ErrorKind>>, u64>::Break" = type { [1 x i64], i64* }
%"std::marker::PhantomData<u8>" = type {}
%"std::result::Result<u8, std::boxed::Box<bincode::error::ErrorKind>>" = type { i8, [15 x i8] }
%"std::ops::ControlFlow<std::result::Result<std::convert::Infallible, std::boxed::Box<bincode::error::ErrorKind>>, u8>" = type { i8, [15 x i8] }
%"std::ops::ControlFlow<std::result::Result<std::convert::Infallible, std::boxed::Box<bincode::error::ErrorKind>>, u8>::Continue" = type { [1 x i8], i8 }
%"std::ops::ControlFlow<std::result::Result<std::convert::Infallible, std::boxed::Box<bincode::error::ErrorKind>>, u8>::Break" = type { [1 x i64], i64* }
%"std::fmt::Formatter" = type { { i64, i64 }, { i64, i64 }, { {}*, [3 x i64]* }, i32, i32, i8, [7 x i8] }
%"std::fmt::Arguments" = type { { [0 x { [0 x i8]*, i64 }]*, i64 }, { i64*, i64 }, { [0 x { i8*, i64* }]*, i64 } }
%"std::result::Result<state::AccountState, solana_program::program_error::ProgramError>" = type { i8, [39 x i8] }
%"std::result::Result<state::AccountState, solana_program::program_error::ProgramError>::Err" = type { [1 x i64], %"solana_program::program_error::ProgramError" }
%"std::cell::BorrowMutError" = type {}
%"std::ops::RangeFull" = type {}
%"std::option::Option<(&u8, &[u8])>" = type { {}*, [2 x i64] }
%"std::option::Option<(&u8, &[u8])>::Some" = type { { i8*, { [0 x i8]*, i64 } } }
%"std::option::Option<std::fmt::Arguments>" = type { {}*, [5 x i64] }
%"std::result::Result<(&u8, &[u8]), solana_program::program_error::ProgramError>" = type { i64, [4 x i64] }
%"[closure@/home/chinedum/.cargo/registry/src/github.com-1ecc6299db9ec823/spl-token-3.3.0/src/instruction.rs:453:33: 453:74]" = type {}
%"std::result::Result<(&u8, &[u8]), solana_program::program_error::ProgramError>::Ok" = type { [1 x i64], { i8*, { [0 x i8]*, i64 } } }
%"std::result::Result<(&u8, &[u8]), solana_program::program_error::ProgramError>::Err" = type { [1 x i64], %"solana_program::program_error::ProgramError" }
%"std::option::Option<[u8; 8]>" = type { i8, [8 x i8] }
%"std::option::Option<[u8; 8]>::Some" = type { [1 x i8], [8 x i8] }
%"std::result::Result<&u8, error::TokenError>" = type { i8, [15 x i8] }
%"std::result::Result<&u8, error::TokenError>::Err" = type { [1 x i8], i8 }
%"std::result::Result<&u8, error::TokenError>::Ok" = type { [1 x i64], i8* }
%"std::result::Result<u64, error::TokenError>" = type { i8, [15 x i8] }
%"std::result::Result<u64, error::TokenError>::Err" = type { [1 x i8], i8 }
%"std::result::Result<u64, error::TokenError>::Ok" = type { [1 x i64], i64 }
%"std::result::Result<&solana_program::account_info::AccountInfo, solana_program::program_error::ProgramError>::Err" = type { [1 x i64], %"solana_program::program_error::ProgramError" }
%"std::result::Result<&solana_program::account_info::AccountInfo, solana_program::program_error::ProgramError>::Ok" = type { [1 x i64], %"solana_program::account_info::AccountInfo"* }
%"std::result::Result<(&u8, &[u8]), error::TokenError>" = type { i8, [31 x i8] }
%"std::result::Result<(&u8, &[u8]), error::TokenError>::Err" = type { [1 x i8], i8 }
%"std::result::Result<(&u8, &[u8]), error::TokenError>::Ok" = type { [1 x i64], { i8*, { [0 x i8]*, i64 } } }
%"[closure@/home/chinedum/.cargo/registry/src/github.com-1ecc6299db9ec823/spl-token-3.3.0/src/instruction.rs:438:31: 438:60]" = type {}
%"std::result::Result<[u8; 8], std::array::TryFromSliceError>" = type { i8, [8 x i8] }
%"std::result::Result<[u8; 8], std::array::TryFromSliceError>::Ok" = type { [1 x i8], [8 x i8] }
%"std::result::Result<state::AccountState, num_enum::TryFromPrimitiveError<state::AccountState>>::Ok" = type { [1 x i8], i8 }
%"std::result::Result<state::AccountState, solana_program::program_error::ProgramError>::Ok" = type { [1 x i8], i8 }
%"std::result::Result<solana_program::rent::Rent, solana_program::program_error::ProgramError>::Ok" = type { [1 x i64], %"solana_program::rent::Rent" }
%"[closure@/home/chinedum/.cargo/registry/src/github.com-1ecc6299db9ec823/spl-token-3.3.0/src/processor.rs:114:26: 114:81]" = type {}
%"[closure@/home/chinedum/.cargo/registry/src/github.com-1ecc6299db9ec823/spl-token-3.3.0/src/instruction.rs:454:31: 454:79]" = type {}
%"std::alloc::Global" = type {}
%"std::result::Result<std::convert::Infallible, std::alloc::AllocError>::Err" = type { %"std::alloc::AllocError" }
%"std::alloc::AllocError" = type {}
%"std::ops::ControlFlow<std::result::Result<std::convert::Infallible, error::TokenError>, u64>" = type { i8, [15 x i8] }
%"std::ops::ControlFlow<std::result::Result<std::convert::Infallible, error::TokenError>, u64>::Continue" = type { [1 x i64], i64 }
%"std::ops::ControlFlow<std::result::Result<std::convert::Infallible, error::TokenError>, u64>::Break" = type { [1 x i8], i8 }
%"std::ops::ControlFlow<std::result::Result<std::convert::Infallible, solana_program::program_error::ProgramError>, instruction::TokenInstruction>" = type { i64, [10 x i64] }
%"instruction::TokenInstruction" = type { i32, [19 x i32] }
%"std::result::Result<instruction::TokenInstruction, solana_program::program_error::ProgramError>::Ok" = type { [1 x i64], %"instruction::TokenInstruction" }
%"std::ops::ControlFlow<std::result::Result<std::convert::Infallible, solana_program::program_error::ProgramError>, instruction::TokenInstruction>::Continue" = type { [1 x i64], %"instruction::TokenInstruction" }
%"std::ops::ControlFlow<std::result::Result<std::convert::Infallible, solana_program::program_error::ProgramError>, instruction::TokenInstruction>::Break" = type { [1 x i64], %"std::result::Result<std::convert::Infallible, solana_program::program_error::ProgramError>::Err" }
%"std::ops::ControlFlow<std::result::Result<std::convert::Infallible, solana_program::program_error::ProgramError>, solana_program::program_option::COption<u64>>" = type { i64, [4 x i64] }
%"std::result::Result<solana_program::program_option::COption<u64>, solana_program::program_error::ProgramError>" = type { i64, [4 x i64] }
%"std::result::Result<solana_program::program_option::COption<u64>, solana_program::program_error::ProgramError>::Ok" = type { [1 x i64], { i32, i64 } }
%"std::ops::ControlFlow<std::result::Result<std::convert::Infallible, solana_program::program_error::ProgramError>, solana_program::program_option::COption<u64>>::Continue" = type { [1 x i64], { i32, i64 } }
%"std::result::Result<solana_program::program_option::COption<u64>, solana_program::program_error::ProgramError>::Err" = type { [1 x i64], %"solana_program::program_error::ProgramError" }
%"std::ops::ControlFlow<std::result::Result<std::convert::Infallible, solana_program::program_error::ProgramError>, solana_program::program_option::COption<u64>>::Break" = type { [1 x i64], %"std::result::Result<std::convert::Infallible, solana_program::program_error::ProgramError>::Err" }
%"std::ops::ControlFlow<std::result::Result<std::convert::Infallible, solana_program::program_error::ProgramError>, (instruction::AuthorityType, &[u8])>" = type { i64, [4 x i64] }
%"std::result::Result<(instruction::AuthorityType, &[u8]), solana_program::program_error::ProgramError>::Ok" = type { [1 x i64], { i8, [7 x i8], { [0 x i8]*, i64 } } }
%"std::ops::ControlFlow<std::result::Result<std::convert::Infallible, solana_program::program_error::ProgramError>, (instruction::AuthorityType, &[u8])>::Continue" = type { [1 x i64], { i8, [7 x i8], { [0 x i8]*, i64 } } }
%"std::ops::ControlFlow<std::result::Result<std::convert::Infallible, solana_program::program_error::ProgramError>, (instruction::AuthorityType, &[u8])>::Break" = type { [1 x i64], %"std::result::Result<std::convert::Infallible, solana_program::program_error::ProgramError>::Err" }
%"std::ops::ControlFlow<std::result::Result<std::convert::Infallible, solana_program::program_error::ProgramError>, &solana_program::account_info::AccountInfo>" = type { i64, [4 x i64] }
%"std::ops::ControlFlow<std::result::Result<std::convert::Infallible, solana_program::program_error::ProgramError>, &solana_program::account_info::AccountInfo>::Continue" = type { [1 x i64], %"solana_program::account_info::AccountInfo"* }
%"std::ops::ControlFlow<std::result::Result<std::convert::Infallible, solana_program::program_error::ProgramError>, &solana_program::account_info::AccountInfo>::Break" = type { [1 x i64], %"std::result::Result<std::convert::Infallible, solana_program::program_error::ProgramError>::Err" }
%"std::ops::ControlFlow<std::result::Result<std::convert::Infallible, solana_program::program_error::ProgramError>, solana_program::rent::Rent>" = type { i64, [4 x i64] }
%"std::ops::ControlFlow<std::result::Result<std::convert::Infallible, solana_program::program_error::ProgramError>, solana_program::rent::Rent>::Continue" = type { [1 x i64], %"solana_program::rent::Rent" }
%"std::ops::ControlFlow<std::result::Result<std::convert::Infallible, solana_program::program_error::ProgramError>, solana_program::rent::Rent>::Break" = type { [1 x i64], %"std::result::Result<std::convert::Infallible, solana_program::program_error::ProgramError>::Err" }
%"std::ops::ControlFlow<std::result::Result<std::convert::Infallible, solana_program::program_error::ProgramError>, (solana_program::pubkey::Pubkey, &[u8])>" = type { i64, [6 x i64] }
%"std::result::Result<(solana_program::pubkey::Pubkey, &[u8]), solana_program::program_error::ProgramError>" = type { i64, [6 x i64] }
%"std::result::Result<(solana_program::pubkey::Pubkey, &[u8]), solana_program::program_error::ProgramError>::Ok" = type { [1 x i64], { %"solana_program::pubkey::Pubkey", { [0 x i8]*, i64 } } }
%"std::ops::ControlFlow<std::result::Result<std::convert::Infallible, solana_program::program_error::ProgramError>, (solana_program::pubkey::Pubkey, &[u8])>::Continue" = type { [1 x i64], { %"solana_program::pubkey::Pubkey", { [0 x i8]*, i64 } } }
%"std::result::Result<(solana_program::pubkey::Pubkey, &[u8]), solana_program::program_error::ProgramError>::Err" = type { [1 x i64], %"solana_program::program_error::ProgramError" }
%"std::ops::ControlFlow<std::result::Result<std::convert::Infallible, solana_program::program_error::ProgramError>, (solana_program::pubkey::Pubkey, &[u8])>::Break" = type { [1 x i64], %"std::result::Result<std::convert::Infallible, solana_program::program_error::ProgramError>::Err" }
%"std::ops::ControlFlow<std::result::Result<std::convert::Infallible, solana_program::program_error::ProgramError>>" = type { i32, [7 x i32] }
%"std::ops::ControlFlow<std::result::Result<std::convert::Infallible, solana_program::program_error::ProgramError>>::Continue" = type { {} }
%"std::ops::ControlFlow<std::result::Result<std::convert::Infallible, solana_program::program_error::ProgramError>>::Break" = type { %"std::result::Result<std::convert::Infallible, solana_program::program_error::ProgramError>::Err" }
%"std::ops::ControlFlow<std::result::Result<std::convert::Infallible, error::TokenError>, &u8>" = type { i8, [15 x i8] }
%"std::ops::ControlFlow<std::result::Result<std::convert::Infallible, error::TokenError>, &u8>::Continue" = type { [1 x i64], i8* }
%"std::ops::ControlFlow<std::result::Result<std::convert::Infallible, error::TokenError>, &u8>::Break" = type { [1 x i8], i8 }
%"std::ops::ControlFlow<std::result::Result<std::convert::Infallible, solana_program::program_error::ProgramError>, solana_program::pubkey::Pubkey>" = type { i8, [39 x i8] }
%"std::ops::ControlFlow<std::result::Result<std::convert::Infallible, solana_program::program_error::ProgramError>, solana_program::pubkey::Pubkey>::Continue" = type { [1 x i8], %"solana_program::pubkey::Pubkey" }
%"std::ops::ControlFlow<std::result::Result<std::convert::Infallible, solana_program::program_error::ProgramError>, solana_program::pubkey::Pubkey>::Break" = type { [1 x i64], %"std::result::Result<std::convert::Infallible, solana_program::program_error::ProgramError>::Err" }
%"std::ops::ControlFlow<std::result::Result<std::convert::Infallible, solana_program::program_error::ProgramError>, solana_program::program_option::COption<solana_program::pubkey::Pubkey>>" = type { i32, [9 x i32] }
%"std::result::Result<solana_program::program_option::COption<solana_program::pubkey::Pubkey>, solana_program::program_error::ProgramError>" = type { i32, [9 x i32] }
%"std::result::Result<solana_program::program_option::COption<solana_program::pubkey::Pubkey>, solana_program::program_error::ProgramError>::Ok" = type { [1 x i32], %"solana_program::program_option::COption<solana_program::pubkey::Pubkey>" }
%"std::ops::ControlFlow<std::result::Result<std::convert::Infallible, solana_program::program_error::ProgramError>, solana_program::program_option::COption<solana_program::pubkey::Pubkey>>::Continue" = type { [1 x i32], %"solana_program::program_option::COption<solana_program::pubkey::Pubkey>" }
%"std::result::Result<solana_program::program_option::COption<solana_program::pubkey::Pubkey>, solana_program::program_error::ProgramError>::Err" = type { [1 x i64], %"solana_program::program_error::ProgramError" }
%"std::ops::ControlFlow<std::result::Result<std::convert::Infallible, solana_program::program_error::ProgramError>, solana_program::program_option::COption<solana_program::pubkey::Pubkey>>::Break" = type { [1 x i64], %"std::result::Result<std::convert::Infallible, solana_program::program_error::ProgramError>::Err" }
%"std::ops::ControlFlow<std::result::Result<std::convert::Infallible, solana_program::program_error::ProgramError>, instruction::AuthorityType>" = type { i8, [39 x i8] }
%"std::result::Result<instruction::AuthorityType, solana_program::program_error::ProgramError>" = type { i8, [39 x i8] }
%"std::result::Result<instruction::AuthorityType, solana_program::program_error::ProgramError>::Ok" = type { [1 x i8], i8 }
%"std::ops::ControlFlow<std::result::Result<std::convert::Infallible, solana_program::program_error::ProgramError>, instruction::AuthorityType>::Continue" = type { [1 x i8], i8 }
%"std::result::Result<instruction::AuthorityType, solana_program::program_error::ProgramError>::Err" = type { [1 x i64], %"solana_program::program_error::ProgramError" }
%"std::ops::ControlFlow<std::result::Result<std::convert::Infallible, solana_program::program_error::ProgramError>, instruction::AuthorityType>::Break" = type { [1 x i64], %"std::result::Result<std::convert::Infallible, solana_program::program_error::ProgramError>::Err" }
%"std::ops::ControlFlow<std::result::Result<std::convert::Infallible, error::TokenError>, (&u8, &[u8])>" = type { i8, [31 x i8] }
%"std::ops::ControlFlow<std::result::Result<std::convert::Infallible, error::TokenError>, (&u8, &[u8])>::Continue" = type { [1 x i64], { i8*, { [0 x i8]*, i64 } } }
%"std::ops::ControlFlow<std::result::Result<std::convert::Infallible, error::TokenError>, (&u8, &[u8])>::Break" = type { [1 x i8], i8 }
%"std::ops::ControlFlow<std::result::Result<std::convert::Infallible, std::boxed::Box<bincode::error::ErrorKind>>, solana_program::rent::Rent>" = type { i64, [3 x i64] }
%"std::ops::ControlFlow<std::result::Result<std::convert::Infallible, std::boxed::Box<bincode::error::ErrorKind>>, solana_program::rent::Rent>::Continue" = type { [1 x i64], %"solana_program::rent::Rent" }
%"std::ops::ControlFlow<std::result::Result<std::convert::Infallible, std::boxed::Box<bincode::error::ErrorKind>>, solana_program::rent::Rent>::Break" = type { [1 x i64], i64* }
%"std::ops::ControlFlow<std::result::Result<std::convert::Infallible, solana_program::program_error::ProgramError>, state::AccountState>" = type { i8, [39 x i8] }
%"std::ops::ControlFlow<std::result::Result<std::convert::Infallible, solana_program::program_error::ProgramError>, state::AccountState>::Continue" = type { [1 x i8], i8 }
%"std::ops::ControlFlow<std::result::Result<std::convert::Infallible, solana_program::program_error::ProgramError>, state::AccountState>::Break" = type { [1 x i64], %"std::result::Result<std::convert::Infallible, solana_program::program_error::ProgramError>::Err" }
%"std::ops::ControlFlow<std::result::Result<std::convert::Infallible, solana_program::program_error::ProgramError>, (solana_program::program_option::COption<solana_program::pubkey::Pubkey>, &[u8])>" = type { i64, [7 x i64] }
%"std::result::Result<(solana_program::program_option::COption<solana_program::pubkey::Pubkey>, &[u8]), solana_program::program_error::ProgramError>" = type { i64, [7 x i64] }
%"std::result::Result<(solana_program::program_option::COption<solana_program::pubkey::Pubkey>, &[u8]), solana_program::program_error::ProgramError>::Ok" = type { [1 x i64], { %"solana_program::program_option::COption<solana_program::pubkey::Pubkey>", [1 x i32], { [0 x i8]*, i64 } } }
%"std::ops::ControlFlow<std::result::Result<std::convert::Infallible, solana_program::program_error::ProgramError>, (solana_program::program_option::COption<solana_program::pubkey::Pubkey>, &[u8])>::Continue" = type { [1 x i64], { %"solana_program::program_option::COption<solana_program::pubkey::Pubkey>", [1 x i32], { [0 x i8]*, i64 } } }
%"std::result::Result<(solana_program::program_option::COption<solana_program::pubkey::Pubkey>, &[u8]), solana_program::program_error::ProgramError>::Err" = type { [1 x i64], %"solana_program::program_error::ProgramError" }
%"std::ops::ControlFlow<std::result::Result<std::convert::Infallible, solana_program::program_error::ProgramError>, (solana_program::program_option::COption<solana_program::pubkey::Pubkey>, &[u8])>::Break" = type { [1 x i64], %"std::result::Result<std::convert::Infallible, solana_program::program_error::ProgramError>::Err" }
%"bincode::config::WithOtherTrailing<bincode::config::WithOtherIntEncoding<bincode::config::DefaultOptions, bincode::config::int::FixintEncoding>, bincode::config::trailing::AllowTrailing>" = type { %"bincode::config::WithOtherIntEncoding<bincode::config::DefaultOptions, bincode::config::int::FixintEncoding>", %"std::marker::PhantomData<bincode::config::trailing::AllowTrailing>" }
%"bincode::config::WithOtherIntEncoding<bincode::config::DefaultOptions, bincode::config::int::FixintEncoding>" = type { %"bincode::config::DefaultOptions", %"std::marker::PhantomData<bincode::config::int::FixintEncoding>" }
%"bincode::config::DefaultOptions" = type { %"bincode::config::limit::Infinite" }
%"bincode::config::limit::Infinite" = type {}
%"std::marker::PhantomData<bincode::config::int::FixintEncoding>" = type {}
%"std::marker::PhantomData<bincode::config::trailing::AllowTrailing>" = type {}
%"bincode::config::WithOtherLimit<bincode::config::WithOtherTrailing<bincode::config::WithOtherIntEncoding<bincode::config::DefaultOptions, bincode::config::int::FixintEncoding>, bincode::config::trailing::AllowTrailing>, bincode::config::limit::Infinite>" = type { %"bincode::config::WithOtherTrailing<bincode::config::WithOtherIntEncoding<bincode::config::DefaultOptions, bincode::config::int::FixintEncoding>, bincode::config::trailing::AllowTrailing>", %"bincode::config::limit::Infinite" }
%"std::result::Result<f64, std::io::Error>" = type { i64, [2 x i64] }
%"std::result::Result<usize, std::io::Error>" = type { i64, [2 x i64] }
%"std::result::Result<(), std::io::Error>" = type { i8, [15 x i8] }
%"std::result::Result<usize, std::io::Error>::Ok" = type { [1 x i64], i64 }
%"std::result::Result<usize, std::io::Error>::Err" = type { [1 x i64], %"std::io::Error" }
%"std::result::Result<(), std::io::Error>::Err" = type { %"std::io::Error" }
%"std::result::Result<f64, std::io::Error>::Err" = type { [1 x i64], %"std::io::Error" }
%"std::result::Result<f64, std::io::Error>::Ok" = type { [1 x i64], double }
%"std::fmt::DebugTuple" = type { %"std::fmt::Formatter"*, i64, i8, i8, [6 x i8] }
%"solana_program::program_option::COption<u64>::Some" = type { [1 x i64], i64 }
%"std::option::Option<usize>::Some" = type { [1 x i64], i64 }
%"std::ops::ControlFlow<std::result::Result<std::convert::Infallible, std::io::Error>, f64>" = type { i64, [2 x i64] }
%"std::ops::ControlFlow<std::result::Result<std::convert::Infallible, std::io::Error>, f64>::Continue" = type { [1 x i64], double }
%"std::ops::ControlFlow<std::result::Result<std::convert::Infallible, std::io::Error>, f64>::Break" = type { [1 x i64], %"std::result::Result<std::convert::Infallible, std::io::Error>::Err" }
%"solana_program::program_error::ProgramError::Custom" = type { [1 x i32], i32 }
%"instruction::TokenInstruction::InitializeMint2" = type { [8 x i8], i8, %"solana_program::pubkey::Pubkey", [3 x i8], %"solana_program::program_option::COption<solana_program::pubkey::Pubkey>" }
%"instruction::TokenInstruction::InitializeMultisig2" = type { [8 x i8], i8, [7 x i8] }
%"instruction::TokenInstruction::InitializeAccount3" = type { [8 x i8], %"solana_program::pubkey::Pubkey" }
%"instruction::TokenInstruction::InitializeAccount2" = type { [8 x i8], %"solana_program::pubkey::Pubkey" }
%"instruction::TokenInstruction::BurnChecked" = type { [1 x i64], i64, i8, [7 x i8] }
%"instruction::TokenInstruction::MintToChecked" = type { [1 x i64], i64, i8, [7 x i8] }
%"instruction::TokenInstruction::ApproveChecked" = type { [1 x i64], i64, i8, [7 x i8] }
%"instruction::TokenInstruction::TransferChecked" = type { [1 x i64], i64, i8, [7 x i8] }
%"instruction::TokenInstruction::SetAuthority" = type { [8 x i8], i8, [3 x i8], %"solana_program::program_option::COption<solana_program::pubkey::Pubkey>" }
%"instruction::TokenInstruction::Transfer" = type { [1 x i64], i64 }
%"instruction::TokenInstruction::Approve" = type { [1 x i64], i64 }
%"instruction::TokenInstruction::MintTo" = type { [1 x i64], i64 }
%"instruction::TokenInstruction::Burn" = type { [1 x i64], i64 }
%"instruction::TokenInstruction::InitializeMultisig" = type { [8 x i8], i8, [7 x i8] }
%"instruction::TokenInstruction::InitializeMint" = type { [8 x i8], i8, %"solana_program::pubkey::Pubkey", [3 x i8], %"solana_program::program_option::COption<solana_program::pubkey::Pubkey>" }
%"std::vec::Vec<u8>" = type { { i8*, i64 }, i64 }
%"std::result::Result<solana_program::instruction::Instruction, solana_program::program_error::ProgramError>" = type { i64, [10 x i64] }
%"std::vec::Vec<solana_program::instruction::AccountMeta>" = type { { i8*, i64 }, i64 }
%"solana_program::instruction::Instruction" = type { %"std::vec::Vec<solana_program::instruction::AccountMeta>", %"std::vec::Vec<u8>", %"solana_program::pubkey::Pubkey" }
%"solana_program::instruction::AccountMeta" = type { %"solana_program::pubkey::Pubkey", i8, i8 }
%"std::result::Result<solana_program::instruction::Instruction, solana_program::program_error::ProgramError>::Ok" = type { [1 x i64], %"solana_program::instruction::Instruction" }
%"std::result::Result<solana_program::instruction::Instruction, solana_program::program_error::ProgramError>::Err" = type { [1 x i64], %"solana_program::program_error::ProgramError" }
%"std::iter::Enumerate<std::slice::Iter<solana_program::account_info::AccountInfo>>" = type { { i64*, i64* }, i64 }
%"std::rc::RcBox<std::cell::RefCell<&mut u64>>" = type { i64, i64, { i64, i64* } }
%"std::iter::Enumerate<std::slice::Iter<solana_program::pubkey::Pubkey>>" = type { { i8*, i8* }, i64 }
%"std::fmt::DebugStruct" = type { %"std::fmt::Formatter"*, i8, i8, [6 x i8] }
%"std::result::Result<state::AccountState, num_enum::TryFromPrimitiveError<state::AccountState>>::Err" = type { [1 x i8], i8 }

@alloc1285 = private unnamed_addr constant <{ [4 x i8] }> <{ [4 x i8] c"Rent" }>, align 1
@alloc638 = private unnamed_addr constant <{ [22 x i8] }> <{ [22 x i8] c"lamports_per_byte_year" }>, align 1
@alloc640 = private unnamed_addr constant <{ [19 x i8] }> <{ [19 x i8] c"exemption_threshold" }>, align 1
@alloc641 = private unnamed_addr constant <{ [12 x i8] }> <{ [12 x i8] c"burn_percent" }>, align 1
@alloc639 = private unnamed_addr constant <{ i8*, [8 x i8], i8*, [8 x i8], i8*, [8 x i8] }> <{ i8* getelementptr inbounds (<{ [22 x i8] }>, <{ [22 x i8] }>* @alloc638, i32 0, i32 0, i32 0), [8 x i8] c"\16\00\00\00\00\00\00\00", i8* getelementptr inbounds (<{ [19 x i8] }>, <{ [19 x i8] }>* @alloc640, i32 0, i32 0, i32 0), [8 x i8] c"\13\00\00\00\00\00\00\00", i8* getelementptr inbounds (<{ [12 x i8] }>, <{ [12 x i8] }>* @alloc641, i32 0, i32 0, i32 0), [8 x i8] c"\0C\00\00\00\00\00\00\00" }>, align 8
@0 = private unnamed_addr constant <{ i8*, [8 x i8] }> <{ i8* bitcast (<{ i8*, [8 x i8], i8*, [8 x i8], i8*, [8 x i8] }>* @alloc639 to i8*), [8 x i8] c"\03\00\00\00\00\00\00\00" }>, align 8
@alloc1286 = private unnamed_addr constant <{ [103 x i8] }> <{ [103 x i8] c"/home/chinedum/.cargo/registry/src/github.com-1ecc6299db9ec823/solana-program-1.10.34/src/sysvar/mod.rs" }>, align 1
@alloc1287 = private unnamed_addr constant <{ i8*, [16 x i8] }> <{ i8* getelementptr inbounds (<{ [103 x i8] }>, <{ [103 x i8] }>* @alloc1286, i32 0, i32 0, i32 0), [16 x i8] c"g\00\00\00\00\00\00\00w\00\00\001\00\00\00" }>, align 8
@alloc643 = private unnamed_addr constant <{ [27 x i8] }> <{ [27 x i8] c"struct Rent with 3 elements" }>, align 1
@alloc644 = private unnamed_addr constant <{ i8*, [8 x i8] }> <{ i8* getelementptr inbounds (<{ [27 x i8] }>, <{ [27 x i8] }>* @alloc643, i32 0, i32 0, i32 0), [8 x i8] c"\1B\00\00\00\00\00\00\00" }>, align 8
@vtable.0 = private unnamed_addr constant <{ i8*, [16 x i8], i8*, [0 x i8] }> <{ i8* bitcast (void ({ [0 x i8]*, i64 }*)* @"_ZN4core3ptr28drop_in_place$LT$$RF$str$GT$17h15f6c23daf52fd29E" to i8*), [16 x i8] c"\10\00\00\00\00\00\00\00\08\00\00\00\00\00\00\00", i8* bitcast (i1 ({ [0 x i8]*, i64 }*, %"std::fmt::Formatter"*)* @"_ZN47_$LT$$RF$str$u20$as$u20$serde..de..Expected$GT$3fmt17hbbb984973d57e2c3E" to i8*), [0 x i8] zeroinitializer }>, align 8, !dbg !0
@alloc1291 = private unnamed_addr constant <{ [90 x i8] }> <{ [90 x i8] c"/home/chinedum/.cargo/registry/src/github.com-1ecc6299db9ec823/bincode-1.3.3/src/de/mod.rs" }>, align 1
@alloc1292 = private unnamed_addr constant <{ i8*, [16 x i8] }> <{ i8* getelementptr inbounds (<{ [90 x i8] }>, <{ [90 x i8] }>* @alloc1291, i32 0, i32 0, i32 0), [16 x i8] c"Z\00\00\00\00\00\00\008\01\00\00\15\00\00\00" }>, align 8
@str.1 = internal constant [33 x i8] c"attempt to subtract with overflow"
@alloc1293 = private unnamed_addr constant <{ [12 x i8] }> <{ [12 x i8] c"invalid args" }>, align 1
@alloc1294 = private unnamed_addr constant <{ [74 x i8] }> <{ [74 x i8] c"/home/runner/work/bpf-tools/bpf-tools/out/rust/library/core/src/fmt/mod.rs" }>, align 1
@alloc1295 = private unnamed_addr constant <{ i8*, [16 x i8] }> <{ i8* getelementptr inbounds (<{ [74 x i8] }>, <{ [74 x i8] }>* @alloc1294, i32 0, i32 0, i32 0), [16 x i8] c"J\00\00\00\00\00\00\00c\01\00\00\0D\00\00\00" }>, align 8
@alloc1296 = private unnamed_addr constant <{ [74 x i8] }> <{ [74 x i8] c"/home/runner/work/bpf-tools/bpf-tools/out/rust/library/core/src/num/mod.rs" }>, align 1
@alloc1297 = private unnamed_addr constant <{ i8*, [16 x i8] }> <{ i8* getelementptr inbounds (<{ [74 x i8] }>, <{ [74 x i8] }>* @alloc1296, i32 0, i32 0, i32 0), [16 x i8] c"J\00\00\00\00\00\00\00D\03\00\00\05\00\00\00" }>, align 8
@str.2 = internal constant [33 x i8] c"attempt to multiply with overflow"
@alloc1299 = private unnamed_addr constant <{ [16 x i8] }> <{ [16 x i8] c"already borrowed" }>, align 1
@alloc1300 = private unnamed_addr constant <{ [76 x i8] }> <{ [76 x i8] c"/home/runner/work/bpf-tools/bpf-tools/out/rust/library/core/src/array/mod.rs" }>, align 1
@alloc1301 = private unnamed_addr constant <{ i8*, [16 x i8] }> <{ i8* getelementptr inbounds (<{ [76 x i8] }>, <{ [76 x i8] }>* @alloc1300, i32 0, i32 0, i32 0), [16 x i8] c"L\00\00\00\00\00\00\00\A5\00\00\00\1B\00\00\00" }>, align 8
@alloc776 = private unnamed_addr constant <{ [8 x i8] }> zeroinitializer, align 8
@alloc1302 = private unnamed_addr constant <{ [76 x i8] }> <{ [76 x i8] c"/home/runner/work/bpf-tools/bpf-tools/out/rust/library/core/src/slice/mod.rs" }>, align 1
@alloc1303 = private unnamed_addr constant <{ i8*, [16 x i8] }> <{ i8* getelementptr inbounds (<{ [76 x i8] }>, <{ [76 x i8] }>* @alloc1302, i32 0, i32 0, i32 0), [16 x i8] c"L\00\00\00\00\00\00\00\14\03\00\00\09\00\00\00" }>, align 8
@vtable.3 = private unnamed_addr constant <{ i8*, [16 x i8], i8*, [0 x i8] }> <{ i8* bitcast (void (%"std::cell::BorrowMutError"*)* @"_ZN4core3ptr47drop_in_place$LT$core..cell..BorrowMutError$GT$17h8fc7c1fb5de06019E" to i8*), [16 x i8] c"\00\00\00\00\00\00\00\00\01\00\00\00\00\00\00\00", i8* bitcast (i1 (%"std::cell::BorrowMutError"*, %"std::fmt::Formatter"*)* @"_ZN63_$LT$core..cell..BorrowMutError$u20$as$u20$core..fmt..Debug$GT$3fmt17h8fbce2618a168c02E" to i8*), [0 x i8] zeroinitializer }>, align 8, !dbg !12
@alloc1034 = private unnamed_addr constant <{ [0 x i8] }> zeroinitializer, align 8
@alloc1307 = private unnamed_addr constant <{ [51 x i8] }> <{ [51 x i8] c"assertion failed: 8 == ::std::mem::size_of::<u64>()" }>, align 1
@alloc1308 = private unnamed_addr constant <{ [93 x i8] }> <{ [93 x i8] c"/home/chinedum/.cargo/registry/src/github.com-1ecc6299db9ec823/bincode-1.3.3/src/byteorder.rs" }>, align 1
@alloc1309 = private unnamed_addr constant <{ i8*, [16 x i8] }> <{ i8* getelementptr inbounds (<{ [93 x i8] }>, <{ [93 x i8] }>* @alloc1308, i32 0, i32 0, i32 0), [16 x i8] c"]\00\00\00\00\00\00\007\00\00\00\09\00\00\00" }>, align 8
@alloc1310 = private unnamed_addr constant <{ [32 x i8] }> <{ [32 x i8] c"assertion failed: 8 <= buf.len()" }>, align 1
@alloc1316 = private unnamed_addr constant <{ [4 x i8] }> <{ [4 x i8] c"Some" }>, align 1
@vtable.4 = private unnamed_addr constant <{ i8*, [16 x i8], i8*, [0 x i8] }> <{ i8* bitcast (void (i64**)* @"_ZN4core3ptr28drop_in_place$LT$$RF$u64$GT$17hb1466cf0bc105d2aE" to i8*), [16 x i8] c"\08\00\00\00\00\00\00\00\08\00\00\00\00\00\00\00", i8* bitcast (i1 (i64**, %"std::fmt::Formatter"*)* @"_ZN42_$LT$$RF$T$u20$as$u20$core..fmt..Debug$GT$3fmt17h45523a92a04b3baeE" to i8*), [0 x i8] zeroinitializer }>, align 8, !dbg !18
@alloc1320 = private unnamed_addr constant <{ [4 x i8] }> <{ [4 x i8] c"None" }>, align 1
@vtable.5 = private unnamed_addr constant <{ i8*, [16 x i8], i8*, [0 x i8] }> <{ i8* bitcast (void (%"solana_program::pubkey::Pubkey"**)* @"_ZN4core3ptr55drop_in_place$LT$$RF$solana_program..pubkey..Pubkey$GT$17h2a9cadc3eecb431bE" to i8*), [16 x i8] c"\08\00\00\00\00\00\00\00\08\00\00\00\00\00\00\00", i8* bitcast (i1 (%"solana_program::pubkey::Pubkey"**, %"std::fmt::Formatter"*)* @"_ZN42_$LT$$RF$T$u20$as$u20$core..fmt..Debug$GT$3fmt17hff1f5db03179eea2E" to i8*), [0 x i8] zeroinitializer }>, align 8, !dbg !23
@alloc1323 = private unnamed_addr constant <{ [77 x i8] }> <{ [77 x i8] c"/home/runner/work/bpf-tools/bpf-tools/out/rust/library/core/src/slice/iter.rs" }>, align 1
@alloc1322 = private unnamed_addr constant <{ i8*, [16 x i8] }> <{ i8* getelementptr inbounds (<{ [77 x i8] }>, <{ [77 x i8] }>* @alloc1323, i32 0, i32 0, i32 0), [16 x i8] c"M\00\00\00\00\00\00\00w\05\00\00\15\00\00\00" }>, align 8
@str.6 = internal constant [25 x i8] c"attempt to divide by zero"
@alloc1324 = private unnamed_addr constant <{ i8*, [16 x i8] }> <{ i8* getelementptr inbounds (<{ [77 x i8] }>, <{ [77 x i8] }>* @alloc1323, i32 0, i32 0, i32 0), [16 x i8] c"M\00\00\00\00\00\00\00x\05\00\00\17\00\00\00" }>, align 8
@str.7 = internal constant [57 x i8] c"attempt to calculate the remainder with a divisor of zero"
@alloc1325 = private unnamed_addr constant <{ [40 x i8] }> <{ [40 x i8] c"internal error: entered unreachable code" }>, align 1
@alloc1356 = private unnamed_addr constant <{ [97 x i8] }> <{ [97 x i8] c"/home/chinedum/.cargo/registry/src/github.com-1ecc6299db9ec823/spl-token-3.3.0/src/instruction.rs" }>, align 1
@alloc1327 = private unnamed_addr constant <{ i8*, [16 x i8] }> <{ i8* getelementptr inbounds (<{ [97 x i8] }>, <{ [97 x i8] }>* @alloc1356, i32 0, i32 0, i32 0), [16 x i8] c"a\00\00\00\00\00\00\00\BE\01\00\00\1A\00\00\00" }>, align 8
@alloc489 = private unnamed_addr constant <{ [80 x i8] }> <{ [80 x i8] c"\01\00\00\00\00\00\00\00\00\00\00\00\00\00\00\00\00\00\00\00\00\00\00\00\00\00\00\00\00\00\00\00\00\00\00\00\00\00\00\00\00\00\00\00\00\00\00\00\00\00\00\00\00\00\00\00\00\00\00\00\00\00\00\00\00\00\00\00\00\00\00\00\00\00\00\00\00\00\00\00" }>, align 8
@alloc1329 = private unnamed_addr constant <{ i8*, [16 x i8] }> <{ i8* getelementptr inbounds (<{ [97 x i8] }>, <{ [97 x i8] }>* @alloc1356, i32 0, i32 0, i32 0), [16 x i8] c"a\00\00\00\00\00\00\00N\03\00\00+\00\00\00" }>, align 8
@str.8 = internal constant [28 x i8] c"attempt to add with overflow"
@alloc1331 = private unnamed_addr constant <{ i8*, [16 x i8] }> <{ i8* getelementptr inbounds (<{ [97 x i8] }>, <{ [97 x i8] }>* @alloc1356, i32 0, i32 0, i32 0), [16 x i8] c"a\00\00\00\00\00\00\00l\03\00\00+\00\00\00" }>, align 8
@alloc1333 = private unnamed_addr constant <{ i8*, [16 x i8] }> <{ i8* getelementptr inbounds (<{ [97 x i8] }>, <{ [97 x i8] }>* @alloc1356, i32 0, i32 0, i32 0), [16 x i8] c"a\00\00\00\00\00\00\00\85\03\00\00+\00\00\00" }>, align 8
@alloc1335 = private unnamed_addr constant <{ i8*, [16 x i8] }> <{ i8* getelementptr inbounds (<{ [97 x i8] }>, <{ [97 x i8] }>* @alloc1356, i32 0, i32 0, i32 0), [16 x i8] c"a\00\00\00\00\00\00\00\A3\03\00\00+\00\00\00" }>, align 8
@alloc545 = private unnamed_addr constant <{ [80 x i8] }> <{ [80 x i8] c"\05\00\00\00\00\00\00\00\00\00\00\00\00\00\00\00\00\00\00\00\00\00\00\00\00\00\00\00\00\00\00\00\00\00\00\00\00\00\00\00\00\00\00\00\00\00\00\00\00\00\00\00\00\00\00\00\00\00\00\00\00\00\00\00\00\00\00\00\00\00\00\00\00\00\00\00\00\00\00\00" }>, align 8
@alloc1337 = private unnamed_addr constant <{ i8*, [16 x i8] }> <{ i8* getelementptr inbounds (<{ [97 x i8] }>, <{ [97 x i8] }>* @alloc1356, i32 0, i32 0, i32 0), [16 x i8] c"a\00\00\00\00\00\00\00\BF\03\00\00+\00\00\00" }>, align 8
@alloc1339 = private unnamed_addr constant <{ i8*, [16 x i8] }> <{ i8* getelementptr inbounds (<{ [97 x i8] }>, <{ [97 x i8] }>* @alloc1356, i32 0, i32 0, i32 0), [16 x i8] c"a\00\00\00\00\00\00\00\E1\03\00\00+\00\00\00" }>, align 8
@alloc1341 = private unnamed_addr constant <{ i8*, [16 x i8] }> <{ i8* getelementptr inbounds (<{ [97 x i8] }>, <{ [97 x i8] }>* @alloc1356, i32 0, i32 0, i32 0), [16 x i8] c"a\00\00\00\00\00\00\00\FE\03\00\00+\00\00\00" }>, align 8
@alloc1343 = private unnamed_addr constant <{ i8*, [16 x i8] }> <{ i8* getelementptr inbounds (<{ [97 x i8] }>, <{ [97 x i8] }>* @alloc1356, i32 0, i32 0, i32 0), [16 x i8] c"a\00\00\00\00\00\00\00\1C\04\00\00+\00\00\00" }>, align 8
@alloc571 = private unnamed_addr constant <{ [80 x i8] }> <{ [80 x i8] c"\09\00\00\00\00\00\00\00\00\00\00\00\00\00\00\00\00\00\00\00\00\00\00\00\00\00\00\00\00\00\00\00\00\00\00\00\00\00\00\00\00\00\00\00\00\00\00\00\00\00\00\00\00\00\00\00\00\00\00\00\00\00\00\00\00\00\00\00\00\00\00\00\00\00\00\00\00\00\00\00" }>, align 8
@alloc1345 = private unnamed_addr constant <{ i8*, [16 x i8] }> <{ i8* getelementptr inbounds (<{ [97 x i8] }>, <{ [97 x i8] }>* @alloc1356, i32 0, i32 0, i32 0), [16 x i8] c"a\00\00\00\00\00\00\009\04\00\00+\00\00\00" }>, align 8
@alloc579 = private unnamed_addr constant <{ [80 x i8] }> <{ [80 x i8] c"\0A\00\00\00\00\00\00\00\00\00\00\00\00\00\00\00\00\00\00\00\00\00\00\00\00\00\00\00\00\00\00\00\00\00\00\00\00\00\00\00\00\00\00\00\00\00\00\00\00\00\00\00\00\00\00\00\00\00\00\00\00\00\00\00\00\00\00\00\00\00\00\00\00\00\00\00\00\00\00\00" }>, align 8
@alloc1347 = private unnamed_addr constant <{ i8*, [16 x i8] }> <{ i8* getelementptr inbounds (<{ [97 x i8] }>, <{ [97 x i8] }>* @alloc1356, i32 0, i32 0, i32 0), [16 x i8] c"a\00\00\00\00\00\00\00V\04\00\00+\00\00\00" }>, align 8
@alloc587 = private unnamed_addr constant <{ [80 x i8] }> <{ [80 x i8] c"\0B\00\00\00\00\00\00\00\00\00\00\00\00\00\00\00\00\00\00\00\00\00\00\00\00\00\00\00\00\00\00\00\00\00\00\00\00\00\00\00\00\00\00\00\00\00\00\00\00\00\00\00\00\00\00\00\00\00\00\00\00\00\00\00\00\00\00\00\00\00\00\00\00\00\00\00\00\00\00\00" }>, align 8
@alloc1349 = private unnamed_addr constant <{ i8*, [16 x i8] }> <{ i8* getelementptr inbounds (<{ [97 x i8] }>, <{ [97 x i8] }>* @alloc1356, i32 0, i32 0, i32 0), [16 x i8] c"a\00\00\00\00\00\00\00s\04\00\00+\00\00\00" }>, align 8
@alloc1351 = private unnamed_addr constant <{ i8*, [16 x i8] }> <{ i8* getelementptr inbounds (<{ [97 x i8] }>, <{ [97 x i8] }>* @alloc1356, i32 0, i32 0, i32 0), [16 x i8] c"a\00\00\00\00\00\00\00\94\04\00\00+\00\00\00" }>, align 8
@alloc1353 = private unnamed_addr constant <{ i8*, [16 x i8] }> <{ i8* getelementptr inbounds (<{ [97 x i8] }>, <{ [97 x i8] }>* @alloc1356, i32 0, i32 0, i32 0), [16 x i8] c"a\00\00\00\00\00\00\00\B6\04\00\00+\00\00\00" }>, align 8
@alloc1355 = private unnamed_addr constant <{ i8*, [16 x i8] }> <{ i8* getelementptr inbounds (<{ [97 x i8] }>, <{ [97 x i8] }>* @alloc1356, i32 0, i32 0, i32 0), [16 x i8] c"a\00\00\00\00\00\00\00\D6\04\00\00+\00\00\00" }>, align 8
@alloc1357 = private unnamed_addr constant <{ i8*, [16 x i8] }> <{ i8* getelementptr inbounds (<{ [97 x i8] }>, <{ [97 x i8] }>* @alloc1356, i32 0, i32 0, i32 0), [16 x i8] c"a\00\00\00\00\00\00\00\F5\04\00\00+\00\00\00" }>, align 8
@alloc619 = private unnamed_addr constant <{ [80 x i8] }> <{ [80 x i8] c"\11\00\00\00\00\00\00\00\00\00\00\00\00\00\00\00\00\00\00\00\00\00\00\00\00\00\00\00\00\00\00\00\00\00\00\00\00\00\00\00\00\00\00\00\00\00\00\00\00\00\00\00\00\00\00\00\00\00\00\00\00\00\00\00\00\00\00\00\00\00\00\00\00\00\00\00\00\00\00\00" }>, align 8
@alloc520 = private unnamed_addr constant <{ [24 x i8] }> <{ [24 x i8] c"\01\00\00\00\00\00\00\00\0B\00\00\00\00\00\00\00\00\00\00\00\00\00\00\00" }>, align 8
@alloc1469 = private unnamed_addr constant <{ [95 x i8] }> <{ [95 x i8] c"/home/chinedum/.cargo/registry/src/github.com-1ecc6299db9ec823/spl-token-3.3.0/src/processor.rs" }>, align 1
@alloc1359 = private unnamed_addr constant <{ i8*, [16 x i8] }> <{ i8* getelementptr inbounds (<{ [95 x i8] }>, <{ [95 x i8] }>* @alloc1469, i32 0, i32 0, i32 0), [16 x i8] c"_\00\00\00\00\00\00\00)\00\00\00?\00\00\00" }>, align 8
@alloc1361 = private unnamed_addr constant <{ i8*, [16 x i8] }> <{ i8* getelementptr inbounds (<{ [95 x i8] }>, <{ [95 x i8] }>* @alloc1469, i32 0, i32 0, i32 0), [16 x i8] c"_\00\00\00\00\00\00\007\00\00\00.\00\00\00" }>, align 8
@alloc1363 = private unnamed_addr constant <{ i8*, [16 x i8] }> <{ i8* getelementptr inbounds (<{ [95 x i8] }>, <{ [95 x i8] }>* @alloc1469, i32 0, i32 0, i32 0), [16 x i8] c"_\00\00\00\00\00\00\00e\00\00\00L\00\00\00" }>, align 8
@alloc1365 = private unnamed_addr constant <{ i8*, [16 x i8] }> <{ i8* getelementptr inbounds (<{ [95 x i8] }>, <{ [95 x i8] }>* @alloc1469, i32 0, i32 0, i32 0), [16 x i8] c"_\00\00\00\00\00\00\00q\00\00\002\00\00\00" }>, align 8
@alloc1367 = private unnamed_addr constant <{ i8*, [16 x i8] }> <{ i8* getelementptr inbounds (<{ [95 x i8] }>, <{ [95 x i8] }>* @alloc1469, i32 0, i32 0, i32 0), [16 x i8] c"_\00\00\00\00\00\00\00\86\00\00\00;\00\00\00" }>, align 8
@alloc1369 = private unnamed_addr constant <{ i8*, [16 x i8] }> <{ i8* getelementptr inbounds (<{ [95 x i8] }>, <{ [95 x i8] }>* @alloc1469, i32 0, i32 0, i32 0), [16 x i8] c"_\00\00\00\00\00\00\00\B3\00\00\00K\00\00\00" }>, align 8
@alloc1371 = private unnamed_addr constant <{ i8*, [16 x i8] }> <{ i8* getelementptr inbounds (<{ [95 x i8] }>, <{ [95 x i8] }>* @alloc1469, i32 0, i32 0, i32 0), [16 x i8] c"_\00\00\00\00\00\00\00\C6\00\00\00\0D\00\00\00" }>, align 8
@alloc1373 = private unnamed_addr constant <{ i8*, [16 x i8] }> <{ i8* getelementptr inbounds (<{ [95 x i8] }>, <{ [95 x i8] }>* @alloc1469, i32 0, i32 0, i32 0), [16 x i8] c"_\00\00\00\00\00\00\00\CA\00\00\00:\00\00\00" }>, align 8
@alloc1375 = private unnamed_addr constant <{ i8*, [16 x i8] }> <{ i8* getelementptr inbounds (<{ [95 x i8] }>, <{ [95 x i8] }>* @alloc1469, i32 0, i32 0, i32 0), [16 x i8] c"_\00\00\00\00\00\00\00\ED\00\00\00L\00\00\00" }>, align 8
@alloc1377 = private unnamed_addr constant <{ i8*, [16 x i8] }> <{ i8* getelementptr inbounds (<{ [95 x i8] }>, <{ [95 x i8] }>* @alloc1469, i32 0, i32 0, i32 0), [16 x i8] c"_\00\00\00\00\00\00\00\EE\00\00\00H\00\00\00" }>, align 8
@alloc1379 = private unnamed_addr constant <{ i8*, [16 x i8] }> <{ i8* getelementptr inbounds (<{ [95 x i8] }>, <{ [95 x i8] }>* @alloc1469, i32 0, i32 0, i32 0), [16 x i8] c"_\00\00\00\00\00\00\00\FF\00\00\005\00\00\00" }>, align 8
@alloc1381 = private unnamed_addr constant <{ i8*, [16 x i8] }> <{ i8* getelementptr inbounds (<{ [95 x i8] }>, <{ [95 x i8] }>* @alloc1469, i32 0, i32 0, i32 0), [16 x i8] c"_\00\00\00\00\00\00\00:\01\00\00,\00\00\00" }>, align 8
@alloc1383 = private unnamed_addr constant <{ i8*, [16 x i8] }> <{ i8* getelementptr inbounds (<{ [95 x i8] }>, <{ [95 x i8] }>* @alloc1469, i32 0, i32 0, i32 0), [16 x i8] c"_\00\00\00\00\00\00\00?\01\00\00*\00\00\00" }>, align 8
@alloc1385 = private unnamed_addr constant <{ i8*, [16 x i8] }> <{ i8* getelementptr inbounds (<{ [95 x i8] }>, <{ [95 x i8] }>* @alloc1469, i32 0, i32 0, i32 0), [16 x i8] c"_\00\00\00\00\00\00\00D\01\00\00E\00\00\00" }>, align 8
@alloc1387 = private unnamed_addr constant <{ i8*, [16 x i8] }> <{ i8* getelementptr inbounds (<{ [95 x i8] }>, <{ [95 x i8] }>* @alloc1469, i32 0, i32 0, i32 0), [16 x i8] c"_\00\00\00\00\00\00\00E\01\00\00A\00\00\00" }>, align 8
@alloc1389 = private unnamed_addr constant <{ i8*, [16 x i8] }> <{ i8* getelementptr inbounds (<{ [95 x i8] }>, <{ [95 x i8] }>* @alloc1469, i32 0, i32 0, i32 0), [16 x i8] c"_\00\00\00\00\00\00\00]\01\00\00L\00\00\00" }>, align 8
@alloc1391 = private unnamed_addr constant <{ i8*, [16 x i8] }> <{ i8* getelementptr inbounds (<{ [95 x i8] }>, <{ [95 x i8] }>* @alloc1469, i32 0, i32 0, i32 0), [16 x i8] c"_\00\00\00\00\00\00\00h\01\00\005\00\00\00" }>, align 8
@alloc1393 = private unnamed_addr constant <{ i8*, [16 x i8] }> <{ i8* getelementptr inbounds (<{ [95 x i8] }>, <{ [95 x i8] }>* @alloc1469, i32 0, i32 0, i32 0), [16 x i8] c"_\00\00\00\00\00\00\00x\01\00\00E\00\00\00" }>, align 8
@alloc1395 = private unnamed_addr constant <{ i8*, [16 x i8] }> <{ i8* getelementptr inbounds (<{ [95 x i8] }>, <{ [95 x i8] }>* @alloc1469, i32 0, i32 0, i32 0), [16 x i8] c"_\00\00\00\00\00\00\00\82\01\00\00L\00\00\00" }>, align 8
@alloc1397 = private unnamed_addr constant <{ i8*, [16 x i8] }> <{ i8* getelementptr inbounds (<{ [95 x i8] }>, <{ [95 x i8] }>* @alloc1469, i32 0, i32 0, i32 0), [16 x i8] c"_\00\00\00\00\00\00\00\94\01\00\00E\00\00\00" }>, align 8
@alloc1399 = private unnamed_addr constant <{ i8*, [16 x i8] }> <{ i8* getelementptr inbounds (<{ [95 x i8] }>, <{ [95 x i8] }>* @alloc1469, i32 0, i32 0, i32 0), [16 x i8] c"_\00\00\00\00\00\00\00\A5\01\00\00B\00\00\00" }>, align 8
@alloc1401 = private unnamed_addr constant <{ i8*, [16 x i8] }> <{ i8* getelementptr inbounds (<{ [95 x i8] }>, <{ [95 x i8] }>* @alloc1469, i32 0, i32 0, i32 0), [16 x i8] c"_\00\00\00\00\00\00\00\CF\01\00\00;\00\00\00" }>, align 8
@alloc1403 = private unnamed_addr constant <{ i8*, [16 x i8] }> <{ i8* getelementptr inbounds (<{ [95 x i8] }>, <{ [95 x i8] }>* @alloc1469, i32 0, i32 0, i32 0), [16 x i8] c"_\00\00\00\00\00\00\00\D1\01\00\00<\00\00\00" }>, align 8
@alloc1405 = private unnamed_addr constant <{ i8*, [16 x i8] }> <{ i8* getelementptr inbounds (<{ [95 x i8] }>, <{ [95 x i8] }>* @alloc1469, i32 0, i32 0, i32 0), [16 x i8] c"_\00\00\00\00\00\00\00\F3\01\00\005\00\00\00" }>, align 8
@alloc1407 = private unnamed_addr constant <{ i8*, [16 x i8] }> <{ i8* getelementptr inbounds (<{ [95 x i8] }>, <{ [95 x i8] }>* @alloc1469, i32 0, i32 0, i32 0), [16 x i8] c"_\00\00\00\00\00\00\00\07\02\00\00H\00\00\00" }>, align 8
@alloc1409 = private unnamed_addr constant <{ i8*, [16 x i8] }> <{ i8* getelementptr inbounds (<{ [95 x i8] }>, <{ [95 x i8] }>* @alloc1469, i32 0, i32 0, i32 0), [16 x i8] c"_\00\00\00\00\00\00\00\13\02\00\005\00\00\00" }>, align 8
@alloc1411 = private unnamed_addr constant <{ i8*, [16 x i8] }> <{ i8* getelementptr inbounds (<{ [95 x i8] }>, <{ [95 x i8] }>* @alloc1469, i32 0, i32 0, i32 0), [16 x i8] c"_\00\00\00\00\00\00\003\02\00\00A\00\00\00" }>, align 8
@alloc1413 = private unnamed_addr constant <{ i8*, [16 x i8] }> <{ i8* getelementptr inbounds (<{ [95 x i8] }>, <{ [95 x i8] }>* @alloc1469, i32 0, i32 0, i32 0), [16 x i8] c"_\00\00\00\00\00\00\004\02\00\00.\00\00\00" }>, align 8
@alloc1415 = private unnamed_addr constant <{ i8*, [16 x i8] }> <{ i8* getelementptr inbounds (<{ [95 x i8] }>, <{ [95 x i8] }>* @alloc1469, i32 0, i32 0, i32 0), [16 x i8] c"_\00\00\00\00\00\00\00F\02\00\00L\00\00\00" }>, align 8
@alloc1417 = private unnamed_addr constant <{ i8*, [16 x i8] }> <{ i8* getelementptr inbounds (<{ [95 x i8] }>, <{ [95 x i8] }>* @alloc1469, i32 0, i32 0, i32 0), [16 x i8] c"_\00\00\00\00\00\00\00G\02\00\005\00\00\00" }>, align 8
@alloc1419 = private unnamed_addr constant <{ i8*, [16 x i8] }> <{ i8* getelementptr inbounds (<{ [95 x i8] }>, <{ [95 x i8] }>* @alloc1469, i32 0, i32 0, i32 0), [16 x i8] c"_\00\00\00\00\00\00\00\86\02\00\00E\00\00\00" }>, align 8
@alloc1421 = private unnamed_addr constant <{ i8*, [16 x i8] }> <{ i8* getelementptr inbounds (<{ [95 x i8] }>, <{ [95 x i8] }>* @alloc1469, i32 0, i32 0, i32 0), [16 x i8] c"_\00\00\00\00\00\00\00\87\02\00\00.\00\00\00" }>, align 8
@alloc1423 = private unnamed_addr constant <{ i8*, [16 x i8] }> <{ i8* getelementptr inbounds (<{ [95 x i8] }>, <{ [95 x i8] }>* @alloc1469, i32 0, i32 0, i32 0), [16 x i8] c"_\00\00\00\00\00\00\00\97\02\00\00H\00\00\00" }>, align 8
@alloc1425 = private unnamed_addr constant <{ i8*, [16 x i8] }> <{ i8* getelementptr inbounds (<{ [95 x i8] }>, <{ [95 x i8] }>* @alloc1469, i32 0, i32 0, i32 0), [16 x i8] c"_\00\00\00\00\00\00\00\A7\02\00\00&\00\00\00" }>, align 8
@alloc1427 = private unnamed_addr constant <{ i8*, [16 x i8] }> <{ i8* getelementptr inbounds (<{ [95 x i8] }>, <{ [95 x i8] }>* @alloc1469, i32 0, i32 0, i32 0), [16 x i8] c"_\00\00\00\00\00\00\00\AB\02\00\00(\00\00\00" }>, align 8
@alloc1429 = private unnamed_addr constant <{ i8*, [16 x i8] }> <{ i8* getelementptr inbounds (<{ [95 x i8] }>, <{ [95 x i8] }>* @alloc1469, i32 0, i32 0, i32 0), [16 x i8] c"_\00\00\00\00\00\00\00\AD\02\00\00.\00\00\00" }>, align 8
@alloc1431 = private unnamed_addr constant <{ i8*, [16 x i8] }> <{ i8* getelementptr inbounds (<{ [95 x i8] }>, <{ [95 x i8] }>* @alloc1469, i32 0, i32 0, i32 0), [16 x i8] c"_\00\00\00\00\00\00\00\BE\02\00\00L\00\00\00" }>, align 8
@alloc1433 = private unnamed_addr constant <{ i8*, [16 x i8] }> <{ i8* getelementptr inbounds (<{ [95 x i8] }>, <{ [95 x i8] }>* @alloc1469, i32 0, i32 0, i32 0), [16 x i8] c"_\00\00\00\00\00\00\00\C9\02\00\001\00\00\00" }>, align 8
@alloc1435 = private unnamed_addr constant <{ i8*, [16 x i8] }> <{ i8* getelementptr inbounds (<{ [95 x i8] }>, <{ [95 x i8] }>* @alloc1469, i32 0, i32 0, i32 0), [16 x i8] c"_\00\00\00\00\00\00\00\DA\02\00\00E\00\00\00" }>, align 8
@alloc1437 = private unnamed_addr constant <{ i8*, [16 x i8] }> <{ i8* getelementptr inbounds (<{ [95 x i8] }>, <{ [95 x i8] }>* @alloc1469, i32 0, i32 0, i32 0), [16 x i8] c"_\00\00\00\00\00\00\00\E5\02\00\00L\00\00\00" }>, align 8
@alloc1439 = private unnamed_addr constant <{ i8*, [16 x i8] }> <{ i8* getelementptr inbounds (<{ [95 x i8] }>, <{ [95 x i8] }>* @alloc1469, i32 0, i32 0, i32 0), [16 x i8] c"_\00\00\00\00\00\00\00\F4\02\00\00E\00\00\00" }>, align 8
@alloc1440 = private unnamed_addr constant <{ [28 x i8] }> <{ [28 x i8] c"Instruction: InitializeMint2" }>, align 1
@alloc1441 = private unnamed_addr constant <{ [32 x i8] }> <{ [32 x i8] c"Instruction: InitializeMultisig2" }>, align 1
@alloc1442 = private unnamed_addr constant <{ [31 x i8] }> <{ [31 x i8] c"Instruction: InitializeAccount3" }>, align 1
@alloc1443 = private unnamed_addr constant <{ [23 x i8] }> <{ [23 x i8] c"Instruction: SyncNative" }>, align 1
@alloc1444 = private unnamed_addr constant <{ [31 x i8] }> <{ [31 x i8] c"Instruction: InitializeAccount2" }>, align 1
@alloc1445 = private unnamed_addr constant <{ [24 x i8] }> <{ [24 x i8] c"Instruction: BurnChecked" }>, align 1
@alloc1446 = private unnamed_addr constant <{ [26 x i8] }> <{ [26 x i8] c"Instruction: MintToChecked" }>, align 1
@alloc1447 = private unnamed_addr constant <{ [27 x i8] }> <{ [27 x i8] c"Instruction: ApproveChecked" }>, align 1
@alloc1448 = private unnamed_addr constant <{ [28 x i8] }> <{ [28 x i8] c"Instruction: TransferChecked" }>, align 1
@alloc1449 = private unnamed_addr constant <{ [24 x i8] }> <{ [24 x i8] c"Instruction: ThawAccount" }>, align 1
@alloc1450 = private unnamed_addr constant <{ [26 x i8] }> <{ [26 x i8] c"Instruction: FreezeAccount" }>, align 1
@alloc1451 = private unnamed_addr constant <{ [25 x i8] }> <{ [25 x i8] c"Instruction: CloseAccount" }>, align 1
@alloc1452 = private unnamed_addr constant <{ [17 x i8] }> <{ [17 x i8] c"Instruction: Burn" }>, align 1
@alloc1453 = private unnamed_addr constant <{ [19 x i8] }> <{ [19 x i8] c"Instruction: MintTo" }>, align 1
@alloc1454 = private unnamed_addr constant <{ [25 x i8] }> <{ [25 x i8] c"Instruction: SetAuthority" }>, align 1
@alloc1455 = private unnamed_addr constant <{ [19 x i8] }> <{ [19 x i8] c"Instruction: Revoke" }>, align 1
@alloc1456 = private unnamed_addr constant <{ [20 x i8] }> <{ [20 x i8] c"Instruction: Approve" }>, align 1
@alloc1457 = private unnamed_addr constant <{ [21 x i8] }> <{ [21 x i8] c"Instruction: Transfer" }>, align 1
@alloc1458 = private unnamed_addr constant <{ [31 x i8] }> <{ [31 x i8] c"Instruction: InitializeMultisig" }>, align 1
@alloc1459 = private unnamed_addr constant <{ [30 x i8] }> <{ [30 x i8] c"Instruction: InitializeAccount" }>, align 1
@alloc1460 = private unnamed_addr constant <{ [27 x i8] }> <{ [27 x i8] c"Instruction: InitializeMint" }>, align 1
@alloc1462 = private unnamed_addr constant <{ i8*, [16 x i8] }> <{ i8* getelementptr inbounds (<{ [95 x i8] }>, <{ [95 x i8] }>* @alloc1469, i32 0, i32 0, i32 0), [16 x i8] c"_\00\00\00\00\00\00\00{\03\00\00F\00\00\00" }>, align 8
@alloc1464 = private unnamed_addr constant <{ i8*, [16 x i8] }> <{ i8* getelementptr inbounds (<{ [95 x i8] }>, <{ [95 x i8] }>* @alloc1469, i32 0, i32 0, i32 0), [16 x i8] c"_\00\00\00\00\00\00\00\7F\03\00\00(\00\00\00" }>, align 8
@alloc1466 = private unnamed_addr constant <{ i8*, [16 x i8] }> <{ i8* getelementptr inbounds (<{ [95 x i8] }>, <{ [95 x i8] }>* @alloc1469, i32 0, i32 0, i32 0), [16 x i8] c"_\00\00\00\00\00\00\00\80\03\00\00?\00\00\00" }>, align 8
@alloc1468 = private unnamed_addr constant <{ i8*, [16 x i8] }> <{ i8* getelementptr inbounds (<{ [95 x i8] }>, <{ [95 x i8] }>* @alloc1469, i32 0, i32 0, i32 0), [16 x i8] c"_\00\00\00\00\00\00\00\84\03\00\00\19\00\00\00" }>, align 8
@alloc1470 = private unnamed_addr constant <{ i8*, [16 x i8] }> <{ i8* getelementptr inbounds (<{ [95 x i8] }>, <{ [95 x i8] }>* @alloc1469, i32 0, i32 0, i32 0), [16 x i8] c"_\00\00\00\00\00\00\00\85\03\00\00\19\00\00\00" }>, align 8
@alloc1485 = private unnamed_addr constant <{ [91 x i8] }> <{ [91 x i8] c"/home/chinedum/.cargo/registry/src/github.com-1ecc6299db9ec823/spl-token-3.3.0/src/state.rs" }>, align 1
@alloc1472 = private unnamed_addr constant <{ i8*, [16 x i8] }> <{ i8* getelementptr inbounds (<{ [91 x i8] }>, <{ [91 x i8] }>* @alloc1485, i32 0, i32 0, i32 0), [16 x i8] c"[\00\00\00\00\00\00\00'\00\00\00\13\00\00\00" }>, align 8
@alloc1474 = private unnamed_addr constant <{ i8*, [16 x i8] }> <{ i8* getelementptr inbounds (<{ [91 x i8] }>, <{ [91 x i8] }>* @alloc1485, i32 0, i32 0, i32 0), [16 x i8] c"[\00\00\00\00\00\00\00<\00\00\00\13\00\00\00" }>, align 8
@alloc811 = private unnamed_addr constant <{ [1 x i8] }> <{ [1 x i8] c"\02" }>, align 1
@alloc728 = private unnamed_addr constant <{ [1 x i8] }> zeroinitializer, align 1
@alloc1476 = private unnamed_addr constant <{ i8*, [16 x i8] }> <{ i8* getelementptr inbounds (<{ [91 x i8] }>, <{ [91 x i8] }>* @alloc1485, i32 0, i32 0, i32 0), [16 x i8] c"[\00\00\00\00\00\00\00~\00\00\00\13\00\00\00" }>, align 8
@alloc1478 = private unnamed_addr constant <{ i8*, [16 x i8] }> <{ i8* getelementptr inbounds (<{ [91 x i8] }>, <{ [91 x i8] }>* @alloc1485, i32 0, i32 0, i32 0), [16 x i8] c"[\00\00\00\00\00\00\00\8E\00\00\00\13\00\00\00" }>, align 8
@alloc1480 = private unnamed_addr constant <{ i8*, [16 x i8] }> <{ i8* getelementptr inbounds (<{ [91 x i8] }>, <{ [91 x i8] }>* @alloc1485, i32 0, i32 0, i32 0), [16 x i8] c"[\00\00\00\00\00\00\00\D8\00\00\00\13\00\00\00" }>, align 8
@alloc1482 = private unnamed_addr constant <{ i8*, [16 x i8] }> <{ i8* getelementptr inbounds (<{ [91 x i8] }>, <{ [91 x i8] }>* @alloc1485, i32 0, i32 0, i32 0), [16 x i8] c"[\00\00\00\00\00\00\00\EB\00\00\00\13\00\00\00" }>, align 8
@alloc1484 = private unnamed_addr constant <{ i8*, [16 x i8] }> <{ i8* getelementptr inbounds (<{ [91 x i8] }>, <{ [91 x i8] }>* @alloc1485, i32 0, i32 0, i32 0), [16 x i8] c"[\00\00\00\00\00\00\00\F2\00\00\00:\00\00\00" }>, align 8
@alloc1486 = private unnamed_addr constant <{ i8*, [16 x i8] }> <{ i8* getelementptr inbounds (<{ [91 x i8] }>, <{ [91 x i8] }>* @alloc1485, i32 0, i32 0, i32 0), [16 x i8] c"[\00\00\00\00\00\00\00\F2\00\00\00\1D\00\00\00" }>, align 8
@alloc1487 = private unnamed_addr constant <{ [21 x i8] }> <{ [21 x i8] c"NonNativeNotSupported" }>, align 1
@alloc1488 = private unnamed_addr constant <{ [20 x i8] }> <{ [20 x i8] c"MintDecimalsMismatch" }>, align 1
@alloc1489 = private unnamed_addr constant <{ [13 x i8] }> <{ [13 x i8] c"AccountFrozen" }>, align 1
@alloc1490 = private unnamed_addr constant <{ [16 x i8] }> <{ [16 x i8] c"MintCannotFreeze" }>, align 1
@alloc1491 = private unnamed_addr constant <{ [25 x i8] }> <{ [25 x i8] c"AuthorityTypeNotSupported" }>, align 1
@alloc1492 = private unnamed_addr constant <{ [8 x i8] }> <{ [8 x i8] c"Overflow" }>, align 1
@alloc1493 = private unnamed_addr constant <{ [12 x i8] }> <{ [12 x i8] c"InvalidState" }>, align 1
@alloc1494 = private unnamed_addr constant <{ [18 x i8] }> <{ [18 x i8] c"InvalidInstruction" }>, align 1
@alloc1495 = private unnamed_addr constant <{ [19 x i8] }> <{ [19 x i8] c"NonNativeHasBalance" }>, align 1
@alloc1496 = private unnamed_addr constant <{ [18 x i8] }> <{ [18 x i8] c"NativeNotSupported" }>, align 1
@alloc1497 = private unnamed_addr constant <{ [18 x i8] }> <{ [18 x i8] c"UninitializedState" }>, align 1
@alloc1498 = private unnamed_addr constant <{ [30 x i8] }> <{ [30 x i8] c"InvalidNumberOfRequiredSigners" }>, align 1
@alloc1499 = private unnamed_addr constant <{ [30 x i8] }> <{ [30 x i8] c"InvalidNumberOfProvidedSigners" }>, align 1
@alloc1500 = private unnamed_addr constant <{ [12 x i8] }> <{ [12 x i8] c"AlreadyInUse" }>, align 1
@alloc1501 = private unnamed_addr constant <{ [11 x i8] }> <{ [11 x i8] c"FixedSupply" }>, align 1
@alloc1502 = private unnamed_addr constant <{ [13 x i8] }> <{ [13 x i8] c"OwnerMismatch" }>, align 1
@alloc1503 = private unnamed_addr constant <{ [12 x i8] }> <{ [12 x i8] c"MintMismatch" }>, align 1
@alloc1504 = private unnamed_addr constant <{ [11 x i8] }> <{ [11 x i8] c"InvalidMint" }>, align 1
@alloc1505 = private unnamed_addr constant <{ [17 x i8] }> <{ [17 x i8] c"InsufficientFunds" }>, align 1
@alloc1506 = private unnamed_addr constant <{ [13 x i8] }> <{ [13 x i8] c"NotRentExempt" }>, align 1
@alloc1031 = private unnamed_addr constant <{ [46 x i8] }> <{ [46 x i8] c"Instruction does not support non-native tokens" }>, align 1
@alloc1032 = private unnamed_addr constant <{ i8*, [8 x i8] }> <{ i8* getelementptr inbounds (<{ [46 x i8] }>, <{ [46 x i8] }>* @alloc1031, i32 0, i32 0, i32 0), [8 x i8] c".\00\00\00\00\00\00\00" }>, align 8
@alloc1126 = private unnamed_addr constant <{ [60 x i8] }> <{ [60 x i8] c"The provided decimals value different from the Mint decimals" }>, align 1
@alloc1127 = private unnamed_addr constant <{ i8*, [8 x i8] }> <{ i8* getelementptr inbounds (<{ [60 x i8] }>, <{ [60 x i8] }>* @alloc1126, i32 0, i32 0, i32 0), [8 x i8] c"<\00\00\00\00\00\00\00" }>, align 8
@alloc1121 = private unnamed_addr constant <{ [17 x i8] }> <{ [17 x i8] c"Account is frozen" }>, align 1
@alloc1122 = private unnamed_addr constant <{ i8*, [8 x i8] }> <{ i8* getelementptr inbounds (<{ [17 x i8] }>, <{ [17 x i8] }>* @alloc1121, i32 0, i32 0, i32 0), [8 x i8] c"\11\00\00\00\00\00\00\00" }>, align 8
@alloc1116 = private unnamed_addr constant <{ [38 x i8] }> <{ [38 x i8] c"This token mint cannot freeze accounts" }>, align 1
@alloc1117 = private unnamed_addr constant <{ i8*, [8 x i8] }> <{ i8* getelementptr inbounds (<{ [38 x i8] }>, <{ [38 x i8] }>* @alloc1116, i32 0, i32 0, i32 0), [8 x i8] c"&\00\00\00\00\00\00\00" }>, align 8
@alloc1111 = private unnamed_addr constant <{ [49 x i8] }> <{ [49 x i8] c"Account does not support specified authority type" }>, align 1
@alloc1112 = private unnamed_addr constant <{ i8*, [8 x i8] }> <{ i8* getelementptr inbounds (<{ [49 x i8] }>, <{ [49 x i8] }>* @alloc1111, i32 0, i32 0, i32 0), [8 x i8] c"1\00\00\00\00\00\00\00" }>, align 8
@alloc1106 = private unnamed_addr constant <{ [20 x i8] }> <{ [20 x i8] c"Operation overflowed" }>, align 1
@alloc1107 = private unnamed_addr constant <{ i8*, [8 x i8] }> <{ i8* getelementptr inbounds (<{ [20 x i8] }>, <{ [20 x i8] }>* @alloc1106, i32 0, i32 0, i32 0), [8 x i8] c"\14\00\00\00\00\00\00\00" }>, align 8
@alloc1101 = private unnamed_addr constant <{ [40 x i8] }> <{ [40 x i8] c"State is invalid for requested operation" }>, align 1
@alloc1102 = private unnamed_addr constant <{ i8*, [8 x i8] }> <{ i8* getelementptr inbounds (<{ [40 x i8] }>, <{ [40 x i8] }>* @alloc1101, i32 0, i32 0, i32 0), [8 x i8] c"(\00\00\00\00\00\00\00" }>, align 8
@alloc1096 = private unnamed_addr constant <{ [19 x i8] }> <{ [19 x i8] c"Invalid instruction" }>, align 1
@alloc1097 = private unnamed_addr constant <{ i8*, [8 x i8] }> <{ i8* getelementptr inbounds (<{ [19 x i8] }>, <{ [19 x i8] }>* @alloc1096, i32 0, i32 0, i32 0), [8 x i8] c"\13\00\00\00\00\00\00\00" }>, align 8
@alloc1091 = private unnamed_addr constant <{ [60 x i8] }> <{ [60 x i8] c"Non-native account can only be closed if its balance is zero" }>, align 1
@alloc1092 = private unnamed_addr constant <{ i8*, [8 x i8] }> <{ i8* getelementptr inbounds (<{ [60 x i8] }>, <{ [60 x i8] }>* @alloc1091, i32 0, i32 0, i32 0), [8 x i8] c"<\00\00\00\00\00\00\00" }>, align 8
@alloc1086 = private unnamed_addr constant <{ [42 x i8] }> <{ [42 x i8] c"Instruction does not support native tokens" }>, align 1
@alloc1087 = private unnamed_addr constant <{ i8*, [8 x i8] }> <{ i8* getelementptr inbounds (<{ [42 x i8] }>, <{ [42 x i8] }>* @alloc1086, i32 0, i32 0, i32 0), [8 x i8] c"*\00\00\00\00\00\00\00" }>, align 8
@alloc1081 = private unnamed_addr constant <{ [22 x i8] }> <{ [22 x i8] c"State is unititialized" }>, align 1
@alloc1082 = private unnamed_addr constant <{ i8*, [8 x i8] }> <{ i8* getelementptr inbounds (<{ [22 x i8] }>, <{ [22 x i8] }>* @alloc1081, i32 0, i32 0, i32 0), [8 x i8] c"\16\00\00\00\00\00\00\00" }>, align 8
@alloc1076 = private unnamed_addr constant <{ [34 x i8] }> <{ [34 x i8] c"Invalid number of required signers" }>, align 1
@alloc1077 = private unnamed_addr constant <{ i8*, [8 x i8] }> <{ i8* getelementptr inbounds (<{ [34 x i8] }>, <{ [34 x i8] }>* @alloc1076, i32 0, i32 0, i32 0), [8 x i8] c"\22\00\00\00\00\00\00\00" }>, align 8
@alloc1071 = private unnamed_addr constant <{ [34 x i8] }> <{ [34 x i8] c"Invalid number of provided signers" }>, align 1
@alloc1072 = private unnamed_addr constant <{ i8*, [8 x i8] }> <{ i8* getelementptr inbounds (<{ [34 x i8] }>, <{ [34 x i8] }>* @alloc1071, i32 0, i32 0, i32 0), [8 x i8] c"\22\00\00\00\00\00\00\00" }>, align 8
@alloc1066 = private unnamed_addr constant <{ [14 x i8] }> <{ [14 x i8] c"Already in use" }>, align 1
@alloc1067 = private unnamed_addr constant <{ i8*, [8 x i8] }> <{ i8* getelementptr inbounds (<{ [14 x i8] }>, <{ [14 x i8] }>* @alloc1066, i32 0, i32 0, i32 0), [8 x i8] c"\0E\00\00\00\00\00\00\00" }>, align 8
@alloc1061 = private unnamed_addr constant <{ [12 x i8] }> <{ [12 x i8] c"Fixed supply" }>, align 1
@alloc1062 = private unnamed_addr constant <{ i8*, [8 x i8] }> <{ i8* getelementptr inbounds (<{ [12 x i8] }>, <{ [12 x i8] }>* @alloc1061, i32 0, i32 0, i32 0), [8 x i8] c"\0C\00\00\00\00\00\00\00" }>, align 8
@alloc1056 = private unnamed_addr constant <{ [20 x i8] }> <{ [20 x i8] c"Owner does not match" }>, align 1
@alloc1057 = private unnamed_addr constant <{ i8*, [8 x i8] }> <{ i8* getelementptr inbounds (<{ [20 x i8] }>, <{ [20 x i8] }>* @alloc1056, i32 0, i32 0, i32 0), [8 x i8] c"\14\00\00\00\00\00\00\00" }>, align 8
@alloc1051 = private unnamed_addr constant <{ [37 x i8] }> <{ [37 x i8] c"Account not associated with this Mint" }>, align 1
@alloc1052 = private unnamed_addr constant <{ i8*, [8 x i8] }> <{ i8* getelementptr inbounds (<{ [37 x i8] }>, <{ [37 x i8] }>* @alloc1051, i32 0, i32 0, i32 0), [8 x i8] c"%\00\00\00\00\00\00\00" }>, align 8
@alloc1046 = private unnamed_addr constant <{ [12 x i8] }> <{ [12 x i8] c"Invalid Mint" }>, align 1
@alloc1047 = private unnamed_addr constant <{ i8*, [8 x i8] }> <{ i8* getelementptr inbounds (<{ [12 x i8] }>, <{ [12 x i8] }>* @alloc1046, i32 0, i32 0, i32 0), [8 x i8] c"\0C\00\00\00\00\00\00\00" }>, align 8
@alloc1041 = private unnamed_addr constant <{ [18 x i8] }> <{ [18 x i8] c"Insufficient funds" }>, align 1
@alloc1042 = private unnamed_addr constant <{ i8*, [8 x i8] }> <{ i8* getelementptr inbounds (<{ [18 x i8] }>, <{ [18 x i8] }>* @alloc1041, i32 0, i32 0, i32 0), [8 x i8] c"\12\00\00\00\00\00\00\00" }>, align 8
@alloc1036 = private unnamed_addr constant <{ [43 x i8] }> <{ [43 x i8] c"Lamport balance below rent-exempt threshold" }>, align 1
@alloc1037 = private unnamed_addr constant <{ i8*, [8 x i8] }> <{ i8* getelementptr inbounds (<{ [43 x i8] }>, <{ [43 x i8] }>* @alloc1036, i32 0, i32 0, i32 0), [8 x i8] c"+\00\00\00\00\00\00\00" }>, align 8
@alloc1507 = private unnamed_addr constant <{ [15 x i8] }> <{ [15 x i8] c"InitializeMint2" }>, align 1
@alloc1568 = private unnamed_addr constant <{ [8 x i8] }> <{ [8 x i8] c"decimals" }>, align 1
@vtable.9 = private unnamed_addr constant <{ i8*, [16 x i8], i8*, [0 x i8] }> <{ i8* bitcast (void (i8**)* @"_ZN4core3ptr27drop_in_place$LT$$RF$u8$GT$17h73f2020f585038e5E" to i8*), [16 x i8] c"\08\00\00\00\00\00\00\00\08\00\00\00\00\00\00\00", i8* bitcast (i1 (i8**, %"std::fmt::Formatter"*)* @"_ZN42_$LT$$RF$T$u20$as$u20$core..fmt..Debug$GT$3fmt17h39198b202a7980c8E" to i8*), [0 x i8] zeroinitializer }>, align 8, !dbg !35
@alloc1566 = private unnamed_addr constant <{ [14 x i8] }> <{ [14 x i8] c"mint_authority" }>, align 1
@alloc1573 = private unnamed_addr constant <{ [16 x i8] }> <{ [16 x i8] c"freeze_authority" }>, align 1
@vtable.a = private unnamed_addr constant <{ i8*, [16 x i8], i8*, [0 x i8] }> <{ i8* bitcast (void (%"solana_program::program_option::COption<solana_program::pubkey::Pubkey>"**)* @"_ZN4core3ptr102drop_in_place$LT$$RF$solana_program..program_option..COption$LT$solana_program..pubkey..Pubkey$GT$$GT$17h3295ce7de4a232b3E" to i8*), [16 x i8] c"\08\00\00\00\00\00\00\00\08\00\00\00\00\00\00\00", i8* bitcast (i1 (%"solana_program::program_option::COption<solana_program::pubkey::Pubkey>"**, %"std::fmt::Formatter"*)* @"_ZN42_$LT$$RF$T$u20$as$u20$core..fmt..Debug$GT$3fmt17h4d9b44cca00a9b52E" to i8*), [0 x i8] zeroinitializer }>, align 8, !dbg !39
@alloc1517 = private unnamed_addr constant <{ [19 x i8] }> <{ [19 x i8] c"InitializeMultisig2" }>, align 1
@alloc1593 = private unnamed_addr constant <{ [1 x i8] }> <{ [1 x i8] c"m" }>, align 1
@alloc1519 = private unnamed_addr constant <{ [18 x i8] }> <{ [18 x i8] c"InitializeAccount3" }>, align 1
@alloc1576 = private unnamed_addr constant <{ [5 x i8] }> <{ [5 x i8] c"owner" }>, align 1
@alloc1521 = private unnamed_addr constant <{ [10 x i8] }> <{ [10 x i8] c"SyncNative" }>, align 1
@alloc1522 = private unnamed_addr constant <{ [18 x i8] }> <{ [18 x i8] c"InitializeAccount2" }>, align 1
@alloc1524 = private unnamed_addr constant <{ [11 x i8] }> <{ [11 x i8] c"BurnChecked" }>, align 1
@alloc1577 = private unnamed_addr constant <{ [6 x i8] }> <{ [6 x i8] c"amount" }>, align 1
@alloc1527 = private unnamed_addr constant <{ [13 x i8] }> <{ [13 x i8] c"MintToChecked" }>, align 1
@alloc1530 = private unnamed_addr constant <{ [14 x i8] }> <{ [14 x i8] c"ApproveChecked" }>, align 1
@alloc1533 = private unnamed_addr constant <{ [15 x i8] }> <{ [15 x i8] c"TransferChecked" }>, align 1
@alloc1536 = private unnamed_addr constant <{ [11 x i8] }> <{ [11 x i8] c"ThawAccount" }>, align 1
@alloc1563 = private unnamed_addr constant <{ [13 x i8] }> <{ [13 x i8] c"FreezeAccount" }>, align 1
@alloc1561 = private unnamed_addr constant <{ [12 x i8] }> <{ [12 x i8] c"CloseAccount" }>, align 1
@alloc1539 = private unnamed_addr constant <{ [4 x i8] }> <{ [4 x i8] c"Burn" }>, align 1
@alloc1541 = private unnamed_addr constant <{ [6 x i8] }> <{ [6 x i8] c"MintTo" }>, align 1
@alloc1543 = private unnamed_addr constant <{ [12 x i8] }> <{ [12 x i8] c"SetAuthority" }>, align 1
@alloc1544 = private unnamed_addr constant <{ [14 x i8] }> <{ [14 x i8] c"authority_type" }>, align 1
@vtable.b = private unnamed_addr constant <{ i8*, [16 x i8], i8*, [0 x i8] }> <{ i8* bitcast (void (i8**)* @"_ZN4core3ptr62drop_in_place$LT$$RF$spl_token..instruction..AuthorityType$GT$17h163ba04b8d3859f2E" to i8*), [16 x i8] c"\08\00\00\00\00\00\00\00\08\00\00\00\00\00\00\00", i8* bitcast (i1 (i8**, %"std::fmt::Formatter"*)* @"_ZN42_$LT$$RF$T$u20$as$u20$core..fmt..Debug$GT$3fmt17hd2cc8d0443baf6c7E" to i8*), [0 x i8] zeroinitializer }>, align 8, !dbg !58
@alloc1548 = private unnamed_addr constant <{ [13 x i8] }> <{ [13 x i8] c"new_authority" }>, align 1
@alloc1549 = private unnamed_addr constant <{ [6 x i8] }> <{ [6 x i8] c"Revoke" }>, align 1
@alloc1550 = private unnamed_addr constant <{ [7 x i8] }> <{ [7 x i8] c"Approve" }>, align 1
@alloc1552 = private unnamed_addr constant <{ [8 x i8] }> <{ [8 x i8] c"Transfer" }>, align 1
@alloc1554 = private unnamed_addr constant <{ [18 x i8] }> <{ [18 x i8] c"InitializeMultisig" }>, align 1
@alloc1556 = private unnamed_addr constant <{ [17 x i8] }> <{ [17 x i8] c"InitializeAccount" }>, align 1
@alloc1557 = private unnamed_addr constant <{ [14 x i8] }> <{ [14 x i8] c"InitializeMint" }>, align 1
@alloc1562 = private unnamed_addr constant <{ [12 x i8] }> <{ [12 x i8] c"AccountOwner" }>, align 1
@alloc1564 = private unnamed_addr constant <{ [10 x i8] }> <{ [10 x i8] c"MintTokens" }>, align 1
@_ZN9spl_token11native_mint2ID17h27f42d8fa8f00519E = constant <{ [32 x i8] }> <{ [32 x i8] c"\06\9B\88W\FE\AB\81\84\FBh\7FcF\18\C05\DA\C49\DC\1A\EB;U\98\A0\F0\00\00\00\00\01" }>, align 1, !dbg !70
@alloc1565 = private unnamed_addr constant <{ [4 x i8] }> <{ [4 x i8] c"Mint" }>, align 1
@alloc1567 = private unnamed_addr constant <{ [6 x i8] }> <{ [6 x i8] c"supply" }>, align 1
@alloc1595 = private unnamed_addr constant <{ [14 x i8] }> <{ [14 x i8] c"is_initialized" }>, align 1
@vtable.c = private unnamed_addr constant <{ i8*, [16 x i8], i8*, [0 x i8] }> <{ i8* bitcast (void (i8**)* @"_ZN4core3ptr29drop_in_place$LT$$RF$bool$GT$17h3ff5210d0230d9bbE" to i8*), [16 x i8] c"\08\00\00\00\00\00\00\00\08\00\00\00\00\00\00\00", i8* bitcast (i1 (i8**, %"std::fmt::Formatter"*)* @"_ZN42_$LT$$RF$T$u20$as$u20$core..fmt..Debug$GT$3fmt17hba2c15a8c8da7363E" to i8*), [0 x i8] zeroinitializer }>, align 8, !dbg !74
@alloc1574 = private unnamed_addr constant <{ [7 x i8] }> <{ [7 x i8] c"Account" }>, align 1
@alloc1575 = private unnamed_addr constant <{ [4 x i8] }> <{ [4 x i8] c"mint" }>, align 1
@alloc1578 = private unnamed_addr constant <{ [8 x i8] }> <{ [8 x i8] c"delegate" }>, align 1
@alloc1579 = private unnamed_addr constant <{ [5 x i8] }> <{ [5 x i8] c"state" }>, align 1
@vtable.d = private unnamed_addr constant <{ i8*, [16 x i8], i8*, [0 x i8] }> <{ i8* bitcast (void (i8**)* @"_ZN4core3ptr55drop_in_place$LT$$RF$spl_token..state..AccountState$GT$17h8daa5502df8afaa5E" to i8*), [16 x i8] c"\08\00\00\00\00\00\00\00\08\00\00\00\00\00\00\00", i8* bitcast (i1 (i8**, %"std::fmt::Formatter"*)* @"_ZN42_$LT$$RF$T$u20$as$u20$core..fmt..Debug$GT$3fmt17hdbbeaef8dc55b7b2E" to i8*), [0 x i8] zeroinitializer }>, align 8, !dbg !79
@alloc1583 = private unnamed_addr constant <{ [9 x i8] }> <{ [9 x i8] c"is_native" }>, align 1
@vtable.e = private unnamed_addr constant <{ i8*, [16 x i8], i8*, [0 x i8] }> <{ i8* bitcast (void ({ i32, i64 }**)* @"_ZN4core3ptr75drop_in_place$LT$$RF$solana_program..program_option..COption$LT$u64$GT$$GT$17h01f75e1ae6074916E" to i8*), [16 x i8] c"\08\00\00\00\00\00\00\00\08\00\00\00\00\00\00\00", i8* bitcast (i1 ({ i32, i64 }**, %"std::fmt::Formatter"*)* @"_ZN42_$LT$$RF$T$u20$as$u20$core..fmt..Debug$GT$3fmt17h45e13719c89b45c0E" to i8*), [0 x i8] zeroinitializer }>, align 8, !dbg !89
@alloc1587 = private unnamed_addr constant <{ [16 x i8] }> <{ [16 x i8] c"delegated_amount" }>, align 1
@alloc1588 = private unnamed_addr constant <{ [15 x i8] }> <{ [15 x i8] c"close_authority" }>, align 1
@alloc1589 = private unnamed_addr constant <{ [6 x i8] }> <{ [6 x i8] c"Frozen" }>, align 1
@alloc1590 = private unnamed_addr constant <{ [11 x i8] }> <{ [11 x i8] c"Initialized" }>, align 1
@alloc1591 = private unnamed_addr constant <{ [13 x i8] }> <{ [13 x i8] c"Uninitialized" }>, align 1
@alloc1592 = private unnamed_addr constant <{ [8 x i8] }> <{ [8 x i8] c"Multisig" }>, align 1
@alloc1594 = private unnamed_addr constant <{ [1 x i8] }> <{ [1 x i8] c"n" }>, align 1
@alloc1596 = private unnamed_addr constant <{ [7 x i8] }> <{ [7 x i8] c"signers" }>, align 1
@vtable.f = private unnamed_addr constant <{ i8*, [16 x i8], i8*, [0 x i8] }> <{ i8* bitcast (void ([11 x %"solana_program::pubkey::Pubkey"]**)* @"_ZN4core3ptr77drop_in_place$LT$$RF$$u5b$solana_program..pubkey..Pubkey$u3b$$u20$11$u5d$$GT$17h332a4b4a192efd26E" to i8*), [16 x i8] c"\08\00\00\00\00\00\00\00\08\00\00\00\00\00\00\00", i8* bitcast (i1 ([11 x %"solana_program::pubkey::Pubkey"]**, %"std::fmt::Formatter"*)* @"_ZN42_$LT$$RF$T$u20$as$u20$core..fmt..Debug$GT$3fmt17h6f5dea5fda89b04cE" to i8*), [0 x i8] zeroinitializer }>, align 8, !dbg !105
@_ZN9spl_token2ID17hb8db92d31bdb7cc5E = constant <{ [32 x i8] }> <{ [32 x i8] c"\06\DD\F6\E1\D7e\A1\93\D9\CB\E1F\CE\EBy\AC\1C\B4\85\ED_[7\91:\8C\F5\85~\FF\00\A9" }>, align 1, !dbg !112

; <core::ops::range::RangeInclusive<T> as core::ops::range::RangeBounds<T>>::start_bound
; Function Attrs: nounwind
define { i64, i8* } @"_ZN100_$LT$core..ops..range..RangeInclusive$LT$T$GT$$u20$as$u20$core..ops..range..RangeBounds$LT$T$GT$$GT$11start_bound17h91b8d0c84c5b74caE"(%"std::ops::RangeInclusive<usize>"* align 8 dereferenceable(24) %self) unnamed_addr #0 !dbg !210 {
start:
  %self.dbg.spill = alloca %"std::ops::RangeInclusive<usize>"*, align 8
  %0 = alloca { i64, i8* }, align 8
  store %"std::ops::RangeInclusive<usize>"* %self, %"std::ops::RangeInclusive<usize>"** %self.dbg.spill, align 8
  call void @llvm.dbg.declare(metadata %"std::ops::RangeInclusive<usize>"** %self.dbg.spill, metadata !244, metadata !DIExpression()), !dbg !247
  %_3 = bitcast %"std::ops::RangeInclusive<usize>"* %self to i64*, !dbg !248
  %1 = bitcast { i64, i8* }* %0 to %"std::collections::Bound<&usize>::Included"*, !dbg !249
  %2 = getelementptr inbounds %"std::collections::Bound<&usize>::Included", %"std::collections::Bound<&usize>::Included"* %1, i32 0, i32 1, !dbg !249
  store i64* %_3, i64** %2, align 8, !dbg !249
  %3 = bitcast { i64, i8* }* %0 to i64*, !dbg !249
  store i64 0, i64* %3, align 8, !dbg !249
  %4 = getelementptr inbounds { i64, i8* }, { i64, i8* }* %0, i32 0, i32 0, !dbg !250
  %5 = load i64, i64* %4, align 8, !dbg !250, !range !251
  %6 = getelementptr inbounds { i64, i8* }, { i64, i8* }* %0, i32 0, i32 1, !dbg !250
  %7 = load i8*, i8** %6, align 8, !dbg !250
  %8 = insertvalue { i64, i8* } undef, i64 %5, 0, !dbg !250
  %9 = insertvalue { i64, i8* } %8, i8* %7, 1, !dbg !250
  ret { i64, i8* } %9, !dbg !250
}

; <core::ops::range::RangeInclusive<T> as core::ops::range::RangeBounds<T>>::end_bound
; Function Attrs: nounwind
define { i64, i8* } @"_ZN100_$LT$core..ops..range..RangeInclusive$LT$T$GT$$u20$as$u20$core..ops..range..RangeBounds$LT$T$GT$$GT$9end_bound17he6a669f4dbd86f66E"(%"std::ops::RangeInclusive<usize>"* align 8 dereferenceable(24) %self) unnamed_addr #0 !dbg !252 {
start:
  %self.dbg.spill = alloca %"std::ops::RangeInclusive<usize>"*, align 8
  %0 = alloca { i64, i8* }, align 8
  store %"std::ops::RangeInclusive<usize>"* %self, %"std::ops::RangeInclusive<usize>"** %self.dbg.spill, align 8
  call void @llvm.dbg.declare(metadata %"std::ops::RangeInclusive<usize>"** %self.dbg.spill, metadata !254, metadata !DIExpression()), !dbg !255
  %1 = getelementptr inbounds %"std::ops::RangeInclusive<usize>", %"std::ops::RangeInclusive<usize>"* %self, i32 0, i32 2, !dbg !256
  %2 = load i8, i8* %1, align 8, !dbg !256, !range !257
  %_2 = trunc i8 %2 to i1, !dbg !256
  br i1 %_2, label %bb1, label %bb2, !dbg !256

bb2:                                              ; preds = %start
  %_6 = getelementptr inbounds %"std::ops::RangeInclusive<usize>", %"std::ops::RangeInclusive<usize>"* %self, i32 0, i32 1, !dbg !258
  %3 = bitcast { i64, i8* }* %0 to %"std::collections::Bound<&usize>::Included"*, !dbg !259
  %4 = getelementptr inbounds %"std::collections::Bound<&usize>::Included", %"std::collections::Bound<&usize>::Included"* %3, i32 0, i32 1, !dbg !259
  store i64* %_6, i64** %4, align 8, !dbg !259
  %5 = bitcast { i64, i8* }* %0 to i64*, !dbg !259
  store i64 0, i64* %5, align 8, !dbg !259
  br label %bb3, !dbg !260

bb1:                                              ; preds = %start
  %_4 = getelementptr inbounds %"std::ops::RangeInclusive<usize>", %"std::ops::RangeInclusive<usize>"* %self, i32 0, i32 1, !dbg !261
  %6 = bitcast { i64, i8* }* %0 to %"std::collections::Bound<&usize>::Excluded"*, !dbg !262
  %7 = getelementptr inbounds %"std::collections::Bound<&usize>::Excluded", %"std::collections::Bound<&usize>::Excluded"* %6, i32 0, i32 1, !dbg !262
  store i64* %_4, i64** %7, align 8, !dbg !262
  %8 = bitcast { i64, i8* }* %0 to i64*, !dbg !262
  store i64 1, i64* %8, align 8, !dbg !262
  br label %bb3, !dbg !260

bb3:                                              ; preds = %bb2, %bb1
  %9 = getelementptr inbounds { i64, i8* }, { i64, i8* }* %0, i32 0, i32 0, !dbg !263
  %10 = load i64, i64* %9, align 8, !dbg !263, !range !251
  %11 = getelementptr inbounds { i64, i8* }, { i64, i8* }* %0, i32 0, i32 1, !dbg !263
  %12 = load i8*, i8** %11, align 8, !dbg !263
  %13 = insertvalue { i64, i8* } undef, i64 %10, 0, !dbg !263
  %14 = insertvalue { i64, i8* } %13, i8* %12, 1, !dbg !263
  ret { i64, i8* } %14, !dbg !263
}

; <core::iter::adapters::zip::Zip<A,B> as core::iter::traits::iterator::Iterator>::next
; Function Attrs: inlinehint nounwind
define void @"_ZN102_$LT$core..iter..adapters..zip..Zip$LT$A$C$B$GT$$u20$as$u20$core..iter..traits..iterator..Iterator$GT$4next17hed8508364380c533E"(%"std::option::Option<(&[u8], &mut solana_program::pubkey::Pubkey)>"* noalias nocapture sret(%"std::option::Option<(&[u8], &mut solana_program::pubkey::Pubkey)>") dereferenceable(24) %0, %"std::iter::Zip<std::slice::Chunks<u8>, std::slice::IterMut<solana_program::pubkey::Pubkey>>"* align 8 dereferenceable(64) %self) unnamed_addr #1 !dbg !264 {
start:
  %self.dbg.spill = alloca %"std::iter::Zip<std::slice::Chunks<u8>, std::slice::IterMut<solana_program::pubkey::Pubkey>>"*, align 8
  store %"std::iter::Zip<std::slice::Chunks<u8>, std::slice::IterMut<solana_program::pubkey::Pubkey>>"* %self, %"std::iter::Zip<std::slice::Chunks<u8>, std::slice::IterMut<solana_program::pubkey::Pubkey>>"** %self.dbg.spill, align 8
  call void @llvm.dbg.declare(metadata %"std::iter::Zip<std::slice::Chunks<u8>, std::slice::IterMut<solana_program::pubkey::Pubkey>>"** %self.dbg.spill, metadata !331, metadata !DIExpression()), !dbg !332
; call <core::iter::adapters::zip::Zip<A,B> as core::iter::adapters::zip::ZipImpl<A,B>>::next
  call void @"_ZN111_$LT$core..iter..adapters..zip..Zip$LT$A$C$B$GT$$u20$as$u20$core..iter..adapters..zip..ZipImpl$LT$A$C$B$GT$$GT$4next17h35a196274f87b3a1E"(%"std::option::Option<(&[u8], &mut solana_program::pubkey::Pubkey)>"* noalias nocapture sret(%"std::option::Option<(&[u8], &mut solana_program::pubkey::Pubkey)>") dereferenceable(24) %0, %"std::iter::Zip<std::slice::Chunks<u8>, std::slice::IterMut<solana_program::pubkey::Pubkey>>"* align 8 dereferenceable(64) %self), !dbg !333
  br label %bb1, !dbg !333

bb1:                                              ; preds = %start
  ret void, !dbg !334
}

; <core::ops::range::RangeTo<usize> as core::slice::index::SliceIndex<[T]>>::get
; Function Attrs: inlinehint nounwind
define { i8*, i64 } @"_ZN108_$LT$core..ops..range..RangeTo$LT$usize$GT$$u20$as$u20$core..slice..index..SliceIndex$LT$$u5b$T$u5d$$GT$$GT$3get17h3b8f825eb29be0deE"(i64 %self, [0 x i8]* nonnull align 1 %slice.0, i64 %slice.1) unnamed_addr #1 !dbg !335 {
start:
  %slice.dbg.spill = alloca { [0 x i8]*, i64 }, align 8
  %self.dbg.spill = alloca i64, align 8
  %_3 = alloca { i64, i64 }, align 8
  store i64 %self, i64* %self.dbg.spill, align 8
  call void @llvm.dbg.declare(metadata i64* %self.dbg.spill, metadata !357, metadata !DIExpression()), !dbg !359
  %0 = getelementptr inbounds { [0 x i8]*, i64 }, { [0 x i8]*, i64 }* %slice.dbg.spill, i32 0, i32 0
  store [0 x i8]* %slice.0, [0 x i8]** %0, align 8
  %1 = getelementptr inbounds { [0 x i8]*, i64 }, { [0 x i8]*, i64 }* %slice.dbg.spill, i32 0, i32 1
  store i64 %slice.1, i64* %1, align 8
  call void @llvm.dbg.declare(metadata { [0 x i8]*, i64 }* %slice.dbg.spill, metadata !358, metadata !DIExpression()), !dbg !360
  %2 = bitcast { i64, i64 }* %_3 to i64*, !dbg !361
  store i64 0, i64* %2, align 8, !dbg !361
  %3 = getelementptr inbounds { i64, i64 }, { i64, i64 }* %_3, i32 0, i32 1, !dbg !361
  store i64 %self, i64* %3, align 8, !dbg !361
  %4 = getelementptr inbounds { i64, i64 }, { i64, i64 }* %_3, i32 0, i32 0, !dbg !361
  %5 = load i64, i64* %4, align 8, !dbg !361
  %6 = getelementptr inbounds { i64, i64 }, { i64, i64 }* %_3, i32 0, i32 1, !dbg !361
  %7 = load i64, i64* %6, align 8, !dbg !361
; call <core::ops::range::Range<usize> as core::slice::index::SliceIndex<[T]>>::get
  %8 = call { i8*, i64 } @"_ZN106_$LT$core..ops..range..Range$LT$usize$GT$$u20$as$u20$core..slice..index..SliceIndex$LT$$u5b$T$u5d$$GT$$GT$3get17h4a5df2ee0b80fccdE"(i64 %5, i64 %7, [0 x i8]* nonnull align 1 %slice.0, i64 %slice.1), !dbg !361
  %9 = extractvalue { i8*, i64 } %8, 0, !dbg !361
  %10 = extractvalue { i8*, i64 } %8, 1, !dbg !361
  br label %bb1, !dbg !361

bb1:                                              ; preds = %start
  %11 = insertvalue { i8*, i64 } undef, i8* %9, 0, !dbg !362
  %12 = insertvalue { i8*, i64 } %11, i64 %10, 1, !dbg !362
  ret { i8*, i64 } %12, !dbg !362
}

; <core::iter::adapters::zip::Zip<A,B> as core::iter::adapters::zip::ZipImpl<A,B>>::new
; Function Attrs: nounwind
define void @"_ZN111_$LT$core..iter..adapters..zip..Zip$LT$A$C$B$GT$$u20$as$u20$core..iter..adapters..zip..ZipImpl$LT$A$C$B$GT$$GT$3new17hbc5ef7ee83418202E"(%"std::iter::Zip<std::slice::Chunks<u8>, std::slice::IterMut<solana_program::pubkey::Pubkey>>"* noalias nocapture sret(%"std::iter::Zip<std::slice::Chunks<u8>, std::slice::IterMut<solana_program::pubkey::Pubkey>>") dereferenceable(64) %0, %"std::slice::Chunks<u8>"* noalias nocapture dereferenceable(24) %a, i8* nonnull %1, i8* %2) unnamed_addr #0 !dbg !363 {
start:
  %len.dbg.spill = alloca i64, align 8
  %a_len.dbg.spill = alloca i64, align 8
  %_9 = alloca %"std::slice::Chunks<u8>", align 8
  %b = alloca { i8*, i8* }, align 8
  %3 = getelementptr inbounds { i8*, i8* }, { i8*, i8* }* %b, i32 0, i32 0
  store i8* %1, i8** %3, align 8
  %4 = getelementptr inbounds { i8*, i8* }, { i8*, i8* }* %b, i32 0, i32 1
  store i8* %2, i8** %4, align 8
  call void @llvm.dbg.declare(metadata %"std::slice::Chunks<u8>"* %a, metadata !368, metadata !DIExpression()), !dbg !374
  call void @llvm.dbg.declare(metadata { i8*, i8* }* %b, metadata !369, metadata !DIExpression()), !dbg !375
; call core::iter::adapters::zip::TrustedRandomAccessNoCoerce::size
  %a_len = call i64 @_ZN4core4iter8adapters3zip27TrustedRandomAccessNoCoerce4size17hcd5a0d714089ce23E(%"std::slice::Chunks<u8>"* align 8 dereferenceable(24) %a), !dbg !376
  store i64 %a_len, i64* %a_len.dbg.spill, align 8, !dbg !376
  call void @llvm.dbg.declare(metadata i64* %a_len.dbg.spill, metadata !370, metadata !DIExpression()), !dbg !377
  br label %bb1, !dbg !376

bb1:                                              ; preds = %start
; call core::iter::adapters::zip::TrustedRandomAccessNoCoerce::size
  %_7 = call i64 @_ZN4core4iter8adapters3zip27TrustedRandomAccessNoCoerce4size17h8c70a8229caf806dE({ i8*, i8* }* align 8 dereferenceable(16) %b), !dbg !378
  br label %bb2, !dbg !378

bb2:                                              ; preds = %bb1
; call core::cmp::min
  %len = call i64 @_ZN4core3cmp3min17h70fd8d2ceed418b2E(i64 %a_len, i64 %_7), !dbg !379
  store i64 %len, i64* %len.dbg.spill, align 8, !dbg !379
  call void @llvm.dbg.declare(metadata i64* %len.dbg.spill, metadata !372, metadata !DIExpression()), !dbg !380
  br label %bb3, !dbg !379

bb3:                                              ; preds = %bb2
  %5 = bitcast %"std::slice::Chunks<u8>"* %_9 to i8*, !dbg !381
  %6 = bitcast %"std::slice::Chunks<u8>"* %a to i8*, !dbg !381
  call void @llvm.memcpy.p0i8.p0i8.i64(i8* align 8 %5, i8* align 8 %6, i64 24, i1 false), !dbg !381
  %7 = getelementptr inbounds { i8*, i8* }, { i8*, i8* }* %b, i32 0, i32 0, !dbg !382
  %_10.0 = load i8*, i8** %7, align 8, !dbg !382, !nonnull !4
  %8 = getelementptr inbounds { i8*, i8* }, { i8*, i8* }* %b, i32 0, i32 1, !dbg !382
  %_10.1 = load i8*, i8** %8, align 8, !dbg !382
  %9 = bitcast %"std::iter::Zip<std::slice::Chunks<u8>, std::slice::IterMut<solana_program::pubkey::Pubkey>>"* %0 to %"std::slice::Chunks<u8>"*, !dbg !383
  %10 = bitcast %"std::slice::Chunks<u8>"* %9 to i8*, !dbg !383
  %11 = bitcast %"std::slice::Chunks<u8>"* %_9 to i8*, !dbg !383
  call void @llvm.memcpy.p0i8.p0i8.i64(i8* align 8 %10, i8* align 8 %11, i64 24, i1 false), !dbg !383
  %12 = getelementptr inbounds %"std::iter::Zip<std::slice::Chunks<u8>, std::slice::IterMut<solana_program::pubkey::Pubkey>>", %"std::iter::Zip<std::slice::Chunks<u8>, std::slice::IterMut<solana_program::pubkey::Pubkey>>"* %0, i32 0, i32 1, !dbg !383
  %13 = getelementptr inbounds { i8*, i8* }, { i8*, i8* }* %12, i32 0, i32 0, !dbg !383
  store i8* %_10.0, i8** %13, align 8, !dbg !383
  %14 = getelementptr inbounds { i8*, i8* }, { i8*, i8* }* %12, i32 0, i32 1, !dbg !383
  store i8* %_10.1, i8** %14, align 8, !dbg !383
  %15 = getelementptr inbounds %"std::iter::Zip<std::slice::Chunks<u8>, std::slice::IterMut<solana_program::pubkey::Pubkey>>", %"std::iter::Zip<std::slice::Chunks<u8>, std::slice::IterMut<solana_program::pubkey::Pubkey>>"* %0, i32 0, i32 2, !dbg !383
  store i64 0, i64* %15, align 8, !dbg !383
  %16 = getelementptr inbounds %"std::iter::Zip<std::slice::Chunks<u8>, std::slice::IterMut<solana_program::pubkey::Pubkey>>", %"std::iter::Zip<std::slice::Chunks<u8>, std::slice::IterMut<solana_program::pubkey::Pubkey>>"* %0, i32 0, i32 3, !dbg !383
  store i64 %len, i64* %16, align 8, !dbg !383
  %17 = getelementptr inbounds %"std::iter::Zip<std::slice::Chunks<u8>, std::slice::IterMut<solana_program::pubkey::Pubkey>>", %"std::iter::Zip<std::slice::Chunks<u8>, std::slice::IterMut<solana_program::pubkey::Pubkey>>"* %0, i32 0, i32 4, !dbg !383
  store i64 %a_len, i64* %17, align 8, !dbg !383
  ret void, !dbg !384
}

; <core::iter::adapters::zip::Zip<A,B> as core::iter::adapters::zip::ZipImpl<A,B>>::next
; Function Attrs: inlinehint nounwind
define void @"_ZN111_$LT$core..iter..adapters..zip..Zip$LT$A$C$B$GT$$u20$as$u20$core..iter..adapters..zip..ZipImpl$LT$A$C$B$GT$$GT$4next17h35a196274f87b3a1E"(%"std::option::Option<(&[u8], &mut solana_program::pubkey::Pubkey)>"* noalias nocapture sret(%"std::option::Option<(&[u8], &mut solana_program::pubkey::Pubkey)>") dereferenceable(24) %0, %"std::iter::Zip<std::slice::Chunks<u8>, std::slice::IterMut<solana_program::pubkey::Pubkey>>"* align 8 dereferenceable(64) %self) unnamed_addr #1 !dbg !385 {
start:
  %i.dbg.spill2 = alloca i64, align 8
  %i.dbg.spill = alloca i64, align 8
  %self.dbg.spill = alloca %"std::iter::Zip<std::slice::Chunks<u8>, std::slice::IterMut<solana_program::pubkey::Pubkey>>"*, align 8
  %_13 = alloca i8, align 1
  %_6 = alloca { { [0 x i8]*, i64 }, %"solana_program::pubkey::Pubkey"* }, align 8
  store %"std::iter::Zip<std::slice::Chunks<u8>, std::slice::IterMut<solana_program::pubkey::Pubkey>>"* %self, %"std::iter::Zip<std::slice::Chunks<u8>, std::slice::IterMut<solana_program::pubkey::Pubkey>>"** %self.dbg.spill, align 8
  call void @llvm.dbg.declare(metadata %"std::iter::Zip<std::slice::Chunks<u8>, std::slice::IterMut<solana_program::pubkey::Pubkey>>"** %self.dbg.spill, metadata !387, metadata !DIExpression()), !dbg !392
  %1 = getelementptr inbounds %"std::iter::Zip<std::slice::Chunks<u8>, std::slice::IterMut<solana_program::pubkey::Pubkey>>", %"std::iter::Zip<std::slice::Chunks<u8>, std::slice::IterMut<solana_program::pubkey::Pubkey>>"* %self, i32 0, i32 2, !dbg !393
  %_3 = load i64, i64* %1, align 8, !dbg !393
  %2 = getelementptr inbounds %"std::iter::Zip<std::slice::Chunks<u8>, std::slice::IterMut<solana_program::pubkey::Pubkey>>", %"std::iter::Zip<std::slice::Chunks<u8>, std::slice::IterMut<solana_program::pubkey::Pubkey>>"* %self, i32 0, i32 3, !dbg !394
  %_4 = load i64, i64* %2, align 8, !dbg !394
  %_2 = icmp ult i64 %_3, %_4, !dbg !393
  br i1 %_2, label %bb1, label %bb4, !dbg !393

bb4:                                              ; preds = %start
  br i1 false, label %bb6, label %bb5, !dbg !395

bb1:                                              ; preds = %start
  %3 = getelementptr inbounds %"std::iter::Zip<std::slice::Chunks<u8>, std::slice::IterMut<solana_program::pubkey::Pubkey>>", %"std::iter::Zip<std::slice::Chunks<u8>, std::slice::IterMut<solana_program::pubkey::Pubkey>>"* %self, i32 0, i32 2, !dbg !396
  %i = load i64, i64* %3, align 8, !dbg !396
  store i64 %i, i64* %i.dbg.spill, align 8, !dbg !396
  call void @llvm.dbg.declare(metadata i64* %i.dbg.spill, metadata !388, metadata !DIExpression()), !dbg !397
  %4 = getelementptr inbounds %"std::iter::Zip<std::slice::Chunks<u8>, std::slice::IterMut<solana_program::pubkey::Pubkey>>", %"std::iter::Zip<std::slice::Chunks<u8>, std::slice::IterMut<solana_program::pubkey::Pubkey>>"* %self, i32 0, i32 2, !dbg !398
  %5 = getelementptr inbounds %"std::iter::Zip<std::slice::Chunks<u8>, std::slice::IterMut<solana_program::pubkey::Pubkey>>", %"std::iter::Zip<std::slice::Chunks<u8>, std::slice::IterMut<solana_program::pubkey::Pubkey>>"* %self, i32 0, i32 2, !dbg !398
  %6 = load i64, i64* %5, align 8, !dbg !398
  %7 = add i64 %6, 1, !dbg !398
  store i64 %7, i64* %4, align 8, !dbg !398
  %_8 = bitcast %"std::iter::Zip<std::slice::Chunks<u8>, std::slice::IterMut<solana_program::pubkey::Pubkey>>"* %self to %"std::slice::Chunks<u8>"*, !dbg !399
; call <core::slice::iter::Chunks<T> as core::iter::traits::iterator::Iterator>::__iterator_get_unchecked
  %8 = call { [0 x i8]*, i64 } @"_ZN93_$LT$core..slice..iter..Chunks$LT$T$GT$$u20$as$u20$core..iter..traits..iterator..Iterator$GT$24__iterator_get_unchecked17h7bc5a7c6279066dfE"(%"std::slice::Chunks<u8>"* align 8 dereferenceable(24) %_8, i64 %i), !dbg !399
  %_7.0 = extractvalue { [0 x i8]*, i64 } %8, 0, !dbg !399
  %_7.1 = extractvalue { [0 x i8]*, i64 } %8, 1, !dbg !399
  br label %bb2, !dbg !399

bb2:                                              ; preds = %bb1
  %_11 = getelementptr inbounds %"std::iter::Zip<std::slice::Chunks<u8>, std::slice::IterMut<solana_program::pubkey::Pubkey>>", %"std::iter::Zip<std::slice::Chunks<u8>, std::slice::IterMut<solana_program::pubkey::Pubkey>>"* %self, i32 0, i32 1, !dbg !400
; call <core::slice::iter::IterMut<T> as core::iter::traits::iterator::Iterator>::__iterator_get_unchecked
  %_10 = call align 1 dereferenceable(32) %"solana_program::pubkey::Pubkey"* @"_ZN94_$LT$core..slice..iter..IterMut$LT$T$GT$$u20$as$u20$core..iter..traits..iterator..Iterator$GT$24__iterator_get_unchecked17h2a6871aea341d6fcE"({ i8*, i8* }* align 8 dereferenceable(16) %_11, i64 %i), !dbg !400
  br label %bb3, !dbg !400

bb3:                                              ; preds = %bb2
  %9 = bitcast { { [0 x i8]*, i64 }, %"solana_program::pubkey::Pubkey"* }* %_6 to { [0 x i8]*, i64 }*, !dbg !401
  %10 = getelementptr inbounds { [0 x i8]*, i64 }, { [0 x i8]*, i64 }* %9, i32 0, i32 0, !dbg !401
  store [0 x i8]* %_7.0, [0 x i8]** %10, align 8, !dbg !401
  %11 = getelementptr inbounds { [0 x i8]*, i64 }, { [0 x i8]*, i64 }* %9, i32 0, i32 1, !dbg !401
  store i64 %_7.1, i64* %11, align 8, !dbg !401
  %12 = getelementptr inbounds { { [0 x i8]*, i64 }, %"solana_program::pubkey::Pubkey"* }, { { [0 x i8]*, i64 }, %"solana_program::pubkey::Pubkey"* }* %_6, i32 0, i32 1, !dbg !401
  store %"solana_program::pubkey::Pubkey"* %_10, %"solana_program::pubkey::Pubkey"** %12, align 8, !dbg !401
  %13 = bitcast %"std::option::Option<(&[u8], &mut solana_program::pubkey::Pubkey)>"* %0 to %"std::option::Option<(&[u8], &mut solana_program::pubkey::Pubkey)>::Some"*, !dbg !402
  %14 = bitcast %"std::option::Option<(&[u8], &mut solana_program::pubkey::Pubkey)>::Some"* %13 to { { [0 x i8]*, i64 }, %"solana_program::pubkey::Pubkey"* }*, !dbg !402
  %15 = bitcast { { [0 x i8]*, i64 }, %"solana_program::pubkey::Pubkey"* }* %14 to i8*, !dbg !402
  %16 = bitcast { { [0 x i8]*, i64 }, %"solana_program::pubkey::Pubkey"* }* %_6 to i8*, !dbg !402
  call void @llvm.memcpy.p0i8.p0i8.i64(i8* align 8 %15, i8* align 8 %16, i64 24, i1 false), !dbg !402
  br label %bb13, !dbg !403

bb13:                                             ; preds = %bb12, %bb3
  ret void, !dbg !404

bb5:                                              ; preds = %bb4
  store i8 0, i8* %_13, align 1, !dbg !395
  br label %bb7, !dbg !395

bb6:                                              ; preds = %bb4
  %17 = getelementptr inbounds %"std::iter::Zip<std::slice::Chunks<u8>, std::slice::IterMut<solana_program::pubkey::Pubkey>>", %"std::iter::Zip<std::slice::Chunks<u8>, std::slice::IterMut<solana_program::pubkey::Pubkey>>"* %self, i32 0, i32 2, !dbg !405
  %_15 = load i64, i64* %17, align 8, !dbg !405
  %18 = getelementptr inbounds %"std::iter::Zip<std::slice::Chunks<u8>, std::slice::IterMut<solana_program::pubkey::Pubkey>>", %"std::iter::Zip<std::slice::Chunks<u8>, std::slice::IterMut<solana_program::pubkey::Pubkey>>"* %self, i32 0, i32 4, !dbg !406
  %_16 = load i64, i64* %18, align 8, !dbg !406
  %_14 = icmp ult i64 %_15, %_16, !dbg !405
  %19 = zext i1 %_14 to i8, !dbg !395
  store i8 %19, i8* %_13, align 1, !dbg !395
  br label %bb7, !dbg !395

bb7:                                              ; preds = %bb5, %bb6
  %20 = load i8, i8* %_13, align 1, !dbg !395, !range !257
  %21 = trunc i8 %20 to i1, !dbg !395
  br i1 %21, label %bb8, label %bb11, !dbg !395

bb11:                                             ; preds = %bb7
  %22 = bitcast %"std::option::Option<(&[u8], &mut solana_program::pubkey::Pubkey)>"* %0 to {}**, !dbg !407
  store {}* null, {}** %22, align 8, !dbg !407
  br label %bb12, !dbg !408

bb8:                                              ; preds = %bb7
  %23 = getelementptr inbounds %"std::iter::Zip<std::slice::Chunks<u8>, std::slice::IterMut<solana_program::pubkey::Pubkey>>", %"std::iter::Zip<std::slice::Chunks<u8>, std::slice::IterMut<solana_program::pubkey::Pubkey>>"* %self, i32 0, i32 2, !dbg !409
  %i1 = load i64, i64* %23, align 8, !dbg !409
  store i64 %i1, i64* %i.dbg.spill2, align 8, !dbg !409
  call void @llvm.dbg.declare(metadata i64* %i.dbg.spill2, metadata !390, metadata !DIExpression()), !dbg !410
  %24 = getelementptr inbounds %"std::iter::Zip<std::slice::Chunks<u8>, std::slice::IterMut<solana_program::pubkey::Pubkey>>", %"std::iter::Zip<std::slice::Chunks<u8>, std::slice::IterMut<solana_program::pubkey::Pubkey>>"* %self, i32 0, i32 2, !dbg !411
  %25 = getelementptr inbounds %"std::iter::Zip<std::slice::Chunks<u8>, std::slice::IterMut<solana_program::pubkey::Pubkey>>", %"std::iter::Zip<std::slice::Chunks<u8>, std::slice::IterMut<solana_program::pubkey::Pubkey>>"* %self, i32 0, i32 2, !dbg !411
  %26 = load i64, i64* %25, align 8, !dbg !411
  %27 = add i64 %26, 1, !dbg !411
  store i64 %27, i64* %24, align 8, !dbg !411
  %28 = getelementptr inbounds %"std::iter::Zip<std::slice::Chunks<u8>, std::slice::IterMut<solana_program::pubkey::Pubkey>>", %"std::iter::Zip<std::slice::Chunks<u8>, std::slice::IterMut<solana_program::pubkey::Pubkey>>"* %self, i32 0, i32 3, !dbg !412
  %29 = getelementptr inbounds %"std::iter::Zip<std::slice::Chunks<u8>, std::slice::IterMut<solana_program::pubkey::Pubkey>>", %"std::iter::Zip<std::slice::Chunks<u8>, std::slice::IterMut<solana_program::pubkey::Pubkey>>"* %self, i32 0, i32 3, !dbg !412
  %30 = load i64, i64* %29, align 8, !dbg !412
  %31 = add i64 %30, 1, !dbg !412
  store i64 %31, i64* %28, align 8, !dbg !412
  %_19 = bitcast %"std::iter::Zip<std::slice::Chunks<u8>, std::slice::IterMut<solana_program::pubkey::Pubkey>>"* %self to %"std::slice::Chunks<u8>"*, !dbg !413
; call <core::slice::iter::Chunks<T> as core::iter::traits::iterator::Iterator>::__iterator_get_unchecked
  %32 = call { [0 x i8]*, i64 } @"_ZN93_$LT$core..slice..iter..Chunks$LT$T$GT$$u20$as$u20$core..iter..traits..iterator..Iterator$GT$24__iterator_get_unchecked17h7bc5a7c6279066dfE"(%"std::slice::Chunks<u8>"* align 8 dereferenceable(24) %_19, i64 %i1), !dbg !413
  %_18.0 = extractvalue { [0 x i8]*, i64 } %32, 0, !dbg !413
  %_18.1 = extractvalue { [0 x i8]*, i64 } %32, 1, !dbg !413
  br label %bb9, !dbg !413

bb9:                                              ; preds = %bb8
  br label %bb10, !dbg !414

bb10:                                             ; preds = %bb9
  %33 = bitcast %"std::option::Option<(&[u8], &mut solana_program::pubkey::Pubkey)>"* %0 to {}**, !dbg !415
  store {}* null, {}** %33, align 8, !dbg !415
  br label %bb12, !dbg !408

bb12:                                             ; preds = %bb11, %bb10
  br label %bb13, !dbg !403
}

; <solana_program::program_option::COption<T> as core::convert::From<core::option::Option<T>>>::from
; Function Attrs: nounwind
define void @"_ZN125_$LT$solana_program..program_option..COption$LT$T$GT$$u20$as$u20$core..convert..From$LT$core..option..Option$LT$T$GT$$GT$$GT$4from17hf0df0326cff53c69E"(%"solana_program::program_option::COption<solana_program::pubkey::Pubkey>"* noalias nocapture sret(%"solana_program::program_option::COption<solana_program::pubkey::Pubkey>") dereferenceable(36) %0, %"std::option::Option<solana_program::pubkey::Pubkey>"* noalias nocapture dereferenceable(33) %option) unnamed_addr #0 !dbg !416 {
start:
  %_4 = alloca %"solana_program::pubkey::Pubkey", align 1
  %value = alloca %"solana_program::pubkey::Pubkey", align 1
  call void @llvm.dbg.declare(metadata %"std::option::Option<solana_program::pubkey::Pubkey>"* %option, metadata !433, metadata !DIExpression()), !dbg !436
  call void @llvm.dbg.declare(metadata %"solana_program::pubkey::Pubkey"* %value, metadata !434, metadata !DIExpression()), !dbg !437
  %1 = bitcast %"std::option::Option<solana_program::pubkey::Pubkey>"* %option to i8*, !dbg !438
  %2 = load i8, i8* %1, align 1, !dbg !438, !range !257
  %3 = trunc i8 %2 to i1, !dbg !438
  %_2 = zext i1 %3 to i64, !dbg !438
  switch i64 %_2, label %bb2 [
    i64 0, label %bb1
    i64 1, label %bb3
  ], !dbg !439

bb2:                                              ; preds = %start
  unreachable, !dbg !438

bb1:                                              ; preds = %start
  %4 = bitcast %"solana_program::program_option::COption<solana_program::pubkey::Pubkey>"* %0 to i32*, !dbg !440
  store i32 0, i32* %4, align 4, !dbg !440
  br label %bb4, !dbg !440

bb3:                                              ; preds = %start
  %5 = bitcast %"std::option::Option<solana_program::pubkey::Pubkey>"* %option to %"std::option::Option<solana_program::pubkey::Pubkey>::Some"*, !dbg !441
  %6 = getelementptr inbounds %"std::option::Option<solana_program::pubkey::Pubkey>::Some", %"std::option::Option<solana_program::pubkey::Pubkey>::Some"* %5, i32 0, i32 1, !dbg !441
  %7 = bitcast %"solana_program::pubkey::Pubkey"* %value to i8*, !dbg !441
  %8 = bitcast %"solana_program::pubkey::Pubkey"* %6 to i8*, !dbg !441
  call void @llvm.memcpy.p0i8.p0i8.i64(i8* align 1 %7, i8* align 1 %8, i64 32, i1 false), !dbg !441
  %9 = bitcast %"solana_program::pubkey::Pubkey"* %_4 to i8*, !dbg !442
  %10 = bitcast %"solana_program::pubkey::Pubkey"* %value to i8*, !dbg !442
  call void @llvm.memcpy.p0i8.p0i8.i64(i8* align 1 %9, i8* align 1 %10, i64 32, i1 false), !dbg !442
  %11 = bitcast %"solana_program::program_option::COption<solana_program::pubkey::Pubkey>"* %0 to %"solana_program::program_option::COption<solana_program::pubkey::Pubkey>::Some"*, !dbg !443
  %12 = getelementptr inbounds %"solana_program::program_option::COption<solana_program::pubkey::Pubkey>::Some", %"solana_program::program_option::COption<solana_program::pubkey::Pubkey>::Some"* %11, i32 0, i32 1, !dbg !443
  %13 = bitcast %"solana_program::pubkey::Pubkey"* %12 to i8*, !dbg !443
  %14 = bitcast %"solana_program::pubkey::Pubkey"* %_4 to i8*, !dbg !443
  call void @llvm.memcpy.p0i8.p0i8.i64(i8* align 4 %13, i8* align 1 %14, i64 32, i1 false), !dbg !443
  %15 = bitcast %"solana_program::program_option::COption<solana_program::pubkey::Pubkey>"* %0 to i32*, !dbg !443
  store i32 1, i32* %15, align 4, !dbg !443
  br label %bb4, !dbg !444

bb4:                                              ; preds = %bb1, %bb3
  ret void, !dbg !445
}

; <serde::de::impls::<impl serde::de::Deserialize for f64>::deserialize::PrimitiveVisitor as serde::de::Visitor>::visit_f64
; Function Attrs: inlinehint nounwind
define i128 @"_ZN143_$LT$serde..de..impls..$LT$impl$u20$serde..de..Deserialize$u20$for$u20$f64$GT$..deserialize..PrimitiveVisitor$u20$as$u20$serde..de..Visitor$GT$9visit_f6417h07be279b4969c79dE"(double %v) unnamed_addr #1 !dbg !446 {
start:
  %v.dbg.spill = alloca double, align 8
  %self.dbg.spill = alloca %"serde::de::impls::<impl serde::de::Deserialize<'de> for f64>::deserialize::PrimitiveVisitor", align 1
  %0 = alloca %"std::result::Result<f64, std::boxed::Box<bincode::error::ErrorKind>>", align 8
  call void @llvm.dbg.declare(metadata %"serde::de::impls::<impl serde::de::Deserialize<'de> for f64>::deserialize::PrimitiveVisitor"* %self.dbg.spill, metadata !601, metadata !DIExpression()), !dbg !604
  store double %v, double* %v.dbg.spill, align 8
  call void @llvm.dbg.declare(metadata double* %v.dbg.spill, metadata !602, metadata !DIExpression()), !dbg !605
  %1 = bitcast %"std::result::Result<f64, std::boxed::Box<bincode::error::ErrorKind>>"* %0 to %"std::result::Result<f64, std::boxed::Box<bincode::error::ErrorKind>>::Ok"*, !dbg !606
  %2 = getelementptr inbounds %"std::result::Result<f64, std::boxed::Box<bincode::error::ErrorKind>>::Ok", %"std::result::Result<f64, std::boxed::Box<bincode::error::ErrorKind>>::Ok"* %1, i32 0, i32 1, !dbg !606
  store double %v, double* %2, align 8, !dbg !606
  %3 = bitcast %"std::result::Result<f64, std::boxed::Box<bincode::error::ErrorKind>>"* %0 to i64*, !dbg !606
  store i64 0, i64* %3, align 8, !dbg !606
  %4 = bitcast %"std::result::Result<f64, std::boxed::Box<bincode::error::ErrorKind>>"* %0 to i128*, !dbg !607
  %5 = load i128, i128* %4, align 8, !dbg !607
  ret i128 %5, !dbg !607
}

; solana_program::account_info::next_account_info
; Function Attrs: nounwind
define void @_ZN14solana_program12account_info17next_account_info17hd5b77f27641dc3c6E(%"std::result::Result<&solana_program::account_info::AccountInfo, solana_program::program_error::ProgramError>"* noalias nocapture sret(%"std::result::Result<&solana_program::account_info::AccountInfo, solana_program::program_error::ProgramError>") dereferenceable(40) %0, { i64*, i64* }* align 8 dereferenceable(16) %iter) unnamed_addr #0 !dbg !608 {
start:
  %iter.dbg.spill = alloca { i64*, i64* }*, align 8
  %_4 = alloca %"solana_program::program_error::ProgramError", align 8
  store { i64*, i64* }* %iter, { i64*, i64* }** %iter.dbg.spill, align 8
  call void @llvm.dbg.declare(metadata { i64*, i64* }** %iter.dbg.spill, metadata !779, metadata !DIExpression()), !dbg !782
; call <core::slice::iter::Iter<T> as core::iter::traits::iterator::Iterator>::next
  %_2 = call align 8 dereferenceable_or_null(48) i64* @"_ZN91_$LT$core..slice..iter..Iter$LT$T$GT$$u20$as$u20$core..iter..traits..iterator..Iterator$GT$4next17hdeef7e6fcd08195fE"({ i64*, i64* }* align 8 dereferenceable(16) %iter), !dbg !783
  br label %bb1, !dbg !783

bb1:                                              ; preds = %start
  %1 = bitcast %"solana_program::program_error::ProgramError"* %_4 to i32*, !dbg !784
  store i32 10, i32* %1, align 8, !dbg !784
; call core::option::Option<T>::ok_or
  call void @"_ZN4core6option15Option$LT$T$GT$5ok_or17hbdcd2c8df8ae7be7E"(%"std::result::Result<&solana_program::account_info::AccountInfo, solana_program::program_error::ProgramError>"* noalias nocapture sret(%"std::result::Result<&solana_program::account_info::AccountInfo, solana_program::program_error::ProgramError>") dereferenceable(40) %0, i64* align 8 dereferenceable_or_null(48) %_2, %"solana_program::program_error::ProgramError"* noalias nocapture dereferenceable(32) %_4), !dbg !783
  br label %bb2, !dbg !783

bb2:                                              ; preds = %bb1
  ret void, !dbg !785
}

; solana_program::program_pack::Pack::get_packed_len
; Function Attrs: nounwind
define i64 @_ZN14solana_program12program_pack4Pack14get_packed_len17h946399e1ba34c601E() unnamed_addr #0 !dbg !786 {
start:
  ret i64 82, !dbg !801
}

; solana_program::program_pack::Pack::get_packed_len
; Function Attrs: nounwind
define i64 @_ZN14solana_program12program_pack4Pack14get_packed_len17hd16aa56e05c0249dE() unnamed_addr #0 !dbg !802 {
start:
  ret i64 165, !dbg !815
}

; solana_program::program_pack::Pack::get_packed_len
; Function Attrs: nounwind
define i64 @_ZN14solana_program12program_pack4Pack14get_packed_len17hdc8825bba01b3507E() unnamed_addr #0 !dbg !816 {
start:
  ret i64 355, !dbg !825
}

; solana_program::program_pack::Pack::unpack_unchecked
; Function Attrs: nounwind
define void @_ZN14solana_program12program_pack4Pack16unpack_unchecked17h770e44ce58978ad0E(%"std::result::Result<state::Multisig, solana_program::program_error::ProgramError>"* noalias nocapture sret(%"std::result::Result<state::Multisig, solana_program::program_error::ProgramError>") dereferenceable(360) %0, [0 x i8]* nonnull align 1 %input.0, i64 %input.1) unnamed_addr #0 !dbg !826 {
start:
  %input.dbg.spill = alloca { [0 x i8]*, i64 }, align 8
  %_5 = alloca %"solana_program::program_error::ProgramError", align 8
  %1 = getelementptr inbounds { [0 x i8]*, i64 }, { [0 x i8]*, i64 }* %input.dbg.spill, i32 0, i32 0
  store [0 x i8]* %input.0, [0 x i8]** %1, align 8
  %2 = getelementptr inbounds { [0 x i8]*, i64 }, { [0 x i8]*, i64 }* %input.dbg.spill, i32 0, i32 1
  store i64 %input.1, i64* %2, align 8
  call void @llvm.dbg.declare(metadata { [0 x i8]*, i64 }* %input.dbg.spill, metadata !845, metadata !DIExpression()), !dbg !846
  %_2 = icmp ne i64 %input.1, 355, !dbg !847
  br i1 %_2, label %bb1, label %bb2, !dbg !847

bb2:                                              ; preds = %start
; call <spl_token::state::Multisig as solana_program::program_pack::Pack>::unpack_from_slice
  call void @"_ZN81_$LT$spl_token..state..Multisig$u20$as$u20$solana_program..program_pack..Pack$GT$17unpack_from_slice17h1a39e34e5093f1a0E"(%"std::result::Result<state::Multisig, solana_program::program_error::ProgramError>"* noalias nocapture sret(%"std::result::Result<state::Multisig, solana_program::program_error::ProgramError>") dereferenceable(360) %0, [0 x i8]* nonnull align 1 %input.0, i64 %input.1), !dbg !848
  br label %bb3, !dbg !848

bb1:                                              ; preds = %start
  %3 = bitcast %"solana_program::program_error::ProgramError"* %_5 to i32*, !dbg !849
  store i32 3, i32* %3, align 8, !dbg !849
  %4 = bitcast %"std::result::Result<state::Multisig, solana_program::program_error::ProgramError>"* %0 to %"std::result::Result<state::Multisig, solana_program::program_error::ProgramError>::Err"*, !dbg !850
  %5 = getelementptr inbounds %"std::result::Result<state::Multisig, solana_program::program_error::ProgramError>::Err", %"std::result::Result<state::Multisig, solana_program::program_error::ProgramError>::Err"* %4, i32 0, i32 1, !dbg !850
  %6 = bitcast %"solana_program::program_error::ProgramError"* %5 to i8*, !dbg !850
  %7 = bitcast %"solana_program::program_error::ProgramError"* %_5 to i8*, !dbg !850
  call void @llvm.memcpy.p0i8.p0i8.i64(i8* align 8 %6, i8* align 8 %7, i64 32, i1 false), !dbg !850
  %8 = bitcast %"std::result::Result<state::Multisig, solana_program::program_error::ProgramError>"* %0 to i8*, !dbg !850
  store i8 1, i8* %8, align 8, !dbg !850
  br label %bb3, !dbg !851

bb3:                                              ; preds = %bb2, %bb1
  ret void, !dbg !851
}

; solana_program::program_pack::Pack::unpack_unchecked
; Function Attrs: nounwind
define void @_ZN14solana_program12program_pack4Pack16unpack_unchecked17h992c0888b7bcd8f9E(%"std::result::Result<state::Mint, solana_program::program_error::ProgramError>"* noalias nocapture sret(%"std::result::Result<state::Mint, solana_program::program_error::ProgramError>") dereferenceable(96) %0, [0 x i8]* nonnull align 1 %input.0, i64 %input.1) unnamed_addr #0 !dbg !852 {
start:
  %input.dbg.spill = alloca { [0 x i8]*, i64 }, align 8
  %_5 = alloca %"solana_program::program_error::ProgramError", align 8
  %1 = getelementptr inbounds { [0 x i8]*, i64 }, { [0 x i8]*, i64 }* %input.dbg.spill, i32 0, i32 0
  store [0 x i8]* %input.0, [0 x i8]** %1, align 8
  %2 = getelementptr inbounds { [0 x i8]*, i64 }, { [0 x i8]*, i64 }* %input.dbg.spill, i32 0, i32 1
  store i64 %input.1, i64* %2, align 8
  call void @llvm.dbg.declare(metadata { [0 x i8]*, i64 }* %input.dbg.spill, metadata !870, metadata !DIExpression()), !dbg !871
  %_2 = icmp ne i64 %input.1, 82, !dbg !872
  br i1 %_2, label %bb1, label %bb2, !dbg !872

bb2:                                              ; preds = %start
; call <spl_token::state::Mint as solana_program::program_pack::Pack>::unpack_from_slice
  call void @"_ZN77_$LT$spl_token..state..Mint$u20$as$u20$solana_program..program_pack..Pack$GT$17unpack_from_slice17h0918dc16b8a59f1aE"(%"std::result::Result<state::Mint, solana_program::program_error::ProgramError>"* noalias nocapture sret(%"std::result::Result<state::Mint, solana_program::program_error::ProgramError>") dereferenceable(96) %0, [0 x i8]* nonnull align 1 %input.0, i64 %input.1), !dbg !873
  br label %bb3, !dbg !873

bb1:                                              ; preds = %start
  %3 = bitcast %"solana_program::program_error::ProgramError"* %_5 to i32*, !dbg !874
  store i32 3, i32* %3, align 8, !dbg !874
  %4 = bitcast %"std::result::Result<state::Mint, solana_program::program_error::ProgramError>"* %0 to %"std::result::Result<state::Mint, solana_program::program_error::ProgramError>::Err"*, !dbg !875
  %5 = getelementptr inbounds %"std::result::Result<state::Mint, solana_program::program_error::ProgramError>::Err", %"std::result::Result<state::Mint, solana_program::program_error::ProgramError>::Err"* %4, i32 0, i32 1, !dbg !875
  %6 = bitcast %"solana_program::program_error::ProgramError"* %5 to i8*, !dbg !875
  %7 = bitcast %"solana_program::program_error::ProgramError"* %_5 to i8*, !dbg !875
  call void @llvm.memcpy.p0i8.p0i8.i64(i8* align 8 %6, i8* align 8 %7, i64 32, i1 false), !dbg !875
  %8 = bitcast %"std::result::Result<state::Mint, solana_program::program_error::ProgramError>"* %0 to i64*, !dbg !875
  store i64 1, i64* %8, align 8, !dbg !875
  br label %bb3, !dbg !876

bb3:                                              ; preds = %bb2, %bb1
  ret void, !dbg !876
}

; solana_program::program_pack::Pack::unpack_unchecked
; Function Attrs: nounwind
define void @_ZN14solana_program12program_pack4Pack16unpack_unchecked17he03675cfc0e7a54eE(%"std::result::Result<state::Account, solana_program::program_error::ProgramError>"* noalias nocapture sret(%"std::result::Result<state::Account, solana_program::program_error::ProgramError>") dereferenceable(184) %0, [0 x i8]* nonnull align 1 %input.0, i64 %input.1) unnamed_addr #0 !dbg !877 {
start:
  %input.dbg.spill = alloca { [0 x i8]*, i64 }, align 8
  %_5 = alloca %"solana_program::program_error::ProgramError", align 8
  %1 = getelementptr inbounds { [0 x i8]*, i64 }, { [0 x i8]*, i64 }* %input.dbg.spill, i32 0, i32 0
  store [0 x i8]* %input.0, [0 x i8]** %1, align 8
  %2 = getelementptr inbounds { [0 x i8]*, i64 }, { [0 x i8]*, i64 }* %input.dbg.spill, i32 0, i32 1
  store i64 %input.1, i64* %2, align 8
  call void @llvm.dbg.declare(metadata { [0 x i8]*, i64 }* %input.dbg.spill, metadata !895, metadata !DIExpression()), !dbg !896
  %_2 = icmp ne i64 %input.1, 165, !dbg !897
  br i1 %_2, label %bb1, label %bb2, !dbg !897

bb2:                                              ; preds = %start
; call <spl_token::state::Account as solana_program::program_pack::Pack>::unpack_from_slice
  call void @"_ZN80_$LT$spl_token..state..Account$u20$as$u20$solana_program..program_pack..Pack$GT$17unpack_from_slice17hfcc59f857320310dE"(%"std::result::Result<state::Account, solana_program::program_error::ProgramError>"* noalias nocapture sret(%"std::result::Result<state::Account, solana_program::program_error::ProgramError>") dereferenceable(184) %0, [0 x i8]* nonnull align 1 %input.0, i64 %input.1), !dbg !898
  br label %bb3, !dbg !898

bb1:                                              ; preds = %start
  %3 = bitcast %"solana_program::program_error::ProgramError"* %_5 to i32*, !dbg !899
  store i32 3, i32* %3, align 8, !dbg !899
  %4 = bitcast %"std::result::Result<state::Account, solana_program::program_error::ProgramError>"* %0 to %"std::result::Result<state::Account, solana_program::program_error::ProgramError>::Err"*, !dbg !900
  %5 = getelementptr inbounds %"std::result::Result<state::Account, solana_program::program_error::ProgramError>::Err", %"std::result::Result<state::Account, solana_program::program_error::ProgramError>::Err"* %4, i32 0, i32 1, !dbg !900
  %6 = bitcast %"solana_program::program_error::ProgramError"* %5 to i8*, !dbg !900
  %7 = bitcast %"solana_program::program_error::ProgramError"* %_5 to i8*, !dbg !900
  call void @llvm.memcpy.p0i8.p0i8.i64(i8* align 8 %6, i8* align 8 %7, i64 32, i1 false), !dbg !900
  %8 = bitcast %"std::result::Result<state::Account, solana_program::program_error::ProgramError>"* %0 to i64*, !dbg !900
  store i64 1, i64* %8, align 8, !dbg !900
  br label %bb3, !dbg !901

bb3:                                              ; preds = %bb2, %bb1
  ret void, !dbg !901
}

; solana_program::program_pack::Pack::pack
; Function Attrs: nounwind
define void @_ZN14solana_program12program_pack4Pack4pack17h5a570ecfd9931f30E(%"std::result::Result<(), solana_program::program_error::ProgramError>"* noalias nocapture sret(%"std::result::Result<(), solana_program::program_error::ProgramError>") dereferenceable(32) %0, %"state::Multisig"* noalias nocapture dereferenceable(355) %src, [0 x i8]* nonnull align 1 %dst.0, i64 %dst.1) unnamed_addr #0 !dbg !902 {
start:
  %dst.dbg.spill = alloca { [0 x i8]*, i64 }, align 8
  %_6 = alloca %"solana_program::program_error::ProgramError", align 8
  call void @llvm.dbg.declare(metadata %"state::Multisig"* %src, metadata !922, metadata !DIExpression()), !dbg !924
  %1 = getelementptr inbounds { [0 x i8]*, i64 }, { [0 x i8]*, i64 }* %dst.dbg.spill, i32 0, i32 0
  store [0 x i8]* %dst.0, [0 x i8]** %1, align 8
  %2 = getelementptr inbounds { [0 x i8]*, i64 }, { [0 x i8]*, i64 }* %dst.dbg.spill, i32 0, i32 1
  store i64 %dst.1, i64* %2, align 8
  call void @llvm.dbg.declare(metadata { [0 x i8]*, i64 }* %dst.dbg.spill, metadata !923, metadata !DIExpression()), !dbg !925
  %_3 = icmp ne i64 %dst.1, 355, !dbg !926
  br i1 %_3, label %bb1, label %bb2, !dbg !926

bb2:                                              ; preds = %start
; call <spl_token::state::Multisig as solana_program::program_pack::Pack>::pack_into_slice
  call void @"_ZN81_$LT$spl_token..state..Multisig$u20$as$u20$solana_program..program_pack..Pack$GT$15pack_into_slice17h4a5152ab2e84c8f5E"(%"state::Multisig"* align 1 dereferenceable(355) %src, [0 x i8]* nonnull align 1 %dst.0, i64 %dst.1), !dbg !927
  br label %bb3, !dbg !927

bb1:                                              ; preds = %start
  %3 = bitcast %"solana_program::program_error::ProgramError"* %_6 to i32*, !dbg !928
  store i32 3, i32* %3, align 8, !dbg !928
  %4 = bitcast %"std::result::Result<(), solana_program::program_error::ProgramError>"* %0 to %"std::result::Result<(), solana_program::program_error::ProgramError>::Err"*, !dbg !929
  %5 = bitcast %"std::result::Result<(), solana_program::program_error::ProgramError>::Err"* %4 to %"solana_program::program_error::ProgramError"*, !dbg !929
  %6 = bitcast %"solana_program::program_error::ProgramError"* %5 to i8*, !dbg !929
  %7 = bitcast %"solana_program::program_error::ProgramError"* %_6 to i8*, !dbg !929
  call void @llvm.memcpy.p0i8.p0i8.i64(i8* align 8 %6, i8* align 8 %7, i64 32, i1 false), !dbg !929
  br label %bb4, !dbg !930

bb4:                                              ; preds = %bb3, %bb1
  ret void, !dbg !931

bb3:                                              ; preds = %bb2
  %8 = bitcast %"std::result::Result<(), solana_program::program_error::ProgramError>"* %0 to i32*, !dbg !932
  store i32 20, i32* %8, align 8, !dbg !932
  br label %bb4, !dbg !930
}

; solana_program::program_pack::Pack::pack
; Function Attrs: nounwind
define void @_ZN14solana_program12program_pack4Pack4pack17h93063f69de99f0e9E(%"std::result::Result<(), solana_program::program_error::ProgramError>"* noalias nocapture sret(%"std::result::Result<(), solana_program::program_error::ProgramError>") dereferenceable(32) %0, %"state::Account"* noalias nocapture dereferenceable(176) %src, [0 x i8]* nonnull align 1 %dst.0, i64 %dst.1) unnamed_addr #0 !dbg !933 {
start:
  %dst.dbg.spill = alloca { [0 x i8]*, i64 }, align 8
  %_6 = alloca %"solana_program::program_error::ProgramError", align 8
  call void @llvm.dbg.declare(metadata %"state::Account"* %src, metadata !937, metadata !DIExpression()), !dbg !939
  %1 = getelementptr inbounds { [0 x i8]*, i64 }, { [0 x i8]*, i64 }* %dst.dbg.spill, i32 0, i32 0
  store [0 x i8]* %dst.0, [0 x i8]** %1, align 8
  %2 = getelementptr inbounds { [0 x i8]*, i64 }, { [0 x i8]*, i64 }* %dst.dbg.spill, i32 0, i32 1
  store i64 %dst.1, i64* %2, align 8
  call void @llvm.dbg.declare(metadata { [0 x i8]*, i64 }* %dst.dbg.spill, metadata !938, metadata !DIExpression()), !dbg !940
  %_3 = icmp ne i64 %dst.1, 165, !dbg !941
  br i1 %_3, label %bb1, label %bb2, !dbg !941

bb2:                                              ; preds = %start
; call <spl_token::state::Account as solana_program::program_pack::Pack>::pack_into_slice
  call void @"_ZN80_$LT$spl_token..state..Account$u20$as$u20$solana_program..program_pack..Pack$GT$15pack_into_slice17h52125cd17ee1304cE"(%"state::Account"* align 8 dereferenceable(176) %src, [0 x i8]* nonnull align 1 %dst.0, i64 %dst.1), !dbg !942
  br label %bb3, !dbg !942

bb1:                                              ; preds = %start
  %3 = bitcast %"solana_program::program_error::ProgramError"* %_6 to i32*, !dbg !943
  store i32 3, i32* %3, align 8, !dbg !943
  %4 = bitcast %"std::result::Result<(), solana_program::program_error::ProgramError>"* %0 to %"std::result::Result<(), solana_program::program_error::ProgramError>::Err"*, !dbg !944
  %5 = bitcast %"std::result::Result<(), solana_program::program_error::ProgramError>::Err"* %4 to %"solana_program::program_error::ProgramError"*, !dbg !944
  %6 = bitcast %"solana_program::program_error::ProgramError"* %5 to i8*, !dbg !944
  %7 = bitcast %"solana_program::program_error::ProgramError"* %_6 to i8*, !dbg !944
  call void @llvm.memcpy.p0i8.p0i8.i64(i8* align 8 %6, i8* align 8 %7, i64 32, i1 false), !dbg !944
  br label %bb4, !dbg !945

bb4:                                              ; preds = %bb3, %bb1
  ret void, !dbg !946

bb3:                                              ; preds = %bb2
  %8 = bitcast %"std::result::Result<(), solana_program::program_error::ProgramError>"* %0 to i32*, !dbg !947
  store i32 20, i32* %8, align 8, !dbg !947
  br label %bb4, !dbg !945
}

; solana_program::program_pack::Pack::pack
; Function Attrs: nounwind
define void @_ZN14solana_program12program_pack4Pack4pack17hebb465e3fb77ff37E(%"std::result::Result<(), solana_program::program_error::ProgramError>"* noalias nocapture sret(%"std::result::Result<(), solana_program::program_error::ProgramError>") dereferenceable(32) %0, %"state::Mint"* noalias nocapture dereferenceable(88) %src, [0 x i8]* nonnull align 1 %dst.0, i64 %dst.1) unnamed_addr #0 !dbg !948 {
start:
  %dst.dbg.spill = alloca { [0 x i8]*, i64 }, align 8
  %_6 = alloca %"solana_program::program_error::ProgramError", align 8
  call void @llvm.dbg.declare(metadata %"state::Mint"* %src, metadata !952, metadata !DIExpression()), !dbg !954
  %1 = getelementptr inbounds { [0 x i8]*, i64 }, { [0 x i8]*, i64 }* %dst.dbg.spill, i32 0, i32 0
  store [0 x i8]* %dst.0, [0 x i8]** %1, align 8
  %2 = getelementptr inbounds { [0 x i8]*, i64 }, { [0 x i8]*, i64 }* %dst.dbg.spill, i32 0, i32 1
  store i64 %dst.1, i64* %2, align 8
  call void @llvm.dbg.declare(metadata { [0 x i8]*, i64 }* %dst.dbg.spill, metadata !953, metadata !DIExpression()), !dbg !955
  %_3 = icmp ne i64 %dst.1, 82, !dbg !956
  br i1 %_3, label %bb1, label %bb2, !dbg !956

bb2:                                              ; preds = %start
; call <spl_token::state::Mint as solana_program::program_pack::Pack>::pack_into_slice
  call void @"_ZN77_$LT$spl_token..state..Mint$u20$as$u20$solana_program..program_pack..Pack$GT$15pack_into_slice17hdf25a18ea20773d5E"(%"state::Mint"* align 8 dereferenceable(88) %src, [0 x i8]* nonnull align 1 %dst.0, i64 %dst.1), !dbg !957
  br label %bb3, !dbg !957

bb1:                                              ; preds = %start
  %3 = bitcast %"solana_program::program_error::ProgramError"* %_6 to i32*, !dbg !958
  store i32 3, i32* %3, align 8, !dbg !958
  %4 = bitcast %"std::result::Result<(), solana_program::program_error::ProgramError>"* %0 to %"std::result::Result<(), solana_program::program_error::ProgramError>::Err"*, !dbg !959
  %5 = bitcast %"std::result::Result<(), solana_program::program_error::ProgramError>::Err"* %4 to %"solana_program::program_error::ProgramError"*, !dbg !959
  %6 = bitcast %"solana_program::program_error::ProgramError"* %5 to i8*, !dbg !959
  %7 = bitcast %"solana_program::program_error::ProgramError"* %_6 to i8*, !dbg !959
  call void @llvm.memcpy.p0i8.p0i8.i64(i8* align 8 %6, i8* align 8 %7, i64 32, i1 false), !dbg !959
  br label %bb4, !dbg !960

bb4:                                              ; preds = %bb3, %bb1
  ret void, !dbg !961

bb3:                                              ; preds = %bb2
  %8 = bitcast %"std::result::Result<(), solana_program::program_error::ProgramError>"* %0 to i32*, !dbg !962
  store i32 20, i32* %8, align 8, !dbg !962
  br label %bb4, !dbg !960
}

; solana_program::program_pack::Pack::unpack
; Function Attrs: nounwind
define void @_ZN14solana_program12program_pack4Pack6unpack17h6513d67b6cf23c3aE(%"std::result::Result<state::Mint, solana_program::program_error::ProgramError>"* noalias nocapture sret(%"std::result::Result<state::Mint, solana_program::program_error::ProgramError>") dereferenceable(96) %0, [0 x i8]* nonnull align 1 %input.0, i64 %input.1) unnamed_addr #0 !dbg !963 {
start:
  %input.dbg.spill = alloca { [0 x i8]*, i64 }, align 8
  %_14 = alloca i8, align 1
  %_13 = alloca %"solana_program::program_error::ProgramError", align 8
  %_12 = alloca %"state::Mint", align 8
  %val = alloca %"state::Mint", align 8
  %_8 = alloca %"std::result::Result<std::convert::Infallible, solana_program::program_error::ProgramError>::Err", align 8
  %residual = alloca %"std::result::Result<std::convert::Infallible, solana_program::program_error::ProgramError>::Err", align 8
  %_4 = alloca %"std::result::Result<state::Mint, solana_program::program_error::ProgramError>", align 8
  %_3 = alloca %"std::ops::ControlFlow<std::result::Result<std::convert::Infallible, solana_program::program_error::ProgramError>, state::Mint>", align 8
  %value = alloca %"state::Mint", align 8
  %1 = getelementptr inbounds { [0 x i8]*, i64 }, { [0 x i8]*, i64 }* %input.dbg.spill, i32 0, i32 0
  store [0 x i8]* %input.0, [0 x i8]** %1, align 8
  %2 = getelementptr inbounds { [0 x i8]*, i64 }, { [0 x i8]*, i64 }* %input.dbg.spill, i32 0, i32 1
  store i64 %input.1, i64* %2, align 8
  call void @llvm.dbg.declare(metadata { [0 x i8]*, i64 }* %input.dbg.spill, metadata !965, metadata !DIExpression()), !dbg !986
  call void @llvm.dbg.declare(metadata %"state::Mint"* %value, metadata !966, metadata !DIExpression()), !dbg !987
  call void @llvm.dbg.declare(metadata %"std::result::Result<std::convert::Infallible, solana_program::program_error::ProgramError>::Err"* %residual, metadata !968, metadata !DIExpression()), !dbg !988
  call void @llvm.dbg.declare(metadata %"state::Mint"* %val, metadata !984, metadata !DIExpression()), !dbg !989
  store i8 0, i8* %_14, align 1, !dbg !990
; call solana_program::program_pack::Pack::unpack_unchecked
  call void @_ZN14solana_program12program_pack4Pack16unpack_unchecked17h992c0888b7bcd8f9E(%"std::result::Result<state::Mint, solana_program::program_error::ProgramError>"* noalias nocapture sret(%"std::result::Result<state::Mint, solana_program::program_error::ProgramError>") dereferenceable(96) %_4, [0 x i8]* nonnull align 1 %input.0, i64 %input.1), !dbg !991
  br label %bb1, !dbg !991

bb1:                                              ; preds = %start
; call <core::result::Result<T,E> as core::ops::try_trait::Try>::branch
  call void @"_ZN79_$LT$core..result..Result$LT$T$C$E$GT$$u20$as$u20$core..ops..try_trait..Try$GT$6branch17hc92efcecaaaee01bE"(%"std::ops::ControlFlow<std::result::Result<std::convert::Infallible, solana_program::program_error::ProgramError>, state::Mint>"* noalias nocapture sret(%"std::ops::ControlFlow<std::result::Result<std::convert::Infallible, solana_program::program_error::ProgramError>, state::Mint>") dereferenceable(96) %_3, %"std::result::Result<state::Mint, solana_program::program_error::ProgramError>"* noalias nocapture dereferenceable(96) %_4), !dbg !991
  br label %bb2, !dbg !991

bb2:                                              ; preds = %bb1
  %3 = bitcast %"std::ops::ControlFlow<std::result::Result<std::convert::Infallible, solana_program::program_error::ProgramError>, state::Mint>"* %_3 to i64*, !dbg !991
  %_6 = load i64, i64* %3, align 8, !dbg !991, !range !992
  switch i64 %_6, label %bb4 [
    i64 0, label %bb3
    i64 1, label %bb5
  ], !dbg !991

bb4:                                              ; preds = %bb2
  unreachable, !dbg !991

bb3:                                              ; preds = %bb2
  %4 = bitcast %"std::ops::ControlFlow<std::result::Result<std::convert::Infallible, solana_program::program_error::ProgramError>, state::Mint>"* %_3 to %"std::ops::ControlFlow<std::result::Result<std::convert::Infallible, solana_program::program_error::ProgramError>, state::Mint>::Continue"*, !dbg !991
  %5 = getelementptr inbounds %"std::ops::ControlFlow<std::result::Result<std::convert::Infallible, solana_program::program_error::ProgramError>, state::Mint>::Continue", %"std::ops::ControlFlow<std::result::Result<std::convert::Infallible, solana_program::program_error::ProgramError>, state::Mint>::Continue"* %4, i32 0, i32 1, !dbg !991
  %6 = bitcast %"state::Mint"* %val to i8*, !dbg !991
  %7 = bitcast %"state::Mint"* %5 to i8*, !dbg !991
  call void @llvm.memcpy.p0i8.p0i8.i64(i8* align 8 %6, i8* align 8 %7, i64 88, i1 false), !dbg !991
  store i8 1, i8* %_14, align 1, !dbg !989
  %8 = bitcast %"state::Mint"* %value to i8*, !dbg !989
  %9 = bitcast %"state::Mint"* %val to i8*, !dbg !989
  call void @llvm.memcpy.p0i8.p0i8.i64(i8* align 8 %8, i8* align 8 %9, i64 88, i1 false), !dbg !989
; call <spl_token::state::Mint as solana_program::program_pack::IsInitialized>::is_initialized
  %_10 = call zeroext i1 @"_ZN86_$LT$spl_token..state..Mint$u20$as$u20$solana_program..program_pack..IsInitialized$GT$14is_initialized17he26668d5fdc3d72fE"(%"state::Mint"* align 8 dereferenceable(88) %value), !dbg !993
  br label %bb7, !dbg !993

bb5:                                              ; preds = %bb2
  %10 = bitcast %"std::ops::ControlFlow<std::result::Result<std::convert::Infallible, solana_program::program_error::ProgramError>, state::Mint>"* %_3 to %"std::ops::ControlFlow<std::result::Result<std::convert::Infallible, solana_program::program_error::ProgramError>, state::Mint>::Break"*, !dbg !994
  %11 = getelementptr inbounds %"std::ops::ControlFlow<std::result::Result<std::convert::Infallible, solana_program::program_error::ProgramError>, state::Mint>::Break", %"std::ops::ControlFlow<std::result::Result<std::convert::Infallible, solana_program::program_error::ProgramError>, state::Mint>::Break"* %10, i32 0, i32 1, !dbg !994
  %12 = bitcast %"std::result::Result<std::convert::Infallible, solana_program::program_error::ProgramError>::Err"* %residual to i8*, !dbg !994
  %13 = bitcast %"std::result::Result<std::convert::Infallible, solana_program::program_error::ProgramError>::Err"* %11 to i8*, !dbg !994
  call void @llvm.memcpy.p0i8.p0i8.i64(i8* align 8 %12, i8* align 8 %13, i64 32, i1 false), !dbg !994
  %14 = bitcast %"std::result::Result<std::convert::Infallible, solana_program::program_error::ProgramError>::Err"* %_8 to i8*, !dbg !988
  %15 = bitcast %"std::result::Result<std::convert::Infallible, solana_program::program_error::ProgramError>::Err"* %residual to i8*, !dbg !988
  call void @llvm.memcpy.p0i8.p0i8.i64(i8* align 8 %14, i8* align 8 %15, i64 32, i1 false), !dbg !988
; call <core::result::Result<T,F> as core::ops::try_trait::FromResidual<core::result::Result<core::convert::Infallible,E>>>::from_residual
  call void @"_ZN153_$LT$core..result..Result$LT$T$C$F$GT$$u20$as$u20$core..ops..try_trait..FromResidual$LT$core..result..Result$LT$core..convert..Infallible$C$E$GT$$GT$$GT$13from_residual17hdf3865db8dbb5662E"(%"std::result::Result<state::Mint, solana_program::program_error::ProgramError>"* noalias nocapture sret(%"std::result::Result<state::Mint, solana_program::program_error::ProgramError>") dereferenceable(96) %0, %"std::result::Result<std::convert::Infallible, solana_program::program_error::ProgramError>::Err"* noalias nocapture dereferenceable(32) %_8), !dbg !995
  br label %bb6, !dbg !995

bb6:                                              ; preds = %bb5
  store i8 0, i8* %_14, align 1, !dbg !996
  br label %bb12, !dbg !997

bb12:                                             ; preds = %bb11, %bb6
  ret void, !dbg !997

bb7:                                              ; preds = %bb3
  br i1 %_10, label %bb8, label %bb9, !dbg !993

bb9:                                              ; preds = %bb7
  %16 = bitcast %"solana_program::program_error::ProgramError"* %_13 to i32*, !dbg !998
  store i32 9, i32* %16, align 8, !dbg !998
  %17 = bitcast %"std::result::Result<state::Mint, solana_program::program_error::ProgramError>"* %0 to %"std::result::Result<state::Mint, solana_program::program_error::ProgramError>::Err"*, !dbg !999
  %18 = getelementptr inbounds %"std::result::Result<state::Mint, solana_program::program_error::ProgramError>::Err", %"std::result::Result<state::Mint, solana_program::program_error::ProgramError>::Err"* %17, i32 0, i32 1, !dbg !999
  %19 = bitcast %"solana_program::program_error::ProgramError"* %18 to i8*, !dbg !999
  %20 = bitcast %"solana_program::program_error::ProgramError"* %_13 to i8*, !dbg !999
  call void @llvm.memcpy.p0i8.p0i8.i64(i8* align 8 %19, i8* align 8 %20, i64 32, i1 false), !dbg !999
  %21 = bitcast %"std::result::Result<state::Mint, solana_program::program_error::ProgramError>"* %0 to i64*, !dbg !999
  store i64 1, i64* %21, align 8, !dbg !999
  br label %bb10, !dbg !1000

bb8:                                              ; preds = %bb7
  store i8 0, i8* %_14, align 1, !dbg !1001
  %22 = bitcast %"state::Mint"* %_12 to i8*, !dbg !1001
  %23 = bitcast %"state::Mint"* %value to i8*, !dbg !1001
  call void @llvm.memcpy.p0i8.p0i8.i64(i8* align 8 %22, i8* align 8 %23, i64 88, i1 false), !dbg !1001
  %24 = bitcast %"std::result::Result<state::Mint, solana_program::program_error::ProgramError>"* %0 to %"std::result::Result<state::Mint, solana_program::program_error::ProgramError>::Ok"*, !dbg !1002
  %25 = getelementptr inbounds %"std::result::Result<state::Mint, solana_program::program_error::ProgramError>::Ok", %"std::result::Result<state::Mint, solana_program::program_error::ProgramError>::Ok"* %24, i32 0, i32 1, !dbg !1002
  %26 = bitcast %"state::Mint"* %25 to i8*, !dbg !1002
  %27 = bitcast %"state::Mint"* %_12 to i8*, !dbg !1002
  call void @llvm.memcpy.p0i8.p0i8.i64(i8* align 8 %26, i8* align 8 %27, i64 88, i1 false), !dbg !1002
  %28 = bitcast %"std::result::Result<state::Mint, solana_program::program_error::ProgramError>"* %0 to i64*, !dbg !1002
  store i64 0, i64* %28, align 8, !dbg !1002
  br label %bb10, !dbg !1000

bb10:                                             ; preds = %bb9, %bb8
  %29 = load i8, i8* %_14, align 1, !dbg !996, !range !257
  %30 = trunc i8 %29 to i1, !dbg !996
  br i1 %30, label %bb13, label %bb11, !dbg !996

bb11:                                             ; preds = %bb13, %bb10
  store i8 0, i8* %_14, align 1, !dbg !996
  br label %bb12, !dbg !997

bb13:                                             ; preds = %bb10
  br label %bb11, !dbg !996
}

; solana_program::program_pack::Pack::unpack
; Function Attrs: nounwind
define void @_ZN14solana_program12program_pack4Pack6unpack17ha6391fd683ec90c2E(%"std::result::Result<state::Account, solana_program::program_error::ProgramError>"* noalias nocapture sret(%"std::result::Result<state::Account, solana_program::program_error::ProgramError>") dereferenceable(184) %0, [0 x i8]* nonnull align 1 %input.0, i64 %input.1) unnamed_addr #0 !dbg !1003 {
start:
  %input.dbg.spill = alloca { [0 x i8]*, i64 }, align 8
  %_14 = alloca i8, align 1
  %_13 = alloca %"solana_program::program_error::ProgramError", align 8
  %_12 = alloca %"state::Account", align 8
  %val = alloca %"state::Account", align 8
  %_8 = alloca %"std::result::Result<std::convert::Infallible, solana_program::program_error::ProgramError>::Err", align 8
  %residual = alloca %"std::result::Result<std::convert::Infallible, solana_program::program_error::ProgramError>::Err", align 8
  %_4 = alloca %"std::result::Result<state::Account, solana_program::program_error::ProgramError>", align 8
  %_3 = alloca %"std::ops::ControlFlow<std::result::Result<std::convert::Infallible, solana_program::program_error::ProgramError>, state::Account>", align 8
  %value = alloca %"state::Account", align 8
  %1 = getelementptr inbounds { [0 x i8]*, i64 }, { [0 x i8]*, i64 }* %input.dbg.spill, i32 0, i32 0
  store [0 x i8]* %input.0, [0 x i8]** %1, align 8
  %2 = getelementptr inbounds { [0 x i8]*, i64 }, { [0 x i8]*, i64 }* %input.dbg.spill, i32 0, i32 1
  store i64 %input.1, i64* %2, align 8
  call void @llvm.dbg.declare(metadata { [0 x i8]*, i64 }* %input.dbg.spill, metadata !1005, metadata !DIExpression()), !dbg !1012
  call void @llvm.dbg.declare(metadata %"state::Account"* %value, metadata !1006, metadata !DIExpression()), !dbg !1013
  call void @llvm.dbg.declare(metadata %"std::result::Result<std::convert::Infallible, solana_program::program_error::ProgramError>::Err"* %residual, metadata !1008, metadata !DIExpression()), !dbg !1014
  call void @llvm.dbg.declare(metadata %"state::Account"* %val, metadata !1010, metadata !DIExpression()), !dbg !1015
  store i8 0, i8* %_14, align 1, !dbg !1016
; call solana_program::program_pack::Pack::unpack_unchecked
  call void @_ZN14solana_program12program_pack4Pack16unpack_unchecked17he03675cfc0e7a54eE(%"std::result::Result<state::Account, solana_program::program_error::ProgramError>"* noalias nocapture sret(%"std::result::Result<state::Account, solana_program::program_error::ProgramError>") dereferenceable(184) %_4, [0 x i8]* nonnull align 1 %input.0, i64 %input.1), !dbg !1017
  br label %bb1, !dbg !1017

bb1:                                              ; preds = %start
; call <core::result::Result<T,E> as core::ops::try_trait::Try>::branch
  call void @"_ZN79_$LT$core..result..Result$LT$T$C$E$GT$$u20$as$u20$core..ops..try_trait..Try$GT$6branch17h9d39c9d4c6fd109eE"(%"std::ops::ControlFlow<std::result::Result<std::convert::Infallible, solana_program::program_error::ProgramError>, state::Account>"* noalias nocapture sret(%"std::ops::ControlFlow<std::result::Result<std::convert::Infallible, solana_program::program_error::ProgramError>, state::Account>") dereferenceable(184) %_3, %"std::result::Result<state::Account, solana_program::program_error::ProgramError>"* noalias nocapture dereferenceable(184) %_4), !dbg !1017
  br label %bb2, !dbg !1017

bb2:                                              ; preds = %bb1
  %3 = bitcast %"std::ops::ControlFlow<std::result::Result<std::convert::Infallible, solana_program::program_error::ProgramError>, state::Account>"* %_3 to i64*, !dbg !1017
  %_6 = load i64, i64* %3, align 8, !dbg !1017, !range !992
  switch i64 %_6, label %bb4 [
    i64 0, label %bb3
    i64 1, label %bb5
  ], !dbg !1017

bb4:                                              ; preds = %bb2
  unreachable, !dbg !1017

bb3:                                              ; preds = %bb2
  %4 = bitcast %"std::ops::ControlFlow<std::result::Result<std::convert::Infallible, solana_program::program_error::ProgramError>, state::Account>"* %_3 to %"std::ops::ControlFlow<std::result::Result<std::convert::Infallible, solana_program::program_error::ProgramError>, state::Account>::Continue"*, !dbg !1017
  %5 = getelementptr inbounds %"std::ops::ControlFlow<std::result::Result<std::convert::Infallible, solana_program::program_error::ProgramError>, state::Account>::Continue", %"std::ops::ControlFlow<std::result::Result<std::convert::Infallible, solana_program::program_error::ProgramError>, state::Account>::Continue"* %4, i32 0, i32 1, !dbg !1017
  %6 = bitcast %"state::Account"* %val to i8*, !dbg !1017
  %7 = bitcast %"state::Account"* %5 to i8*, !dbg !1017
  call void @llvm.memcpy.p0i8.p0i8.i64(i8* align 8 %6, i8* align 8 %7, i64 176, i1 false), !dbg !1017
  store i8 1, i8* %_14, align 1, !dbg !1015
  %8 = bitcast %"state::Account"* %value to i8*, !dbg !1015
  %9 = bitcast %"state::Account"* %val to i8*, !dbg !1015
  call void @llvm.memcpy.p0i8.p0i8.i64(i8* align 8 %8, i8* align 8 %9, i64 176, i1 false), !dbg !1015
; call <spl_token::state::Account as solana_program::program_pack::IsInitialized>::is_initialized
  %_10 = call zeroext i1 @"_ZN89_$LT$spl_token..state..Account$u20$as$u20$solana_program..program_pack..IsInitialized$GT$14is_initialized17hf9d3ad21ee0cfdaaE"(%"state::Account"* align 8 dereferenceable(176) %value), !dbg !1018
  br label %bb7, !dbg !1018

bb5:                                              ; preds = %bb2
  %10 = bitcast %"std::ops::ControlFlow<std::result::Result<std::convert::Infallible, solana_program::program_error::ProgramError>, state::Account>"* %_3 to %"std::ops::ControlFlow<std::result::Result<std::convert::Infallible, solana_program::program_error::ProgramError>, state::Account>::Break"*, !dbg !1019
  %11 = getelementptr inbounds %"std::ops::ControlFlow<std::result::Result<std::convert::Infallible, solana_program::program_error::ProgramError>, state::Account>::Break", %"std::ops::ControlFlow<std::result::Result<std::convert::Infallible, solana_program::program_error::ProgramError>, state::Account>::Break"* %10, i32 0, i32 1, !dbg !1019
  %12 = bitcast %"std::result::Result<std::convert::Infallible, solana_program::program_error::ProgramError>::Err"* %residual to i8*, !dbg !1019
  %13 = bitcast %"std::result::Result<std::convert::Infallible, solana_program::program_error::ProgramError>::Err"* %11 to i8*, !dbg !1019
  call void @llvm.memcpy.p0i8.p0i8.i64(i8* align 8 %12, i8* align 8 %13, i64 32, i1 false), !dbg !1019
  %14 = bitcast %"std::result::Result<std::convert::Infallible, solana_program::program_error::ProgramError>::Err"* %_8 to i8*, !dbg !1014
  %15 = bitcast %"std::result::Result<std::convert::Infallible, solana_program::program_error::ProgramError>::Err"* %residual to i8*, !dbg !1014
  call void @llvm.memcpy.p0i8.p0i8.i64(i8* align 8 %14, i8* align 8 %15, i64 32, i1 false), !dbg !1014
; call <core::result::Result<T,F> as core::ops::try_trait::FromResidual<core::result::Result<core::convert::Infallible,E>>>::from_residual
  call void @"_ZN153_$LT$core..result..Result$LT$T$C$F$GT$$u20$as$u20$core..ops..try_trait..FromResidual$LT$core..result..Result$LT$core..convert..Infallible$C$E$GT$$GT$$GT$13from_residual17h84589c4bbdbf3f2dE"(%"std::result::Result<state::Account, solana_program::program_error::ProgramError>"* noalias nocapture sret(%"std::result::Result<state::Account, solana_program::program_error::ProgramError>") dereferenceable(184) %0, %"std::result::Result<std::convert::Infallible, solana_program::program_error::ProgramError>::Err"* noalias nocapture dereferenceable(32) %_8), !dbg !1020
  br label %bb6, !dbg !1020

bb6:                                              ; preds = %bb5
  store i8 0, i8* %_14, align 1, !dbg !1021
  br label %bb12, !dbg !1022

bb12:                                             ; preds = %bb11, %bb6
  ret void, !dbg !1022

bb7:                                              ; preds = %bb3
  br i1 %_10, label %bb8, label %bb9, !dbg !1018

bb9:                                              ; preds = %bb7
  %16 = bitcast %"solana_program::program_error::ProgramError"* %_13 to i32*, !dbg !1023
  store i32 9, i32* %16, align 8, !dbg !1023
  %17 = bitcast %"std::result::Result<state::Account, solana_program::program_error::ProgramError>"* %0 to %"std::result::Result<state::Account, solana_program::program_error::ProgramError>::Err"*, !dbg !1024
  %18 = getelementptr inbounds %"std::result::Result<state::Account, solana_program::program_error::ProgramError>::Err", %"std::result::Result<state::Account, solana_program::program_error::ProgramError>::Err"* %17, i32 0, i32 1, !dbg !1024
  %19 = bitcast %"solana_program::program_error::ProgramError"* %18 to i8*, !dbg !1024
  %20 = bitcast %"solana_program::program_error::ProgramError"* %_13 to i8*, !dbg !1024
  call void @llvm.memcpy.p0i8.p0i8.i64(i8* align 8 %19, i8* align 8 %20, i64 32, i1 false), !dbg !1024
  %21 = bitcast %"std::result::Result<state::Account, solana_program::program_error::ProgramError>"* %0 to i64*, !dbg !1024
  store i64 1, i64* %21, align 8, !dbg !1024
  br label %bb10, !dbg !1025

bb8:                                              ; preds = %bb7
  store i8 0, i8* %_14, align 1, !dbg !1026
  %22 = bitcast %"state::Account"* %_12 to i8*, !dbg !1026
  %23 = bitcast %"state::Account"* %value to i8*, !dbg !1026
  call void @llvm.memcpy.p0i8.p0i8.i64(i8* align 8 %22, i8* align 8 %23, i64 176, i1 false), !dbg !1026
  %24 = bitcast %"std::result::Result<state::Account, solana_program::program_error::ProgramError>"* %0 to %"std::result::Result<state::Account, solana_program::program_error::ProgramError>::Ok"*, !dbg !1027
  %25 = getelementptr inbounds %"std::result::Result<state::Account, solana_program::program_error::ProgramError>::Ok", %"std::result::Result<state::Account, solana_program::program_error::ProgramError>::Ok"* %24, i32 0, i32 1, !dbg !1027
  %26 = bitcast %"state::Account"* %25 to i8*, !dbg !1027
  %27 = bitcast %"state::Account"* %_12 to i8*, !dbg !1027
  call void @llvm.memcpy.p0i8.p0i8.i64(i8* align 8 %26, i8* align 8 %27, i64 176, i1 false), !dbg !1027
  %28 = bitcast %"std::result::Result<state::Account, solana_program::program_error::ProgramError>"* %0 to i64*, !dbg !1027
  store i64 0, i64* %28, align 8, !dbg !1027
  br label %bb10, !dbg !1025

bb10:                                             ; preds = %bb9, %bb8
  %29 = load i8, i8* %_14, align 1, !dbg !1021, !range !257
  %30 = trunc i8 %29 to i1, !dbg !1021
  br i1 %30, label %bb13, label %bb11, !dbg !1021

bb11:                                             ; preds = %bb13, %bb10
  store i8 0, i8* %_14, align 1, !dbg !1021
  br label %bb12, !dbg !1022

bb13:                                             ; preds = %bb10
  br label %bb11, !dbg !1021
}

; solana_program::program_pack::Pack::unpack
; Function Attrs: nounwind
define void @_ZN14solana_program12program_pack4Pack6unpack17ha9eb56216a98f9caE(%"std::result::Result<state::Multisig, solana_program::program_error::ProgramError>"* noalias nocapture sret(%"std::result::Result<state::Multisig, solana_program::program_error::ProgramError>") dereferenceable(360) %0, [0 x i8]* nonnull align 1 %input.0, i64 %input.1) unnamed_addr #0 !dbg !1028 {
start:
  %input.dbg.spill = alloca { [0 x i8]*, i64 }, align 8
  %_14 = alloca i8, align 1
  %_13 = alloca %"solana_program::program_error::ProgramError", align 8
  %_12 = alloca %"state::Multisig", align 1
  %val = alloca %"state::Multisig", align 1
  %_8 = alloca %"std::result::Result<std::convert::Infallible, solana_program::program_error::ProgramError>::Err", align 8
  %residual = alloca %"std::result::Result<std::convert::Infallible, solana_program::program_error::ProgramError>::Err", align 8
  %_4 = alloca %"std::result::Result<state::Multisig, solana_program::program_error::ProgramError>", align 8
  %_3 = alloca %"std::ops::ControlFlow<std::result::Result<std::convert::Infallible, solana_program::program_error::ProgramError>, state::Multisig>", align 8
  %value = alloca %"state::Multisig", align 1
  %1 = getelementptr inbounds { [0 x i8]*, i64 }, { [0 x i8]*, i64 }* %input.dbg.spill, i32 0, i32 0
  store [0 x i8]* %input.0, [0 x i8]** %1, align 8
  %2 = getelementptr inbounds { [0 x i8]*, i64 }, { [0 x i8]*, i64 }* %input.dbg.spill, i32 0, i32 1
  store i64 %input.1, i64* %2, align 8
  call void @llvm.dbg.declare(metadata { [0 x i8]*, i64 }* %input.dbg.spill, metadata !1030, metadata !DIExpression()), !dbg !1037
  call void @llvm.dbg.declare(metadata %"state::Multisig"* %value, metadata !1031, metadata !DIExpression()), !dbg !1038
  call void @llvm.dbg.declare(metadata %"std::result::Result<std::convert::Infallible, solana_program::program_error::ProgramError>::Err"* %residual, metadata !1033, metadata !DIExpression()), !dbg !1039
  call void @llvm.dbg.declare(metadata %"state::Multisig"* %val, metadata !1035, metadata !DIExpression()), !dbg !1040
  store i8 0, i8* %_14, align 1, !dbg !1041
; call solana_program::program_pack::Pack::unpack_unchecked
  call void @_ZN14solana_program12program_pack4Pack16unpack_unchecked17h770e44ce58978ad0E(%"std::result::Result<state::Multisig, solana_program::program_error::ProgramError>"* noalias nocapture sret(%"std::result::Result<state::Multisig, solana_program::program_error::ProgramError>") dereferenceable(360) %_4, [0 x i8]* nonnull align 1 %input.0, i64 %input.1), !dbg !1042
  br label %bb1, !dbg !1042

bb1:                                              ; preds = %start
; call <core::result::Result<T,E> as core::ops::try_trait::Try>::branch
  call void @"_ZN79_$LT$core..result..Result$LT$T$C$E$GT$$u20$as$u20$core..ops..try_trait..Try$GT$6branch17h137c9820cdf20c57E"(%"std::ops::ControlFlow<std::result::Result<std::convert::Infallible, solana_program::program_error::ProgramError>, state::Multisig>"* noalias nocapture sret(%"std::ops::ControlFlow<std::result::Result<std::convert::Infallible, solana_program::program_error::ProgramError>, state::Multisig>") dereferenceable(360) %_3, %"std::result::Result<state::Multisig, solana_program::program_error::ProgramError>"* noalias nocapture dereferenceable(360) %_4), !dbg !1042
  br label %bb2, !dbg !1042

bb2:                                              ; preds = %bb1
  %3 = bitcast %"std::ops::ControlFlow<std::result::Result<std::convert::Infallible, solana_program::program_error::ProgramError>, state::Multisig>"* %_3 to i8*, !dbg !1042
  %4 = load i8, i8* %3, align 8, !dbg !1042, !range !257
  %5 = trunc i8 %4 to i1, !dbg !1042
  %_6 = zext i1 %5 to i64, !dbg !1042
  switch i64 %_6, label %bb4 [
    i64 0, label %bb3
    i64 1, label %bb5
  ], !dbg !1042

bb4:                                              ; preds = %bb2
  unreachable, !dbg !1042

bb3:                                              ; preds = %bb2
  %6 = bitcast %"std::ops::ControlFlow<std::result::Result<std::convert::Infallible, solana_program::program_error::ProgramError>, state::Multisig>"* %_3 to %"std::ops::ControlFlow<std::result::Result<std::convert::Infallible, solana_program::program_error::ProgramError>, state::Multisig>::Continue"*, !dbg !1042
  %7 = getelementptr inbounds %"std::ops::ControlFlow<std::result::Result<std::convert::Infallible, solana_program::program_error::ProgramError>, state::Multisig>::Continue", %"std::ops::ControlFlow<std::result::Result<std::convert::Infallible, solana_program::program_error::ProgramError>, state::Multisig>::Continue"* %6, i32 0, i32 1, !dbg !1042
  %8 = bitcast %"state::Multisig"* %val to i8*, !dbg !1042
  %9 = bitcast %"state::Multisig"* %7 to i8*, !dbg !1042
  call void @llvm.memcpy.p0i8.p0i8.i64(i8* align 1 %8, i8* align 1 %9, i64 355, i1 false), !dbg !1042
  store i8 1, i8* %_14, align 1, !dbg !1040
  %10 = bitcast %"state::Multisig"* %value to i8*, !dbg !1040
  %11 = bitcast %"state::Multisig"* %val to i8*, !dbg !1040
  call void @llvm.memcpy.p0i8.p0i8.i64(i8* align 1 %10, i8* align 1 %11, i64 355, i1 false), !dbg !1040
; call <spl_token::state::Multisig as solana_program::program_pack::IsInitialized>::is_initialized
  %_10 = call zeroext i1 @"_ZN90_$LT$spl_token..state..Multisig$u20$as$u20$solana_program..program_pack..IsInitialized$GT$14is_initialized17h5d79ba9355d63beaE"(%"state::Multisig"* align 1 dereferenceable(355) %value), !dbg !1043
  br label %bb7, !dbg !1043

bb5:                                              ; preds = %bb2
  %12 = bitcast %"std::ops::ControlFlow<std::result::Result<std::convert::Infallible, solana_program::program_error::ProgramError>, state::Multisig>"* %_3 to %"std::ops::ControlFlow<std::result::Result<std::convert::Infallible, solana_program::program_error::ProgramError>, state::Multisig>::Break"*, !dbg !1044
  %13 = getelementptr inbounds %"std::ops::ControlFlow<std::result::Result<std::convert::Infallible, solana_program::program_error::ProgramError>, state::Multisig>::Break", %"std::ops::ControlFlow<std::result::Result<std::convert::Infallible, solana_program::program_error::ProgramError>, state::Multisig>::Break"* %12, i32 0, i32 1, !dbg !1044
  %14 = bitcast %"std::result::Result<std::convert::Infallible, solana_program::program_error::ProgramError>::Err"* %residual to i8*, !dbg !1044
  %15 = bitcast %"std::result::Result<std::convert::Infallible, solana_program::program_error::ProgramError>::Err"* %13 to i8*, !dbg !1044
  call void @llvm.memcpy.p0i8.p0i8.i64(i8* align 8 %14, i8* align 8 %15, i64 32, i1 false), !dbg !1044
  %16 = bitcast %"std::result::Result<std::convert::Infallible, solana_program::program_error::ProgramError>::Err"* %_8 to i8*, !dbg !1039
  %17 = bitcast %"std::result::Result<std::convert::Infallible, solana_program::program_error::ProgramError>::Err"* %residual to i8*, !dbg !1039
  call void @llvm.memcpy.p0i8.p0i8.i64(i8* align 8 %16, i8* align 8 %17, i64 32, i1 false), !dbg !1039
; call <core::result::Result<T,F> as core::ops::try_trait::FromResidual<core::result::Result<core::convert::Infallible,E>>>::from_residual
  call void @"_ZN153_$LT$core..result..Result$LT$T$C$F$GT$$u20$as$u20$core..ops..try_trait..FromResidual$LT$core..result..Result$LT$core..convert..Infallible$C$E$GT$$GT$$GT$13from_residual17hd0f448e972ffe0daE"(%"std::result::Result<state::Multisig, solana_program::program_error::ProgramError>"* noalias nocapture sret(%"std::result::Result<state::Multisig, solana_program::program_error::ProgramError>") dereferenceable(360) %0, %"std::result::Result<std::convert::Infallible, solana_program::program_error::ProgramError>::Err"* noalias nocapture dereferenceable(32) %_8), !dbg !1045
  br label %bb6, !dbg !1045

bb6:                                              ; preds = %bb5
  store i8 0, i8* %_14, align 1, !dbg !1046
  br label %bb12, !dbg !1047

bb12:                                             ; preds = %bb11, %bb6
  ret void, !dbg !1047

bb7:                                              ; preds = %bb3
  br i1 %_10, label %bb8, label %bb9, !dbg !1043

bb9:                                              ; preds = %bb7
  %18 = bitcast %"solana_program::program_error::ProgramError"* %_13 to i32*, !dbg !1048
  store i32 9, i32* %18, align 8, !dbg !1048
  %19 = bitcast %"std::result::Result<state::Multisig, solana_program::program_error::ProgramError>"* %0 to %"std::result::Result<state::Multisig, solana_program::program_error::ProgramError>::Err"*, !dbg !1049
  %20 = getelementptr inbounds %"std::result::Result<state::Multisig, solana_program::program_error::ProgramError>::Err", %"std::result::Result<state::Multisig, solana_program::program_error::ProgramError>::Err"* %19, i32 0, i32 1, !dbg !1049
  %21 = bitcast %"solana_program::program_error::ProgramError"* %20 to i8*, !dbg !1049
  %22 = bitcast %"solana_program::program_error::ProgramError"* %_13 to i8*, !dbg !1049
  call void @llvm.memcpy.p0i8.p0i8.i64(i8* align 8 %21, i8* align 8 %22, i64 32, i1 false), !dbg !1049
  %23 = bitcast %"std::result::Result<state::Multisig, solana_program::program_error::ProgramError>"* %0 to i8*, !dbg !1049
  store i8 1, i8* %23, align 8, !dbg !1049
  br label %bb10, !dbg !1050

bb8:                                              ; preds = %bb7
  store i8 0, i8* %_14, align 1, !dbg !1051
  %24 = bitcast %"state::Multisig"* %_12 to i8*, !dbg !1051
  %25 = bitcast %"state::Multisig"* %value to i8*, !dbg !1051
  call void @llvm.memcpy.p0i8.p0i8.i64(i8* align 1 %24, i8* align 1 %25, i64 355, i1 false), !dbg !1051
  %26 = bitcast %"std::result::Result<state::Multisig, solana_program::program_error::ProgramError>"* %0 to %"std::result::Result<state::Multisig, solana_program::program_error::ProgramError>::Ok"*, !dbg !1052
  %27 = getelementptr inbounds %"std::result::Result<state::Multisig, solana_program::program_error::ProgramError>::Ok", %"std::result::Result<state::Multisig, solana_program::program_error::ProgramError>::Ok"* %26, i32 0, i32 1, !dbg !1052
  %28 = bitcast %"state::Multisig"* %27 to i8*, !dbg !1052
  %29 = bitcast %"state::Multisig"* %_12 to i8*, !dbg !1052
  call void @llvm.memcpy.p0i8.p0i8.i64(i8* align 1 %28, i8* align 1 %29, i64 355, i1 false), !dbg !1052
  %30 = bitcast %"std::result::Result<state::Multisig, solana_program::program_error::ProgramError>"* %0 to i8*, !dbg !1052
  store i8 0, i8* %30, align 8, !dbg !1052
  br label %bb10, !dbg !1050

bb10:                                             ; preds = %bb9, %bb8
  %31 = load i8, i8* %_14, align 1, !dbg !1046, !range !257
  %32 = trunc i8 %31 to i1, !dbg !1046
  br i1 %32, label %bb13, label %bb11, !dbg !1046

bb11:                                             ; preds = %bb13, %bb10
  store i8 0, i8* %_14, align 1, !dbg !1046
  br label %bb12, !dbg !1047

bb13:                                             ; preds = %bb10
  br label %bb11, !dbg !1046
}

; solana_program::program_memory::sol_memcmp
; Function Attrs: inlinehint nounwind
define internal i32 @_ZN14solana_program14program_memory10sol_memcmp17h7e4a4e30bf87176eE([0 x i8]* nonnull align 1 %s1.0, i64 %s1.1, [0 x i8]* nonnull align 1 %s2.0, i64 %s2.1, i64 %n) unnamed_addr #1 !dbg !1053 {
start:
  %n.dbg.spill = alloca i64, align 8
  %s2.dbg.spill = alloca { [0 x i8]*, i64 }, align 8
  %s1.dbg.spill = alloca { [0 x i8]*, i64 }, align 8
  %result = alloca i32, align 4
  call void @llvm.dbg.declare(metadata i32* %result, metadata !1062, metadata !DIExpression()), !dbg !1064
  %0 = getelementptr inbounds { [0 x i8]*, i64 }, { [0 x i8]*, i64 }* %s1.dbg.spill, i32 0, i32 0
  store [0 x i8]* %s1.0, [0 x i8]** %0, align 8
  %1 = getelementptr inbounds { [0 x i8]*, i64 }, { [0 x i8]*, i64 }* %s1.dbg.spill, i32 0, i32 1
  store i64 %s1.1, i64* %1, align 8
  call void @llvm.dbg.declare(metadata { [0 x i8]*, i64 }* %s1.dbg.spill, metadata !1059, metadata !DIExpression()), !dbg !1065
  %2 = getelementptr inbounds { [0 x i8]*, i64 }, { [0 x i8]*, i64 }* %s2.dbg.spill, i32 0, i32 0
  store [0 x i8]* %s2.0, [0 x i8]** %2, align 8
  %3 = getelementptr inbounds { [0 x i8]*, i64 }, { [0 x i8]*, i64 }* %s2.dbg.spill, i32 0, i32 1
  store i64 %s2.1, i64* %3, align 8
  call void @llvm.dbg.declare(metadata { [0 x i8]*, i64 }* %s2.dbg.spill, metadata !1060, metadata !DIExpression()), !dbg !1066
  store i64 %n, i64* %n.dbg.spill, align 8
  call void @llvm.dbg.declare(metadata i64* %n.dbg.spill, metadata !1061, metadata !DIExpression()), !dbg !1067
  store i32 0, i32* %result, align 4, !dbg !1068
; call core::slice::<impl [T]>::as_ptr
  %_5 = call i8* @"_ZN4core5slice29_$LT$impl$u20$$u5b$T$u5d$$GT$6as_ptr17h2ff3538276d711c7E"([0 x i8]* nonnull align 1 %s1.0, i64 %s1.1), !dbg !1069
  br label %bb1, !dbg !1069

bb1:                                              ; preds = %start
; call core::slice::<impl [T]>::as_ptr
  %_7 = call i8* @"_ZN4core5slice29_$LT$impl$u20$$u5b$T$u5d$$GT$6as_ptr17h2ff3538276d711c7E"([0 x i8]* nonnull align 1 %s2.0, i64 %s2.1), !dbg !1070
  br label %bb2, !dbg !1070

bb2:                                              ; preds = %bb1
  call void @sol_memcmp_(i8* %_5, i8* %_7, i64 %n, i32* %result), !dbg !1071
  br label %bb3, !dbg !1071

bb3:                                              ; preds = %bb2
  %4 = load i32, i32* %result, align 4, !dbg !1072
  ret i32 %4, !dbg !1072
}

; solana_program::program_memory::sol_memset
; Function Attrs: inlinehint nounwind
define internal void @_ZN14solana_program14program_memory10sol_memset17h904adcd22a7feb24E([0 x i8]* nonnull align 1 %s.0, i64 %s.1, i8 %c, i64 %n) unnamed_addr #1 !dbg !1073 {
start:
  %n.dbg.spill = alloca i64, align 8
  %c.dbg.spill = alloca i8, align 1
  %s.dbg.spill = alloca { [0 x i8]*, i64 }, align 8
  %0 = getelementptr inbounds { [0 x i8]*, i64 }, { [0 x i8]*, i64 }* %s.dbg.spill, i32 0, i32 0
  store [0 x i8]* %s.0, [0 x i8]** %0, align 8
  %1 = getelementptr inbounds { [0 x i8]*, i64 }, { [0 x i8]*, i64 }* %s.dbg.spill, i32 0, i32 1
  store i64 %s.1, i64* %1, align 8
  call void @llvm.dbg.declare(metadata { [0 x i8]*, i64 }* %s.dbg.spill, metadata !1077, metadata !DIExpression()), !dbg !1080
  store i8 %c, i8* %c.dbg.spill, align 1
  call void @llvm.dbg.declare(metadata i8* %c.dbg.spill, metadata !1078, metadata !DIExpression()), !dbg !1081
  store i64 %n, i64* %n.dbg.spill, align 8
  call void @llvm.dbg.declare(metadata i64* %n.dbg.spill, metadata !1079, metadata !DIExpression()), !dbg !1082
; call core::slice::<impl [T]>::as_mut_ptr
  %_5 = call i8* @"_ZN4core5slice29_$LT$impl$u20$$u5b$T$u5d$$GT$10as_mut_ptr17h6e113aa66d3f0dcfE"([0 x i8]* nonnull align 1 %s.0, i64 %s.1), !dbg !1083
  br label %bb1, !dbg !1083

bb1:                                              ; preds = %start
  call void @sol_memset_(i8* %_5, i8 zeroext %c, i64 %n), !dbg !1084
  br label %bb2, !dbg !1084

bb2:                                              ; preds = %bb1
  ret void, !dbg !1085
}

; solana_program::program_option::COption<T>::ok_or
; Function Attrs: inlinehint nounwind
define void @"_ZN14solana_program14program_option16COption$LT$T$GT$5ok_or17h2a9e9f8af7f511deE"(%"std::result::Result<solana_program::pubkey::Pubkey, solana_program::program_error::ProgramError>"* noalias nocapture sret(%"std::result::Result<solana_program::pubkey::Pubkey, solana_program::program_error::ProgramError>") dereferenceable(40) %0, %"solana_program::program_option::COption<solana_program::pubkey::Pubkey>"* noalias nocapture dereferenceable(36) %self, %"solana_program::program_error::ProgramError"* noalias nocapture dereferenceable(32) %err) unnamed_addr #1 !dbg !1086 {
start:
  %_7 = alloca i8, align 1
  %_6 = alloca %"solana_program::program_error::ProgramError", align 8
  %_5 = alloca %"solana_program::pubkey::Pubkey", align 1
  %v = alloca %"solana_program::pubkey::Pubkey", align 1
  call void @llvm.dbg.declare(metadata %"solana_program::program_option::COption<solana_program::pubkey::Pubkey>"* %self, metadata !1103, metadata !DIExpression()), !dbg !1107
  call void @llvm.dbg.declare(metadata %"solana_program::program_error::ProgramError"* %err, metadata !1104, metadata !DIExpression()), !dbg !1108
  call void @llvm.dbg.declare(metadata %"solana_program::pubkey::Pubkey"* %v, metadata !1105, metadata !DIExpression()), !dbg !1109
  store i8 0, i8* %_7, align 1, !dbg !1110
  store i8 1, i8* %_7, align 1, !dbg !1110
  %1 = bitcast %"solana_program::program_option::COption<solana_program::pubkey::Pubkey>"* %self to i32*, !dbg !1110
  %2 = load i32, i32* %1, align 4, !dbg !1110, !range !1111
  %_3 = zext i32 %2 to i64, !dbg !1110
  switch i64 %_3, label %bb2 [
    i64 0, label %bb1
    i64 1, label %bb3
  ], !dbg !1112

bb2:                                              ; preds = %start
  unreachable, !dbg !1110

bb1:                                              ; preds = %start
  store i8 0, i8* %_7, align 1, !dbg !1113
  %3 = bitcast %"solana_program::program_error::ProgramError"* %_6 to i8*, !dbg !1113
  %4 = bitcast %"solana_program::program_error::ProgramError"* %err to i8*, !dbg !1113
  call void @llvm.memcpy.p0i8.p0i8.i64(i8* align 8 %3, i8* align 8 %4, i64 32, i1 false), !dbg !1113
  %5 = bitcast %"std::result::Result<solana_program::pubkey::Pubkey, solana_program::program_error::ProgramError>"* %0 to %"std::result::Result<solana_program::pubkey::Pubkey, solana_program::program_error::ProgramError>::Err"*, !dbg !1114
  %6 = getelementptr inbounds %"std::result::Result<solana_program::pubkey::Pubkey, solana_program::program_error::ProgramError>::Err", %"std::result::Result<solana_program::pubkey::Pubkey, solana_program::program_error::ProgramError>::Err"* %5, i32 0, i32 1, !dbg !1114
  %7 = bitcast %"solana_program::program_error::ProgramError"* %6 to i8*, !dbg !1114
  %8 = bitcast %"solana_program::program_error::ProgramError"* %_6 to i8*, !dbg !1114
  call void @llvm.memcpy.p0i8.p0i8.i64(i8* align 8 %7, i8* align 8 %8, i64 32, i1 false), !dbg !1114
  %9 = bitcast %"std::result::Result<solana_program::pubkey::Pubkey, solana_program::program_error::ProgramError>"* %0 to i8*, !dbg !1114
  store i8 1, i8* %9, align 8, !dbg !1114
  br label %bb4, !dbg !1115

bb3:                                              ; preds = %start
  %10 = bitcast %"solana_program::program_option::COption<solana_program::pubkey::Pubkey>"* %self to %"solana_program::program_option::COption<solana_program::pubkey::Pubkey>::Some"*, !dbg !1116
  %11 = getelementptr inbounds %"solana_program::program_option::COption<solana_program::pubkey::Pubkey>::Some", %"solana_program::program_option::COption<solana_program::pubkey::Pubkey>::Some"* %10, i32 0, i32 1, !dbg !1116
  %12 = bitcast %"solana_program::pubkey::Pubkey"* %v to i8*, !dbg !1116
  %13 = bitcast %"solana_program::pubkey::Pubkey"* %11 to i8*, !dbg !1116
  call void @llvm.memcpy.p0i8.p0i8.i64(i8* align 1 %12, i8* align 4 %13, i64 32, i1 false), !dbg !1116
  %14 = bitcast %"solana_program::pubkey::Pubkey"* %_5 to i8*, !dbg !1117
  %15 = bitcast %"solana_program::pubkey::Pubkey"* %v to i8*, !dbg !1117
  call void @llvm.memcpy.p0i8.p0i8.i64(i8* align 1 %14, i8* align 1 %15, i64 32, i1 false), !dbg !1117
  %16 = bitcast %"std::result::Result<solana_program::pubkey::Pubkey, solana_program::program_error::ProgramError>"* %0 to %"std::result::Result<solana_program::pubkey::Pubkey, solana_program::program_error::ProgramError>::Ok"*, !dbg !1118
  %17 = getelementptr inbounds %"std::result::Result<solana_program::pubkey::Pubkey, solana_program::program_error::ProgramError>::Ok", %"std::result::Result<solana_program::pubkey::Pubkey, solana_program::program_error::ProgramError>::Ok"* %16, i32 0, i32 1, !dbg !1118
  %18 = bitcast %"solana_program::pubkey::Pubkey"* %17 to i8*, !dbg !1118
  %19 = bitcast %"solana_program::pubkey::Pubkey"* %_5 to i8*, !dbg !1118
  call void @llvm.memcpy.p0i8.p0i8.i64(i8* align 1 %18, i8* align 1 %19, i64 32, i1 false), !dbg !1118
  %20 = bitcast %"std::result::Result<solana_program::pubkey::Pubkey, solana_program::program_error::ProgramError>"* %0 to i8*, !dbg !1118
  store i8 0, i8* %20, align 8, !dbg !1118
  br label %bb4, !dbg !1119

bb4:                                              ; preds = %bb1, %bb3
  %21 = load i8, i8* %_7, align 1, !dbg !1120, !range !257
  %22 = trunc i8 %21 to i1, !dbg !1120
  br i1 %22, label %bb6, label %bb5, !dbg !1120

bb5:                                              ; preds = %bb6, %bb4
  ret void, !dbg !1121

bb6:                                              ; preds = %bb4
; call core::ptr::drop_in_place<solana_program::program_error::ProgramError>
  call void @"_ZN4core3ptr64drop_in_place$LT$solana_program..program_error..ProgramError$GT$17h518825f2730f8297E"(%"solana_program::program_error::ProgramError"* %err), !dbg !1120
  br label %bb5, !dbg !1120
}

; solana_program::program_option::COption<T>::is_some
; Function Attrs: inlinehint nounwind
define zeroext i1 @"_ZN14solana_program14program_option16COption$LT$T$GT$7is_some17hc00eba2ada33a04eE"({ i32, i64 }* align 8 dereferenceable(16) %self) unnamed_addr #1 !dbg !1122 {
start:
  %self.dbg.spill = alloca { i32, i64 }*, align 8
  %0 = alloca i8, align 1
  store { i32, i64 }* %self, { i32, i64 }** %self.dbg.spill, align 8
  call void @llvm.dbg.declare(metadata { i32, i64 }** %self.dbg.spill, metadata !1126, metadata !DIExpression()), !dbg !1127
  %1 = bitcast { i32, i64 }* %self to i32*, !dbg !1128
  %2 = load i32, i32* %1, align 8, !dbg !1128, !range !1111
  %_2 = zext i32 %2 to i64, !dbg !1128
  switch i64 %_2, label %bb2 [
    i64 0, label %bb1
    i64 1, label %bb3
  ], !dbg !1129

bb2:                                              ; preds = %start
  unreachable, !dbg !1128

bb1:                                              ; preds = %start
  store i8 0, i8* %0, align 1, !dbg !1130
  br label %bb4, !dbg !1130

bb3:                                              ; preds = %start
  store i8 1, i8* %0, align 1, !dbg !1131
  br label %bb4, !dbg !1131

bb4:                                              ; preds = %bb1, %bb3
  %3 = load i8, i8* %0, align 1, !dbg !1132, !range !257
  %4 = trunc i8 %3 to i1, !dbg !1132
  ret i1 %4, !dbg !1132
}

; solana_program::program_option::COption<T>::unwrap_or
; Function Attrs: inlinehint nounwind
define void @"_ZN14solana_program14program_option16COption$LT$T$GT$9unwrap_or17hc29d19d97533ea13E"(%"solana_program::pubkey::Pubkey"* noalias nocapture sret(%"solana_program::pubkey::Pubkey") dereferenceable(32) %0, %"solana_program::program_option::COption<solana_program::pubkey::Pubkey>"* noalias nocapture dereferenceable(36) %self, %"solana_program::pubkey::Pubkey"* noalias nocapture dereferenceable(32) %def) unnamed_addr #1 !dbg !1133 {
start:
  %_5 = alloca i8, align 1
  %x = alloca %"solana_program::pubkey::Pubkey", align 1
  call void @llvm.dbg.declare(metadata %"solana_program::program_option::COption<solana_program::pubkey::Pubkey>"* %self, metadata !1137, metadata !DIExpression()), !dbg !1141
  call void @llvm.dbg.declare(metadata %"solana_program::pubkey::Pubkey"* %def, metadata !1138, metadata !DIExpression()), !dbg !1142
  call void @llvm.dbg.declare(metadata %"solana_program::pubkey::Pubkey"* %x, metadata !1139, metadata !DIExpression()), !dbg !1143
  store i8 0, i8* %_5, align 1, !dbg !1144
  store i8 1, i8* %_5, align 1, !dbg !1144
  %1 = bitcast %"solana_program::program_option::COption<solana_program::pubkey::Pubkey>"* %self to i32*, !dbg !1144
  %2 = load i32, i32* %1, align 4, !dbg !1144, !range !1111
  %_3 = zext i32 %2 to i64, !dbg !1144
  switch i64 %_3, label %bb2 [
    i64 0, label %bb1
    i64 1, label %bb3
  ], !dbg !1145

bb2:                                              ; preds = %start
  unreachable, !dbg !1144

bb1:                                              ; preds = %start
  store i8 0, i8* %_5, align 1, !dbg !1146
  %3 = bitcast %"solana_program::pubkey::Pubkey"* %0 to i8*, !dbg !1146
  %4 = bitcast %"solana_program::pubkey::Pubkey"* %def to i8*, !dbg !1146
  call void @llvm.memcpy.p0i8.p0i8.i64(i8* align 1 %3, i8* align 1 %4, i64 32, i1 false), !dbg !1146
  br label %bb6, !dbg !1146

bb3:                                              ; preds = %start
  %5 = bitcast %"solana_program::program_option::COption<solana_program::pubkey::Pubkey>"* %self to %"solana_program::program_option::COption<solana_program::pubkey::Pubkey>::Some"*, !dbg !1147
  %6 = getelementptr inbounds %"solana_program::program_option::COption<solana_program::pubkey::Pubkey>::Some", %"solana_program::program_option::COption<solana_program::pubkey::Pubkey>::Some"* %5, i32 0, i32 1, !dbg !1147
  %7 = bitcast %"solana_program::pubkey::Pubkey"* %x to i8*, !dbg !1147
  %8 = bitcast %"solana_program::pubkey::Pubkey"* %6 to i8*, !dbg !1147
  call void @llvm.memcpy.p0i8.p0i8.i64(i8* align 1 %7, i8* align 4 %8, i64 32, i1 false), !dbg !1147
  %9 = bitcast %"solana_program::pubkey::Pubkey"* %0 to i8*, !dbg !1148
  %10 = bitcast %"solana_program::pubkey::Pubkey"* %x to i8*, !dbg !1148
  call void @llvm.memcpy.p0i8.p0i8.i64(i8* align 1 %9, i8* align 1 %10, i64 32, i1 false), !dbg !1148
  br label %bb6, !dbg !1149

bb6:                                              ; preds = %bb1, %bb3
  %11 = load i8, i8* %_5, align 1, !dbg !1149, !range !257
  %12 = trunc i8 %11 to i1, !dbg !1149
  br i1 %12, label %bb5, label %bb4, !dbg !1149

bb4:                                              ; preds = %bb5, %bb6
  ret void, !dbg !1150

bb5:                                              ; preds = %bb6
  br label %bb4, !dbg !1149
}

; solana_program::log::sol_log
; Function Attrs: inlinehint nounwind
define internal void @_ZN14solana_program3log7sol_log17hd1af5b11bd1ad077E([0 x i8]* nonnull align 1 %message.0, i64 %message.1) unnamed_addr #1 !dbg !1151 {
start:
  %message.dbg.spill = alloca { [0 x i8]*, i64 }, align 8
  %0 = getelementptr inbounds { [0 x i8]*, i64 }, { [0 x i8]*, i64 }* %message.dbg.spill, i32 0, i32 0
  store [0 x i8]* %message.0, [0 x i8]** %0, align 8
  %1 = getelementptr inbounds { [0 x i8]*, i64 }, { [0 x i8]*, i64 }* %message.dbg.spill, i32 0, i32 1
  store i64 %message.1, i64* %1, align 8
  call void @llvm.dbg.declare(metadata { [0 x i8]*, i64 }* %message.dbg.spill, metadata !1157, metadata !DIExpression()), !dbg !1158
; call core::str::<impl str>::as_ptr
  %_3 = call i8* @"_ZN4core3str21_$LT$impl$u20$str$GT$6as_ptr17h3530296302674cf0E"([0 x i8]* nonnull align 1 %message.0, i64 %message.1), !dbg !1159
  br label %bb1, !dbg !1159

bb1:                                              ; preds = %start
; call core::str::<impl str>::len
  %_6 = call i64 @"_ZN4core3str21_$LT$impl$u20$str$GT$3len17hb479f8edeec21a9aE"([0 x i8]* nonnull align 1 %message.0, i64 %message.1), !dbg !1160
  br label %bb2, !dbg !1160

bb2:                                              ; preds = %bb1
  call void @sol_log_(i8* %_3, i64 %_6), !dbg !1161
  br label %bb3, !dbg !1161

bb3:                                              ; preds = %bb2
  ret void, !dbg !1162
}

; solana_program::rent::_::<impl serde::de::Deserialize for solana_program::rent::Rent>::deserialize
; Function Attrs: nounwind
define void @"_ZN14solana_program4rent1_79_$LT$impl$u20$serde..de..Deserialize$u20$for$u20$solana_program..rent..Rent$GT$11deserialize17hb7673115d57de877E"(%"std::result::Result<solana_program::rent::Rent, std::boxed::Box<bincode::error::ErrorKind>>"* noalias nocapture sret(%"std::result::Result<solana_program::rent::Rent, std::boxed::Box<bincode::error::ErrorKind>>") dereferenceable(32) %0, { i8*, i64 }* align 8 dereferenceable(16) %__deserializer) unnamed_addr #0 !dbg !1163 {
start:
  %__deserializer.dbg.spill = alloca { i8*, i64 }*, align 8
  store { i8*, i64 }* %__deserializer, { i8*, i64 }** %__deserializer.dbg.spill, align 8
  call void @llvm.dbg.declare(metadata { i8*, i64 }** %__deserializer.dbg.spill, metadata !1239, metadata !DIExpression()), !dbg !1242
  %1 = load [0 x { [0 x i8]*, i64 }]*, [0 x { [0 x i8]*, i64 }]** getelementptr inbounds ({ [0 x { [0 x i8]*, i64 }]*, i64 }, { [0 x { [0 x i8]*, i64 }]*, i64 }* bitcast (<{ i8*, [8 x i8] }>* @0 to { [0 x { [0 x i8]*, i64 }]*, i64 }*), i32 0, i32 0), align 8, !dbg !1242, !nonnull !4
  %2 = load i64, i64* getelementptr inbounds ({ [0 x { [0 x i8]*, i64 }]*, i64 }, { [0 x { [0 x i8]*, i64 }]*, i64 }* bitcast (<{ i8*, [8 x i8] }>* @0 to { [0 x { [0 x i8]*, i64 }]*, i64 }*), i32 0, i32 1), align 8, !dbg !1242
; call <&mut bincode::de::Deserializer<R,O> as serde::de::Deserializer>::deserialize_struct
  call void @"_ZN94_$LT$$RF$mut$u20$bincode..de..Deserializer$LT$R$C$O$GT$$u20$as$u20$serde..de..Deserializer$GT$18deserialize_struct17hfe8b29f29531f7b7E"(%"std::result::Result<solana_program::rent::Rent, std::boxed::Box<bincode::error::ErrorKind>>"* noalias nocapture sret(%"std::result::Result<solana_program::rent::Rent, std::boxed::Box<bincode::error::ErrorKind>>") dereferenceable(32) %0, { i8*, i64 }* align 8 dereferenceable(16) %__deserializer, [0 x i8]* nonnull align 1 bitcast (<{ [4 x i8] }>* @alloc1285 to [0 x i8]*), i64 4, [0 x { [0 x i8]*, i64 }]* nonnull align 8 %1, i64 %2), !dbg !1242
  br label %bb1, !dbg !1242

bb1:                                              ; preds = %start
  ret void, !dbg !1243
}

; solana_program::sysvar::Sysvar::from_account_info
; Function Attrs: nounwind
define void @_ZN14solana_program6sysvar6Sysvar17from_account_info17hd0acb8103b83acb1E(%"std::result::Result<solana_program::rent::Rent, solana_program::program_error::ProgramError>"* noalias nocapture sret(%"std::result::Result<solana_program::rent::Rent, solana_program::program_error::ProgramError>") dereferenceable(40) %0, %"solana_program::account_info::AccountInfo"* align 8 dereferenceable(48) %account_info) unnamed_addr #0 !dbg !1244 {
start:
  %self.dbg.spill.i.i = alloca i64**, align 8
  %self.dbg.spill.i = alloca i64**, align 8
  %account_info.dbg.spill = alloca %"solana_program::account_info::AccountInfo"*, align 8
  %_13 = alloca { i64*, i64* }, align 8
  %_8 = alloca %"std::result::Result<solana_program::rent::Rent, std::boxed::Box<bincode::error::ErrorKind>>", align 8
  %_7 = alloca %"solana_program::program_error::ProgramError", align 8
  store %"solana_program::account_info::AccountInfo"* %account_info, %"solana_program::account_info::AccountInfo"** %account_info.dbg.spill, align 8
  call void @llvm.dbg.declare(metadata %"solana_program::account_info::AccountInfo"** %account_info.dbg.spill, metadata !1264, metadata !DIExpression()), !dbg !1267
; call solana_program::account_info::AccountInfo::unsigned_key
  %_5 = call align 1 dereferenceable(32) %"solana_program::pubkey::Pubkey"* @_ZN14solana_program12account_info11AccountInfo12unsigned_key17ha564bafb0f65a008E(%"solana_program::account_info::AccountInfo"* align 8 dereferenceable(48) %account_info), !dbg !1268
  br label %bb1, !dbg !1268

bb1:                                              ; preds = %start
; call solana_program::sysvar::rent::<impl solana_program::sysvar::SysvarId for solana_program::rent::Rent>::check_id
  %_3 = call zeroext i1 @"_ZN14solana_program6sysvar4rent89_$LT$impl$u20$solana_program..sysvar..SysvarId$u20$for$u20$solana_program..rent..Rent$GT$8check_id17hdbf7da6f5478d4acE"(%"solana_program::pubkey::Pubkey"* align 1 dereferenceable(32) %_5), !dbg !1269
  br label %bb2, !dbg !1269

bb2:                                              ; preds = %bb1
  %_2 = xor i1 %_3, true, !dbg !1270
  br i1 %_2, label %bb3, label %bb4, !dbg !1270

bb4:                                              ; preds = %bb2
  %_16 = getelementptr inbounds %"solana_program::account_info::AccountInfo", %"solana_program::account_info::AccountInfo"* %account_info, i32 0, i32 2, !dbg !1271
  store i64** %_16, i64*** %self.dbg.spill.i, align 8
  call void @llvm.dbg.declare(metadata i64*** %self.dbg.spill.i, metadata !1272, metadata !DIExpression()) #10, !dbg !1281
  store i64** %_16, i64*** %self.dbg.spill.i.i, align 8
  call void @llvm.dbg.declare(metadata i64*** %self.dbg.spill.i.i, metadata !1283, metadata !DIExpression()) #10, !dbg !1289
; call core::ptr::non_null::NonNull<T>::as_ref
  %1 = call align 8 dereferenceable(40) %"std::rc::RcBox<std::cell::RefCell<&mut [u8]>>"* @"_ZN4core3ptr8non_null16NonNull$LT$T$GT$6as_ref17hed0cfc1a51360b6aE"(i64** align 8 dereferenceable(8) %_16) #10, !dbg !1291
  %2 = getelementptr inbounds %"std::rc::RcBox<std::cell::RefCell<&mut [u8]>>", %"std::rc::RcBox<std::cell::RefCell<&mut [u8]>>"* %1, i32 0, i32 2, !dbg !1292
  br label %bb5, !dbg !1271

bb3:                                              ; preds = %bb2
  %3 = bitcast %"solana_program::program_error::ProgramError"* %_7 to i32*, !dbg !1293
  store i32 1, i32* %3, align 8, !dbg !1293
  %4 = bitcast %"std::result::Result<solana_program::rent::Rent, solana_program::program_error::ProgramError>"* %0 to %"std::result::Result<solana_program::rent::Rent, solana_program::program_error::ProgramError>::Err"*, !dbg !1294
  %5 = getelementptr inbounds %"std::result::Result<solana_program::rent::Rent, solana_program::program_error::ProgramError>::Err", %"std::result::Result<solana_program::rent::Rent, solana_program::program_error::ProgramError>::Err"* %4, i32 0, i32 1, !dbg !1294
  %6 = bitcast %"solana_program::program_error::ProgramError"* %5 to i8*, !dbg !1294
  %7 = bitcast %"solana_program::program_error::ProgramError"* %_7 to i8*, !dbg !1294
  call void @llvm.memcpy.p0i8.p0i8.i64(i8* align 8 %6, i8* align 8 %7, i64 32, i1 false), !dbg !1294
  %8 = bitcast %"std::result::Result<solana_program::rent::Rent, solana_program::program_error::ProgramError>"* %0 to i64*, !dbg !1294
  store i64 1, i64* %8, align 8, !dbg !1294
  br label %bb10, !dbg !1295

bb10:                                             ; preds = %bb9, %bb3
  ret void, !dbg !1295

bb5:                                              ; preds = %bb4
; call core::cell::RefCell<T>::borrow
  %9 = call { i64*, i64* } @"_ZN4core4cell16RefCell$LT$T$GT$6borrow17h7bc89da193d48bb7E"(%"std::cell::RefCell<&mut [u8]>"* align 8 dereferenceable(24) %2, %"std::panic::Location"* align 8 dereferenceable(24) bitcast (<{ i8*, [16 x i8] }>* @alloc1287 to %"std::panic::Location"*)), !dbg !1271
  store { i64*, i64* } %9, { i64*, i64* }* %_13, align 8, !dbg !1271
  br label %bb6, !dbg !1271

bb6:                                              ; preds = %bb5
; call <core::cell::Ref<T> as core::ops::deref::Deref>::deref
  %_10 = call align 8 dereferenceable(16) { [0 x i8]*, i64 }* @"_ZN68_$LT$core..cell..Ref$LT$T$GT$$u20$as$u20$core..ops..deref..Deref$GT$5deref17h381666b55601a099E"({ i64*, i64* }* align 8 dereferenceable(16) %_13), !dbg !1296
  br label %bb7, !dbg !1296

bb7:                                              ; preds = %bb6
  %10 = getelementptr inbounds { [0 x i8]*, i64 }, { [0 x i8]*, i64 }* %_10, i32 0, i32 0, !dbg !1296
  %_9.0 = load [0 x i8]*, [0 x i8]** %10, align 8, !dbg !1296, !nonnull !4
  %11 = getelementptr inbounds { [0 x i8]*, i64 }, { [0 x i8]*, i64 }* %_10, i32 0, i32 1, !dbg !1296
  %_9.1 = load i64, i64* %11, align 8, !dbg !1296
; call bincode::deserialize
  call void @_ZN7bincode11deserialize17hb710524525f51063E(%"std::result::Result<solana_program::rent::Rent, std::boxed::Box<bincode::error::ErrorKind>>"* noalias nocapture sret(%"std::result::Result<solana_program::rent::Rent, std::boxed::Box<bincode::error::ErrorKind>>") dereferenceable(32) %_8, [0 x i8]* nonnull align 1 %_9.0, i64 %_9.1), !dbg !1297
  br label %bb8, !dbg !1297

bb8:                                              ; preds = %bb7
; call core::result::Result<T,E>::map_err
  call void @"_ZN4core6result19Result$LT$T$C$E$GT$7map_err17h025a3874c55b5317E"(%"std::result::Result<solana_program::rent::Rent, solana_program::program_error::ProgramError>"* noalias nocapture sret(%"std::result::Result<solana_program::rent::Rent, solana_program::program_error::ProgramError>") dereferenceable(40) %0, %"std::result::Result<solana_program::rent::Rent, std::boxed::Box<bincode::error::ErrorKind>>"* noalias nocapture dereferenceable(32) %_8), !dbg !1297
  br label %bb9, !dbg !1297

bb9:                                              ; preds = %bb8
; call core::ptr::drop_in_place<core::cell::Ref<&mut [u8]>>
  call void @"_ZN4core3ptr68drop_in_place$LT$core..cell..Ref$LT$$RF$mut$u20$$u5b$u8$u5d$$GT$$GT$17h731f5997a572598fE"({ i64*, i64* }* %_13), !dbg !1298
  br label %bb10, !dbg !1298
}

; solana_program::sysvar::Sysvar::from_account_info::{{closure}}
; Function Attrs: inlinehint nounwind
define void @"_ZN14solana_program6sysvar6Sysvar17from_account_info28_$u7b$$u7b$closure$u7d$$u7d$17h173cf9af060e1d0cE"(%"solana_program::program_error::ProgramError"* noalias nocapture sret(%"solana_program::program_error::ProgramError") dereferenceable(32) %0, %"bincode::error::ErrorKind"* noalias nonnull align 8 %1) unnamed_addr #1 !dbg !1299 {
start:
  %_1.dbg.spill = alloca %"[closure@<solana_program::rent::Rent as solana_program::sysvar::Sysvar>::from_account_info::{closure#0}]", align 1
  %_2 = alloca %"bincode::error::ErrorKind"*, align 8
  store %"bincode::error::ErrorKind"* %1, %"bincode::error::ErrorKind"** %_2, align 8
  call void @llvm.dbg.declare(metadata %"[closure@<solana_program::rent::Rent as solana_program::sysvar::Sysvar>::from_account_info::{closure#0}]"* %_1.dbg.spill, metadata !1305, metadata !DIExpression()), !dbg !1307
  call void @llvm.dbg.declare(metadata %"bincode::error::ErrorKind"** %_2, metadata !1306, metadata !DIExpression()), !dbg !1308
  %2 = bitcast %"solana_program::program_error::ProgramError"* %0 to i32*, !dbg !1309
  store i32 1, i32* %2, align 8, !dbg !1309
; call core::ptr::drop_in_place<alloc::boxed::Box<bincode::error::ErrorKind>>
  call void @"_ZN4core3ptr71drop_in_place$LT$alloc..boxed..Box$LT$bincode..error..ErrorKind$GT$$GT$17h7c36edb9f7e7d849E"(%"bincode::error::ErrorKind"** %_2), !dbg !1310
  br label %bb1, !dbg !1310

bb1:                                              ; preds = %start
  ret void, !dbg !1311
}

; <core::result::Result<T,F> as core::ops::try_trait::FromResidual<core::result::Result<core::convert::Infallible,E>>>::from_residual
; Function Attrs: inlinehint nounwind
define void @"_ZN153_$LT$core..result..Result$LT$T$C$F$GT$$u20$as$u20$core..ops..try_trait..FromResidual$LT$core..result..Result$LT$core..convert..Infallible$C$E$GT$$GT$$GT$13from_residual17h01cb83864d7a346cE"(%"std::result::Result<(), solana_program::program_error::ProgramError>"* noalias nocapture sret(%"std::result::Result<(), solana_program::program_error::ProgramError>") dereferenceable(32) %0, i8 %1) unnamed_addr #1 !dbg !1312 {
start:
  %e.dbg.spill = alloca i8, align 1
  %_3 = alloca %"solana_program::program_error::ProgramError", align 8
  %residual = alloca i8, align 1
  store i8 %1, i8* %residual, align 1
  call void @llvm.dbg.declare(metadata i8* %residual, metadata !1328, metadata !DIExpression()), !dbg !1333
  %e = load i8, i8* %residual, align 1, !dbg !1334, !range !1335
  store i8 %e, i8* %e.dbg.spill, align 1, !dbg !1334
  call void @llvm.dbg.declare(metadata i8* %e.dbg.spill, metadata !1329, metadata !DIExpression()), !dbg !1336
; call spl_token::error::<impl core::convert::From<spl_token::error::TokenError> for solana_program::program_error::ProgramError>::from
  call void @"_ZN9spl_token5error129_$LT$impl$u20$core..convert..From$LT$spl_token..error..TokenError$GT$$u20$for$u20$solana_program..program_error..ProgramError$GT$4from17h57a95068a194da07E"(%"solana_program::program_error::ProgramError"* noalias nocapture sret(%"solana_program::program_error::ProgramError") dereferenceable(32) %_3, i8 %e), !dbg !1337
  br label %bb1, !dbg !1337

bb1:                                              ; preds = %start
  %2 = bitcast %"std::result::Result<(), solana_program::program_error::ProgramError>"* %0 to %"std::result::Result<(), solana_program::program_error::ProgramError>::Err"*, !dbg !1338
  %3 = bitcast %"std::result::Result<(), solana_program::program_error::ProgramError>::Err"* %2 to %"solana_program::program_error::ProgramError"*, !dbg !1338
  %4 = bitcast %"solana_program::program_error::ProgramError"* %3 to i8*, !dbg !1338
  %5 = bitcast %"solana_program::program_error::ProgramError"* %_3 to i8*, !dbg !1338
  call void @llvm.memcpy.p0i8.p0i8.i64(i8* align 8 %4, i8* align 8 %5, i64 32, i1 false), !dbg !1338
  ret void, !dbg !1339
}

; <core::result::Result<T,F> as core::ops::try_trait::FromResidual<core::result::Result<core::convert::Infallible,E>>>::from_residual
; Function Attrs: inlinehint nounwind
define i128 @"_ZN153_$LT$core..result..Result$LT$T$C$F$GT$$u20$as$u20$core..ops..try_trait..FromResidual$LT$core..result..Result$LT$core..convert..Infallible$C$E$GT$$GT$$GT$13from_residual17h17467ef7c5c03a6dE"(i128 %0) unnamed_addr #1 !dbg !1340 {
start:
  %_4 = alloca %"std::io::Error", align 8
  %e = alloca %"std::io::Error", align 8
  %1 = alloca %"std::result::Result<f64, std::boxed::Box<bincode::error::ErrorKind>>", align 8
  %2 = alloca i128, align 8
  %residual = alloca %"std::result::Result<std::convert::Infallible, std::io::Error>::Err", align 8
  store i128 %0, i128* %2, align 8
  %3 = bitcast %"std::result::Result<std::convert::Infallible, std::io::Error>::Err"* %residual to i8*
  %4 = bitcast i128* %2 to i8*
  call void @llvm.memcpy.p0i8.p0i8.i64(i8* align 8 %3, i8* align 8 %4, i64 16, i1 false)
  call void @llvm.dbg.declare(metadata %"std::result::Result<std::convert::Infallible, std::io::Error>::Err"* %residual, metadata !1354, metadata !DIExpression()), !dbg !1359
  call void @llvm.dbg.declare(metadata %"std::io::Error"* %e, metadata !1355, metadata !DIExpression()), !dbg !1360
  %5 = bitcast %"std::result::Result<std::convert::Infallible, std::io::Error>::Err"* %residual to %"std::io::Error"*, !dbg !1361
  %6 = bitcast %"std::io::Error"* %e to i8*, !dbg !1361
  %7 = bitcast %"std::io::Error"* %5 to i8*, !dbg !1361
  call void @llvm.memcpy.p0i8.p0i8.i64(i8* align 8 %6, i8* align 8 %7, i64 16, i1 false), !dbg !1361
  %8 = bitcast %"std::io::Error"* %_4 to i8*, !dbg !1362
  %9 = bitcast %"std::io::Error"* %e to i8*, !dbg !1362
  call void @llvm.memcpy.p0i8.p0i8.i64(i8* align 8 %8, i8* align 8 %9, i64 16, i1 false), !dbg !1362
  %10 = bitcast %"std::io::Error"* %_4 to i128*, !dbg !1363
  %11 = load i128, i128* %10, align 8, !dbg !1363
; call bincode::error::<impl core::convert::From<std::io::error::Error> for alloc::boxed::Box<bincode::error::ErrorKind>>::from
  %_3 = call noalias nonnull align 8 %"bincode::error::ErrorKind"* @"_ZN7bincode5error129_$LT$impl$u20$core..convert..From$LT$std..io..error..Error$GT$$u20$for$u20$alloc..boxed..Box$LT$bincode..error..ErrorKind$GT$$GT$4from17h8876bd82b8c8aa4fE"(i128 %11), !dbg !1363
  br label %bb1, !dbg !1363

bb1:                                              ; preds = %start
  %12 = bitcast %"std::result::Result<f64, std::boxed::Box<bincode::error::ErrorKind>>"* %1 to %"std::result::Result<f64, std::boxed::Box<bincode::error::ErrorKind>>::Err"*, !dbg !1364
  %13 = getelementptr inbounds %"std::result::Result<f64, std::boxed::Box<bincode::error::ErrorKind>>::Err", %"std::result::Result<f64, std::boxed::Box<bincode::error::ErrorKind>>::Err"* %12, i32 0, i32 1, !dbg !1364
  store %"bincode::error::ErrorKind"* %_3, %"bincode::error::ErrorKind"** %13, align 8, !dbg !1364
  %14 = bitcast %"std::result::Result<f64, std::boxed::Box<bincode::error::ErrorKind>>"* %1 to i64*, !dbg !1364
  store i64 1, i64* %14, align 8, !dbg !1364
  %15 = bitcast %"std::result::Result<f64, std::boxed::Box<bincode::error::ErrorKind>>"* %1 to i128*, !dbg !1365
  %16 = load i128, i128* %15, align 8, !dbg !1365
  ret i128 %16, !dbg !1365
}

; <core::result::Result<T,F> as core::ops::try_trait::FromResidual<core::result::Result<core::convert::Infallible,E>>>::from_residual
; Function Attrs: inlinehint nounwind
define void @"_ZN153_$LT$core..result..Result$LT$T$C$F$GT$$u20$as$u20$core..ops..try_trait..FromResidual$LT$core..result..Result$LT$core..convert..Infallible$C$E$GT$$GT$$GT$13from_residual17h359917b7660c36e3E"(%"std::result::Result<instruction::TokenInstruction, solana_program::program_error::ProgramError>"* noalias nocapture sret(%"std::result::Result<instruction::TokenInstruction, solana_program::program_error::ProgramError>") dereferenceable(88) %0, i8 %1) unnamed_addr #1 !dbg !1366 {
start:
  %e.dbg.spill = alloca i8, align 1
  %_3 = alloca %"solana_program::program_error::ProgramError", align 8
  %residual = alloca i8, align 1
  store i8 %1, i8* %residual, align 1
  call void @llvm.dbg.declare(metadata i8* %residual, metadata !1470, metadata !DIExpression()), !dbg !1474
  %e = load i8, i8* %residual, align 1, !dbg !1475, !range !1335
  store i8 %e, i8* %e.dbg.spill, align 1, !dbg !1475
  call void @llvm.dbg.declare(metadata i8* %e.dbg.spill, metadata !1471, metadata !DIExpression()), !dbg !1476
; call spl_token::error::<impl core::convert::From<spl_token::error::TokenError> for solana_program::program_error::ProgramError>::from
  call void @"_ZN9spl_token5error129_$LT$impl$u20$core..convert..From$LT$spl_token..error..TokenError$GT$$u20$for$u20$solana_program..program_error..ProgramError$GT$4from17h57a95068a194da07E"(%"solana_program::program_error::ProgramError"* noalias nocapture sret(%"solana_program::program_error::ProgramError") dereferenceable(32) %_3, i8 %e), !dbg !1477
  br label %bb1, !dbg !1477

bb1:                                              ; preds = %start
  %2 = bitcast %"std::result::Result<instruction::TokenInstruction, solana_program::program_error::ProgramError>"* %0 to %"std::result::Result<instruction::TokenInstruction, solana_program::program_error::ProgramError>::Err"*, !dbg !1478
  %3 = getelementptr inbounds %"std::result::Result<instruction::TokenInstruction, solana_program::program_error::ProgramError>::Err", %"std::result::Result<instruction::TokenInstruction, solana_program::program_error::ProgramError>::Err"* %2, i32 0, i32 1, !dbg !1478
  %4 = bitcast %"solana_program::program_error::ProgramError"* %3 to i8*, !dbg !1478
  %5 = bitcast %"solana_program::program_error::ProgramError"* %_3 to i8*, !dbg !1478
  call void @llvm.memcpy.p0i8.p0i8.i64(i8* align 8 %4, i8* align 8 %5, i64 32, i1 false), !dbg !1478
  %6 = bitcast %"std::result::Result<instruction::TokenInstruction, solana_program::program_error::ProgramError>"* %0 to i64*, !dbg !1478
  store i64 1, i64* %6, align 8, !dbg !1478
  ret void, !dbg !1479
}

; <core::result::Result<T,F> as core::ops::try_trait::FromResidual<core::result::Result<core::convert::Infallible,E>>>::from_residual
; Function Attrs: inlinehint nounwind
define void @"_ZN153_$LT$core..result..Result$LT$T$C$F$GT$$u20$as$u20$core..ops..try_trait..FromResidual$LT$core..result..Result$LT$core..convert..Infallible$C$E$GT$$GT$$GT$13from_residual17h3b0ad4ec1e53b30eE"(%"std::result::Result<solana_program::rent::Rent, std::boxed::Box<bincode::error::ErrorKind>>"* noalias nocapture sret(%"std::result::Result<solana_program::rent::Rent, std::boxed::Box<bincode::error::ErrorKind>>") dereferenceable(32) %0, i64* noalias nonnull align 8 %1) unnamed_addr #1 !dbg !1480 {
start:
  %e.dbg.spill = alloca %"bincode::error::ErrorKind"*, align 8
  %residual = alloca i64*, align 8
  store i64* %1, i64** %residual, align 8
  call void @llvm.dbg.declare(metadata i64** %residual, metadata !1493, metadata !DIExpression()), !dbg !1497
  %2 = bitcast i64** %residual to %"bincode::error::ErrorKind"**, !dbg !1498
  %e = load %"bincode::error::ErrorKind"*, %"bincode::error::ErrorKind"** %2, align 8, !dbg !1498, !nonnull !4
  store %"bincode::error::ErrorKind"* %e, %"bincode::error::ErrorKind"** %e.dbg.spill, align 8, !dbg !1498
  call void @llvm.dbg.declare(metadata %"bincode::error::ErrorKind"** %e.dbg.spill, metadata !1494, metadata !DIExpression()), !dbg !1499
; call <T as core::convert::From<T>>::from
  %_3 = call noalias nonnull align 8 %"bincode::error::ErrorKind"* @"_ZN50_$LT$T$u20$as$u20$core..convert..From$LT$T$GT$$GT$4from17h62981452cbcf7c24E"(%"bincode::error::ErrorKind"* noalias nonnull align 8 %e), !dbg !1500
  br label %bb1, !dbg !1500

bb1:                                              ; preds = %start
  %3 = bitcast %"std::result::Result<solana_program::rent::Rent, std::boxed::Box<bincode::error::ErrorKind>>"* %0 to %"std::result::Result<solana_program::rent::Rent, std::boxed::Box<bincode::error::ErrorKind>>::Err"*, !dbg !1501
  %4 = getelementptr inbounds %"std::result::Result<solana_program::rent::Rent, std::boxed::Box<bincode::error::ErrorKind>>::Err", %"std::result::Result<solana_program::rent::Rent, std::boxed::Box<bincode::error::ErrorKind>>::Err"* %3, i32 0, i32 1, !dbg !1501
  store %"bincode::error::ErrorKind"* %_3, %"bincode::error::ErrorKind"** %4, align 8, !dbg !1501
  %5 = bitcast %"std::result::Result<solana_program::rent::Rent, std::boxed::Box<bincode::error::ErrorKind>>"* %0 to i64*, !dbg !1501
  store i64 1, i64* %5, align 8, !dbg !1501
  ret void, !dbg !1502
}

; <core::result::Result<T,F> as core::ops::try_trait::FromResidual<core::result::Result<core::convert::Infallible,E>>>::from_residual
; Function Attrs: inlinehint nounwind
define void @"_ZN153_$LT$core..result..Result$LT$T$C$F$GT$$u20$as$u20$core..ops..try_trait..FromResidual$LT$core..result..Result$LT$core..convert..Infallible$C$E$GT$$GT$$GT$13from_residual17h84589c4bbdbf3f2dE"(%"std::result::Result<state::Account, solana_program::program_error::ProgramError>"* noalias nocapture sret(%"std::result::Result<state::Account, solana_program::program_error::ProgramError>") dereferenceable(184) %0, %"std::result::Result<std::convert::Infallible, solana_program::program_error::ProgramError>::Err"* noalias nocapture dereferenceable(32) %residual) unnamed_addr #1 !dbg !1503 {
start:
  %_4 = alloca %"solana_program::program_error::ProgramError", align 8
  %_3 = alloca %"solana_program::program_error::ProgramError", align 8
  %e = alloca %"solana_program::program_error::ProgramError", align 8
  call void @llvm.dbg.declare(metadata %"std::result::Result<std::convert::Infallible, solana_program::program_error::ProgramError>::Err"* %residual, metadata !1507, metadata !DIExpression()), !dbg !1511
  call void @llvm.dbg.declare(metadata %"solana_program::program_error::ProgramError"* %e, metadata !1508, metadata !DIExpression()), !dbg !1512
  %1 = bitcast %"std::result::Result<std::convert::Infallible, solana_program::program_error::ProgramError>::Err"* %residual to %"solana_program::program_error::ProgramError"*, !dbg !1513
  %2 = bitcast %"solana_program::program_error::ProgramError"* %e to i8*, !dbg !1513
  %3 = bitcast %"solana_program::program_error::ProgramError"* %1 to i8*, !dbg !1513
  call void @llvm.memcpy.p0i8.p0i8.i64(i8* align 8 %2, i8* align 8 %3, i64 32, i1 false), !dbg !1513
  %4 = bitcast %"solana_program::program_error::ProgramError"* %_4 to i8*, !dbg !1514
  %5 = bitcast %"solana_program::program_error::ProgramError"* %e to i8*, !dbg !1514
  call void @llvm.memcpy.p0i8.p0i8.i64(i8* align 8 %4, i8* align 8 %5, i64 32, i1 false), !dbg !1514
; call <T as core::convert::From<T>>::from
  call void @"_ZN50_$LT$T$u20$as$u20$core..convert..From$LT$T$GT$$GT$4from17hda293e111d200b89E"(%"solana_program::program_error::ProgramError"* noalias nocapture sret(%"solana_program::program_error::ProgramError") dereferenceable(32) %_3, %"solana_program::program_error::ProgramError"* noalias nocapture dereferenceable(32) %_4), !dbg !1515
  br label %bb1, !dbg !1515

bb1:                                              ; preds = %start
  %6 = bitcast %"std::result::Result<state::Account, solana_program::program_error::ProgramError>"* %0 to %"std::result::Result<state::Account, solana_program::program_error::ProgramError>::Err"*, !dbg !1516
  %7 = getelementptr inbounds %"std::result::Result<state::Account, solana_program::program_error::ProgramError>::Err", %"std::result::Result<state::Account, solana_program::program_error::ProgramError>::Err"* %6, i32 0, i32 1, !dbg !1516
  %8 = bitcast %"solana_program::program_error::ProgramError"* %7 to i8*, !dbg !1516
  %9 = bitcast %"solana_program::program_error::ProgramError"* %_3 to i8*, !dbg !1516
  call void @llvm.memcpy.p0i8.p0i8.i64(i8* align 8 %8, i8* align 8 %9, i64 32, i1 false), !dbg !1516
  %10 = bitcast %"std::result::Result<state::Account, solana_program::program_error::ProgramError>"* %0 to i64*, !dbg !1516
  store i64 1, i64* %10, align 8, !dbg !1516
  ret void, !dbg !1517
}

; <core::result::Result<T,F> as core::ops::try_trait::FromResidual<core::result::Result<core::convert::Infallible,E>>>::from_residual
; Function Attrs: inlinehint nounwind
define void @"_ZN153_$LT$core..result..Result$LT$T$C$F$GT$$u20$as$u20$core..ops..try_trait..FromResidual$LT$core..result..Result$LT$core..convert..Infallible$C$E$GT$$GT$$GT$13from_residual17h8d9a7846dc7c1818E"(%"std::result::Result<instruction::TokenInstruction, solana_program::program_error::ProgramError>"* noalias nocapture sret(%"std::result::Result<instruction::TokenInstruction, solana_program::program_error::ProgramError>") dereferenceable(88) %0, %"std::result::Result<std::convert::Infallible, solana_program::program_error::ProgramError>::Err"* noalias nocapture dereferenceable(32) %residual) unnamed_addr #1 !dbg !1518 {
start:
  %_4 = alloca %"solana_program::program_error::ProgramError", align 8
  %_3 = alloca %"solana_program::program_error::ProgramError", align 8
  %e = alloca %"solana_program::program_error::ProgramError", align 8
  call void @llvm.dbg.declare(metadata %"std::result::Result<std::convert::Infallible, solana_program::program_error::ProgramError>::Err"* %residual, metadata !1522, metadata !DIExpression()), !dbg !1526
  call void @llvm.dbg.declare(metadata %"solana_program::program_error::ProgramError"* %e, metadata !1523, metadata !DIExpression()), !dbg !1527
  %1 = bitcast %"std::result::Result<std::convert::Infallible, solana_program::program_error::ProgramError>::Err"* %residual to %"solana_program::program_error::ProgramError"*, !dbg !1528
  %2 = bitcast %"solana_program::program_error::ProgramError"* %e to i8*, !dbg !1528
  %3 = bitcast %"solana_program::program_error::ProgramError"* %1 to i8*, !dbg !1528
  call void @llvm.memcpy.p0i8.p0i8.i64(i8* align 8 %2, i8* align 8 %3, i64 32, i1 false), !dbg !1528
  %4 = bitcast %"solana_program::program_error::ProgramError"* %_4 to i8*, !dbg !1529
  %5 = bitcast %"solana_program::program_error::ProgramError"* %e to i8*, !dbg !1529
  call void @llvm.memcpy.p0i8.p0i8.i64(i8* align 8 %4, i8* align 8 %5, i64 32, i1 false), !dbg !1529
; call <T as core::convert::From<T>>::from
  call void @"_ZN50_$LT$T$u20$as$u20$core..convert..From$LT$T$GT$$GT$4from17hda293e111d200b89E"(%"solana_program::program_error::ProgramError"* noalias nocapture sret(%"solana_program::program_error::ProgramError") dereferenceable(32) %_3, %"solana_program::program_error::ProgramError"* noalias nocapture dereferenceable(32) %_4), !dbg !1530
  br label %bb1, !dbg !1530

bb1:                                              ; preds = %start
  %6 = bitcast %"std::result::Result<instruction::TokenInstruction, solana_program::program_error::ProgramError>"* %0 to %"std::result::Result<instruction::TokenInstruction, solana_program::program_error::ProgramError>::Err"*, !dbg !1531
  %7 = getelementptr inbounds %"std::result::Result<instruction::TokenInstruction, solana_program::program_error::ProgramError>::Err", %"std::result::Result<instruction::TokenInstruction, solana_program::program_error::ProgramError>::Err"* %6, i32 0, i32 1, !dbg !1531
  %8 = bitcast %"solana_program::program_error::ProgramError"* %7 to i8*, !dbg !1531
  %9 = bitcast %"solana_program::program_error::ProgramError"* %_3 to i8*, !dbg !1531
  call void @llvm.memcpy.p0i8.p0i8.i64(i8* align 8 %8, i8* align 8 %9, i64 32, i1 false), !dbg !1531
  %10 = bitcast %"std::result::Result<instruction::TokenInstruction, solana_program::program_error::ProgramError>"* %0 to i64*, !dbg !1531
  store i64 1, i64* %10, align 8, !dbg !1531
  ret void, !dbg !1532
}

; <core::result::Result<T,F> as core::ops::try_trait::FromResidual<core::result::Result<core::convert::Infallible,E>>>::from_residual
; Function Attrs: inlinehint nounwind
define void @"_ZN153_$LT$core..result..Result$LT$T$C$F$GT$$u20$as$u20$core..ops..try_trait..FromResidual$LT$core..result..Result$LT$core..convert..Infallible$C$E$GT$$GT$$GT$13from_residual17h8ddf52fed45f3f5bE"(%"std::result::Result<std::option::Option<f64>, std::boxed::Box<bincode::error::ErrorKind>>"* noalias nocapture sret(%"std::result::Result<std::option::Option<f64>, std::boxed::Box<bincode::error::ErrorKind>>") dereferenceable(24) %0, i64* noalias nonnull align 8 %1) unnamed_addr #1 !dbg !1533 {
start:
  %e.dbg.spill = alloca %"bincode::error::ErrorKind"*, align 8
  %residual = alloca i64*, align 8
  store i64* %1, i64** %residual, align 8
  call void @llvm.dbg.declare(metadata i64** %residual, metadata !1562, metadata !DIExpression()), !dbg !1566
  %2 = bitcast i64** %residual to %"bincode::error::ErrorKind"**, !dbg !1567
  %e = load %"bincode::error::ErrorKind"*, %"bincode::error::ErrorKind"** %2, align 8, !dbg !1567, !nonnull !4
  store %"bincode::error::ErrorKind"* %e, %"bincode::error::ErrorKind"** %e.dbg.spill, align 8, !dbg !1567
  call void @llvm.dbg.declare(metadata %"bincode::error::ErrorKind"** %e.dbg.spill, metadata !1563, metadata !DIExpression()), !dbg !1568
; call <T as core::convert::From<T>>::from
  %_3 = call noalias nonnull align 8 %"bincode::error::ErrorKind"* @"_ZN50_$LT$T$u20$as$u20$core..convert..From$LT$T$GT$$GT$4from17h62981452cbcf7c24E"(%"bincode::error::ErrorKind"* noalias nonnull align 8 %e), !dbg !1569
  br label %bb1, !dbg !1569

bb1:                                              ; preds = %start
  %3 = bitcast %"std::result::Result<std::option::Option<f64>, std::boxed::Box<bincode::error::ErrorKind>>"* %0 to %"std::result::Result<std::option::Option<f64>, std::boxed::Box<bincode::error::ErrorKind>>::Err"*, !dbg !1570
  %4 = getelementptr inbounds %"std::result::Result<std::option::Option<f64>, std::boxed::Box<bincode::error::ErrorKind>>::Err", %"std::result::Result<std::option::Option<f64>, std::boxed::Box<bincode::error::ErrorKind>>::Err"* %3, i32 0, i32 1, !dbg !1570
  store %"bincode::error::ErrorKind"* %_3, %"bincode::error::ErrorKind"** %4, align 8, !dbg !1570
  %5 = bitcast %"std::result::Result<std::option::Option<f64>, std::boxed::Box<bincode::error::ErrorKind>>"* %0 to i64*, !dbg !1570
  store i64 1, i64* %5, align 8, !dbg !1570
  ret void, !dbg !1571
}

; <core::result::Result<T,F> as core::ops::try_trait::FromResidual<core::result::Result<core::convert::Infallible,E>>>::from_residual
; Function Attrs: inlinehint nounwind
define i128 @"_ZN153_$LT$core..result..Result$LT$T$C$F$GT$$u20$as$u20$core..ops..try_trait..FromResidual$LT$core..result..Result$LT$core..convert..Infallible$C$E$GT$$GT$$GT$13from_residual17ha166f0feced520baE"(i64* noalias nonnull align 8 %0) unnamed_addr #1 !dbg !1572 {
start:
  %e.dbg.spill = alloca %"bincode::error::ErrorKind"*, align 8
  %1 = alloca %"std::result::Result<f64, std::boxed::Box<bincode::error::ErrorKind>>", align 8
  %residual = alloca i64*, align 8
  store i64* %0, i64** %residual, align 8
  call void @llvm.dbg.declare(metadata i64** %residual, metadata !1576, metadata !DIExpression()), !dbg !1580
  %2 = bitcast i64** %residual to %"bincode::error::ErrorKind"**, !dbg !1581
  %e = load %"bincode::error::ErrorKind"*, %"bincode::error::ErrorKind"** %2, align 8, !dbg !1581, !nonnull !4
  store %"bincode::error::ErrorKind"* %e, %"bincode::error::ErrorKind"** %e.dbg.spill, align 8, !dbg !1581
  call void @llvm.dbg.declare(metadata %"bincode::error::ErrorKind"** %e.dbg.spill, metadata !1577, metadata !DIExpression()), !dbg !1582
; call <T as core::convert::From<T>>::from
  %_3 = call noalias nonnull align 8 %"bincode::error::ErrorKind"* @"_ZN50_$LT$T$u20$as$u20$core..convert..From$LT$T$GT$$GT$4from17h62981452cbcf7c24E"(%"bincode::error::ErrorKind"* noalias nonnull align 8 %e), !dbg !1583
  br label %bb1, !dbg !1583

bb1:                                              ; preds = %start
  %3 = bitcast %"std::result::Result<f64, std::boxed::Box<bincode::error::ErrorKind>>"* %1 to %"std::result::Result<f64, std::boxed::Box<bincode::error::ErrorKind>>::Err"*, !dbg !1584
  %4 = getelementptr inbounds %"std::result::Result<f64, std::boxed::Box<bincode::error::ErrorKind>>::Err", %"std::result::Result<f64, std::boxed::Box<bincode::error::ErrorKind>>::Err"* %3, i32 0, i32 1, !dbg !1584
  store %"bincode::error::ErrorKind"* %_3, %"bincode::error::ErrorKind"** %4, align 8, !dbg !1584
  %5 = bitcast %"std::result::Result<f64, std::boxed::Box<bincode::error::ErrorKind>>"* %1 to i64*, !dbg !1584
  store i64 1, i64* %5, align 8, !dbg !1584
  %6 = bitcast %"std::result::Result<f64, std::boxed::Box<bincode::error::ErrorKind>>"* %1 to i128*, !dbg !1585
  %7 = load i128, i128* %6, align 8, !dbg !1585
  ret i128 %7, !dbg !1585
}

; <core::result::Result<T,F> as core::ops::try_trait::FromResidual<core::result::Result<core::convert::Infallible,E>>>::from_residual
; Function Attrs: inlinehint nounwind
define i128 @"_ZN153_$LT$core..result..Result$LT$T$C$F$GT$$u20$as$u20$core..ops..try_trait..FromResidual$LT$core..result..Result$LT$core..convert..Infallible$C$E$GT$$GT$$GT$13from_residual17hc2a4988319ad4fb2E"(i64* noalias nonnull align 8 %0) unnamed_addr #1 !dbg !1586 {
start:
  %e.dbg.spill = alloca %"bincode::error::ErrorKind"*, align 8
  %1 = alloca %"std::result::Result<std::option::Option<u8>, std::boxed::Box<bincode::error::ErrorKind>>", align 8
  %residual = alloca i64*, align 8
  store i64* %0, i64** %residual, align 8
  call void @llvm.dbg.declare(metadata i64** %residual, metadata !1604, metadata !DIExpression()), !dbg !1608
  %2 = bitcast i64** %residual to %"bincode::error::ErrorKind"**, !dbg !1609
  %e = load %"bincode::error::ErrorKind"*, %"bincode::error::ErrorKind"** %2, align 8, !dbg !1609, !nonnull !4
  store %"bincode::error::ErrorKind"* %e, %"bincode::error::ErrorKind"** %e.dbg.spill, align 8, !dbg !1609
  call void @llvm.dbg.declare(metadata %"bincode::error::ErrorKind"** %e.dbg.spill, metadata !1605, metadata !DIExpression()), !dbg !1610
; call <T as core::convert::From<T>>::from
  %_3 = call noalias nonnull align 8 %"bincode::error::ErrorKind"* @"_ZN50_$LT$T$u20$as$u20$core..convert..From$LT$T$GT$$GT$4from17h62981452cbcf7c24E"(%"bincode::error::ErrorKind"* noalias nonnull align 8 %e), !dbg !1611
  br label %bb1, !dbg !1611

bb1:                                              ; preds = %start
  %3 = bitcast %"std::result::Result<std::option::Option<u8>, std::boxed::Box<bincode::error::ErrorKind>>"* %1 to %"std::result::Result<std::option::Option<u8>, std::boxed::Box<bincode::error::ErrorKind>>::Err"*, !dbg !1612
  %4 = getelementptr inbounds %"std::result::Result<std::option::Option<u8>, std::boxed::Box<bincode::error::ErrorKind>>::Err", %"std::result::Result<std::option::Option<u8>, std::boxed::Box<bincode::error::ErrorKind>>::Err"* %3, i32 0, i32 1, !dbg !1612
  store %"bincode::error::ErrorKind"* %_3, %"bincode::error::ErrorKind"** %4, align 8, !dbg !1612
  %5 = bitcast %"std::result::Result<std::option::Option<u8>, std::boxed::Box<bincode::error::ErrorKind>>"* %1 to i8*, !dbg !1612
  store i8 1, i8* %5, align 8, !dbg !1612
  %6 = bitcast %"std::result::Result<std::option::Option<u8>, std::boxed::Box<bincode::error::ErrorKind>>"* %1 to i128*, !dbg !1613
  %7 = load i128, i128* %6, align 8, !dbg !1613
  ret i128 %7, !dbg !1613
}

; <core::result::Result<T,F> as core::ops::try_trait::FromResidual<core::result::Result<core::convert::Infallible,E>>>::from_residual
; Function Attrs: inlinehint nounwind
define void @"_ZN153_$LT$core..result..Result$LT$T$C$F$GT$$u20$as$u20$core..ops..try_trait..FromResidual$LT$core..result..Result$LT$core..convert..Infallible$C$E$GT$$GT$$GT$13from_residual17hd0f448e972ffe0daE"(%"std::result::Result<state::Multisig, solana_program::program_error::ProgramError>"* noalias nocapture sret(%"std::result::Result<state::Multisig, solana_program::program_error::ProgramError>") dereferenceable(360) %0, %"std::result::Result<std::convert::Infallible, solana_program::program_error::ProgramError>::Err"* noalias nocapture dereferenceable(32) %residual) unnamed_addr #1 !dbg !1614 {
start:
  %_4 = alloca %"solana_program::program_error::ProgramError", align 8
  %_3 = alloca %"solana_program::program_error::ProgramError", align 8
  %e = alloca %"solana_program::program_error::ProgramError", align 8
  call void @llvm.dbg.declare(metadata %"std::result::Result<std::convert::Infallible, solana_program::program_error::ProgramError>::Err"* %residual, metadata !1618, metadata !DIExpression()), !dbg !1622
  call void @llvm.dbg.declare(metadata %"solana_program::program_error::ProgramError"* %e, metadata !1619, metadata !DIExpression()), !dbg !1623
  %1 = bitcast %"std::result::Result<std::convert::Infallible, solana_program::program_error::ProgramError>::Err"* %residual to %"solana_program::program_error::ProgramError"*, !dbg !1624
  %2 = bitcast %"solana_program::program_error::ProgramError"* %e to i8*, !dbg !1624
  %3 = bitcast %"solana_program::program_error::ProgramError"* %1 to i8*, !dbg !1624
  call void @llvm.memcpy.p0i8.p0i8.i64(i8* align 8 %2, i8* align 8 %3, i64 32, i1 false), !dbg !1624
  %4 = bitcast %"solana_program::program_error::ProgramError"* %_4 to i8*, !dbg !1625
  %5 = bitcast %"solana_program::program_error::ProgramError"* %e to i8*, !dbg !1625
  call void @llvm.memcpy.p0i8.p0i8.i64(i8* align 8 %4, i8* align 8 %5, i64 32, i1 false), !dbg !1625
; call <T as core::convert::From<T>>::from
  call void @"_ZN50_$LT$T$u20$as$u20$core..convert..From$LT$T$GT$$GT$4from17hda293e111d200b89E"(%"solana_program::program_error::ProgramError"* noalias nocapture sret(%"solana_program::program_error::ProgramError") dereferenceable(32) %_3, %"solana_program::program_error::ProgramError"* noalias nocapture dereferenceable(32) %_4), !dbg !1626
  br label %bb1, !dbg !1626

bb1:                                              ; preds = %start
  %6 = bitcast %"std::result::Result<state::Multisig, solana_program::program_error::ProgramError>"* %0 to %"std::result::Result<state::Multisig, solana_program::program_error::ProgramError>::Err"*, !dbg !1627
  %7 = getelementptr inbounds %"std::result::Result<state::Multisig, solana_program::program_error::ProgramError>::Err", %"std::result::Result<state::Multisig, solana_program::program_error::ProgramError>::Err"* %6, i32 0, i32 1, !dbg !1627
  %8 = bitcast %"solana_program::program_error::ProgramError"* %7 to i8*, !dbg !1627
  %9 = bitcast %"solana_program::program_error::ProgramError"* %_3 to i8*, !dbg !1627
  call void @llvm.memcpy.p0i8.p0i8.i64(i8* align 8 %8, i8* align 8 %9, i64 32, i1 false), !dbg !1627
  %10 = bitcast %"std::result::Result<state::Multisig, solana_program::program_error::ProgramError>"* %0 to i8*, !dbg !1627
  store i8 1, i8* %10, align 8, !dbg !1627
  ret void, !dbg !1628
}

; <core::result::Result<T,F> as core::ops::try_trait::FromResidual<core::result::Result<core::convert::Infallible,E>>>::from_residual
; Function Attrs: inlinehint nounwind
define void @"_ZN153_$LT$core..result..Result$LT$T$C$F$GT$$u20$as$u20$core..ops..try_trait..FromResidual$LT$core..result..Result$LT$core..convert..Infallible$C$E$GT$$GT$$GT$13from_residual17hdf3865db8dbb5662E"(%"std::result::Result<state::Mint, solana_program::program_error::ProgramError>"* noalias nocapture sret(%"std::result::Result<state::Mint, solana_program::program_error::ProgramError>") dereferenceable(96) %0, %"std::result::Result<std::convert::Infallible, solana_program::program_error::ProgramError>::Err"* noalias nocapture dereferenceable(32) %residual) unnamed_addr #1 !dbg !1629 {
start:
  %_4 = alloca %"solana_program::program_error::ProgramError", align 8
  %_3 = alloca %"solana_program::program_error::ProgramError", align 8
  %e = alloca %"solana_program::program_error::ProgramError", align 8
  call void @llvm.dbg.declare(metadata %"std::result::Result<std::convert::Infallible, solana_program::program_error::ProgramError>::Err"* %residual, metadata !1633, metadata !DIExpression()), !dbg !1637
  call void @llvm.dbg.declare(metadata %"solana_program::program_error::ProgramError"* %e, metadata !1634, metadata !DIExpression()), !dbg !1638
  %1 = bitcast %"std::result::Result<std::convert::Infallible, solana_program::program_error::ProgramError>::Err"* %residual to %"solana_program::program_error::ProgramError"*, !dbg !1639
  %2 = bitcast %"solana_program::program_error::ProgramError"* %e to i8*, !dbg !1639
  %3 = bitcast %"solana_program::program_error::ProgramError"* %1 to i8*, !dbg !1639
  call void @llvm.memcpy.p0i8.p0i8.i64(i8* align 8 %2, i8* align 8 %3, i64 32, i1 false), !dbg !1639
  %4 = bitcast %"solana_program::program_error::ProgramError"* %_4 to i8*, !dbg !1640
  %5 = bitcast %"solana_program::program_error::ProgramError"* %e to i8*, !dbg !1640
  call void @llvm.memcpy.p0i8.p0i8.i64(i8* align 8 %4, i8* align 8 %5, i64 32, i1 false), !dbg !1640
; call <T as core::convert::From<T>>::from
  call void @"_ZN50_$LT$T$u20$as$u20$core..convert..From$LT$T$GT$$GT$4from17hda293e111d200b89E"(%"solana_program::program_error::ProgramError"* noalias nocapture sret(%"solana_program::program_error::ProgramError") dereferenceable(32) %_3, %"solana_program::program_error::ProgramError"* noalias nocapture dereferenceable(32) %_4), !dbg !1641
  br label %bb1, !dbg !1641

bb1:                                              ; preds = %start
  %6 = bitcast %"std::result::Result<state::Mint, solana_program::program_error::ProgramError>"* %0 to %"std::result::Result<state::Mint, solana_program::program_error::ProgramError>::Err"*, !dbg !1642
  %7 = getelementptr inbounds %"std::result::Result<state::Mint, solana_program::program_error::ProgramError>::Err", %"std::result::Result<state::Mint, solana_program::program_error::ProgramError>::Err"* %6, i32 0, i32 1, !dbg !1642
  %8 = bitcast %"solana_program::program_error::ProgramError"* %7 to i8*, !dbg !1642
  %9 = bitcast %"solana_program::program_error::ProgramError"* %_3 to i8*, !dbg !1642
  call void @llvm.memcpy.p0i8.p0i8.i64(i8* align 8 %8, i8* align 8 %9, i64 32, i1 false), !dbg !1642
  %10 = bitcast %"std::result::Result<state::Mint, solana_program::program_error::ProgramError>"* %0 to i64*, !dbg !1642
  store i64 1, i64* %10, align 8, !dbg !1642
  ret void, !dbg !1643
}

; <core::result::Result<T,F> as core::ops::try_trait::FromResidual<core::result::Result<core::convert::Infallible,E>>>::from_residual
; Function Attrs: inlinehint nounwind
define void @"_ZN153_$LT$core..result..Result$LT$T$C$F$GT$$u20$as$u20$core..ops..try_trait..FromResidual$LT$core..result..Result$LT$core..convert..Infallible$C$E$GT$$GT$$GT$13from_residual17he9ec3bfb999d85a7E"(%"std::result::Result<(instruction::AuthorityType, &[u8]), solana_program::program_error::ProgramError>"* noalias nocapture sret(%"std::result::Result<(instruction::AuthorityType, &[u8]), solana_program::program_error::ProgramError>") dereferenceable(40) %0, %"std::result::Result<std::convert::Infallible, solana_program::program_error::ProgramError>::Err"* noalias nocapture dereferenceable(32) %residual) unnamed_addr #1 !dbg !1644 {
start:
  %_4 = alloca %"solana_program::program_error::ProgramError", align 8
  %_3 = alloca %"solana_program::program_error::ProgramError", align 8
  %e = alloca %"solana_program::program_error::ProgramError", align 8
  call void @llvm.dbg.declare(metadata %"std::result::Result<std::convert::Infallible, solana_program::program_error::ProgramError>::Err"* %residual, metadata !1666, metadata !DIExpression()), !dbg !1670
  call void @llvm.dbg.declare(metadata %"solana_program::program_error::ProgramError"* %e, metadata !1667, metadata !DIExpression()), !dbg !1671
  %1 = bitcast %"std::result::Result<std::convert::Infallible, solana_program::program_error::ProgramError>::Err"* %residual to %"solana_program::program_error::ProgramError"*, !dbg !1672
  %2 = bitcast %"solana_program::program_error::ProgramError"* %e to i8*, !dbg !1672
  %3 = bitcast %"solana_program::program_error::ProgramError"* %1 to i8*, !dbg !1672
  call void @llvm.memcpy.p0i8.p0i8.i64(i8* align 8 %2, i8* align 8 %3, i64 32, i1 false), !dbg !1672
  %4 = bitcast %"solana_program::program_error::ProgramError"* %_4 to i8*, !dbg !1673
  %5 = bitcast %"solana_program::program_error::ProgramError"* %e to i8*, !dbg !1673
  call void @llvm.memcpy.p0i8.p0i8.i64(i8* align 8 %4, i8* align 8 %5, i64 32, i1 false), !dbg !1673
; call <T as core::convert::From<T>>::from
  call void @"_ZN50_$LT$T$u20$as$u20$core..convert..From$LT$T$GT$$GT$4from17hda293e111d200b89E"(%"solana_program::program_error::ProgramError"* noalias nocapture sret(%"solana_program::program_error::ProgramError") dereferenceable(32) %_3, %"solana_program::program_error::ProgramError"* noalias nocapture dereferenceable(32) %_4), !dbg !1674
  br label %bb1, !dbg !1674

bb1:                                              ; preds = %start
  %6 = bitcast %"std::result::Result<(instruction::AuthorityType, &[u8]), solana_program::program_error::ProgramError>"* %0 to %"std::result::Result<(instruction::AuthorityType, &[u8]), solana_program::program_error::ProgramError>::Err"*, !dbg !1675
  %7 = getelementptr inbounds %"std::result::Result<(instruction::AuthorityType, &[u8]), solana_program::program_error::ProgramError>::Err", %"std::result::Result<(instruction::AuthorityType, &[u8]), solana_program::program_error::ProgramError>::Err"* %6, i32 0, i32 1, !dbg !1675
  %8 = bitcast %"solana_program::program_error::ProgramError"* %7 to i8*, !dbg !1675
  %9 = bitcast %"solana_program::program_error::ProgramError"* %_3 to i8*, !dbg !1675
  call void @llvm.memcpy.p0i8.p0i8.i64(i8* align 8 %8, i8* align 8 %9, i64 32, i1 false), !dbg !1675
  %10 = bitcast %"std::result::Result<(instruction::AuthorityType, &[u8]), solana_program::program_error::ProgramError>"* %0 to i64*, !dbg !1675
  store i64 1, i64* %10, align 8, !dbg !1675
  ret void, !dbg !1676
}

; <solana_program::rent::_::<impl serde::de::Deserialize for solana_program::rent::Rent>::deserialize::__Visitor as serde::de::Visitor>::visit_seq
; Function Attrs: inlinehint nounwind
define void @"_ZN166_$LT$solana_program..rent.._..$LT$impl$u20$serde..de..Deserialize$u20$for$u20$solana_program..rent..Rent$GT$..deserialize..__Visitor$u20$as$u20$serde..de..Visitor$GT$9visit_seq17hcae5ef93fd1615f1E"(%"std::result::Result<solana_program::rent::Rent, std::boxed::Box<bincode::error::ErrorKind>>"* noalias nocapture sret(%"std::result::Result<solana_program::rent::Rent, std::boxed::Box<bincode::error::ErrorKind>>") dereferenceable(32) %0, i64* align 8 dereferenceable(16) %1, i64 %2) unnamed_addr #1 !dbg !1677 {
start:
  %__field2.dbg.spill = alloca i8, align 1
  %__value.dbg.spill14 = alloca i8, align 1
  %__val.dbg.spill12 = alloca { i8, i8 }, align 1
  %__err.dbg.spill9 = alloca %"bincode::error::ErrorKind"*, align 8
  %3 = alloca i128, align 8
  %__field1.dbg.spill = alloca double, align 8
  %__value.dbg.spill7 = alloca double, align 8
  %__val.dbg.spill5 = alloca { i64, double }, align 8
  %__err.dbg.spill2 = alloca %"bincode::error::ErrorKind"*, align 8
  %__field0.dbg.spill = alloca i64, align 8
  %__value.dbg.spill = alloca i64, align 8
  %__val.dbg.spill = alloca { i64, i64 }, align 8
  %__err.dbg.spill = alloca %"bincode::error::ErrorKind"*, align 8
  %self.dbg.spill = alloca %"solana_program::rent::_::<impl serde::de::Deserialize<'de> for solana_program::rent::Rent>::deserialize::__Visitor", align 1
  %_48 = alloca %"solana_program::rent::Rent", align 8
  %_35 = alloca %"std::result::Result<std::option::Option<u8>, std::boxed::Box<bincode::error::ErrorKind>>", align 8
  %_34 = alloca { i8, i8 }, align 1
  %_20 = alloca %"std::result::Result<std::option::Option<f64>, std::boxed::Box<bincode::error::ErrorKind>>", align 8
  %_19 = alloca { i64, double }, align 8
  %_5 = alloca %"std::result::Result<std::option::Option<u64>, std::boxed::Box<bincode::error::ErrorKind>>", align 8
  %_4 = alloca { i64, i64 }, align 8
  %__seq = alloca { i64*, i64 }, align 8
  %4 = getelementptr inbounds { i64*, i64 }, { i64*, i64 }* %__seq, i32 0, i32 0
  store i64* %1, i64** %4, align 8
  %5 = getelementptr inbounds { i64*, i64 }, { i64*, i64 }* %__seq, i32 0, i32 1
  store i64 %2, i64* %5, align 8
  call void @llvm.dbg.declare(metadata %"solana_program::rent::_::<impl serde::de::Deserialize<'de> for solana_program::rent::Rent>::deserialize::__Visitor"* %self.dbg.spill, metadata !1699, metadata !DIExpression()), !dbg !1737
  call void @llvm.dbg.declare(metadata { i64*, i64 }* %__seq, metadata !1700, metadata !DIExpression()), !dbg !1737
; call serde::de::SeqAccess::next_element
  call void @_ZN5serde2de9SeqAccess12next_element17h4608b27d499a8d35E(%"std::result::Result<std::option::Option<u64>, std::boxed::Box<bincode::error::ErrorKind>>"* noalias nocapture sret(%"std::result::Result<std::option::Option<u64>, std::boxed::Box<bincode::error::ErrorKind>>") dereferenceable(24) %_5, { i64*, i64 }* align 8 dereferenceable(16) %__seq), !dbg !1737
  br label %bb1, !dbg !1737

bb1:                                              ; preds = %start
  %6 = bitcast %"std::result::Result<std::option::Option<u64>, std::boxed::Box<bincode::error::ErrorKind>>"* %_5 to i64*, !dbg !1737
  %_8 = load i64, i64* %6, align 8, !dbg !1737, !range !992
  switch i64 %_8, label %bb3 [
    i64 0, label %bb4
    i64 1, label %bb2
  ], !dbg !1737

bb3:                                              ; preds = %bb1
  unreachable, !dbg !1737

bb4:                                              ; preds = %bb1
  %7 = bitcast %"std::result::Result<std::option::Option<u64>, std::boxed::Box<bincode::error::ErrorKind>>"* %_5 to %"std::result::Result<std::option::Option<u64>, std::boxed::Box<bincode::error::ErrorKind>>::Ok"*, !dbg !1737
  %8 = getelementptr inbounds %"std::result::Result<std::option::Option<u64>, std::boxed::Box<bincode::error::ErrorKind>>::Ok", %"std::result::Result<std::option::Option<u64>, std::boxed::Box<bincode::error::ErrorKind>>::Ok"* %7, i32 0, i32 1, !dbg !1737
  %9 = getelementptr inbounds { i64, i64 }, { i64, i64 }* %8, i32 0, i32 0, !dbg !1737
  %__val.0 = load i64, i64* %9, align 8, !dbg !1737, !range !992
  %10 = getelementptr inbounds { i64, i64 }, { i64, i64 }* %8, i32 0, i32 1, !dbg !1737
  %__val.1 = load i64, i64* %10, align 8, !dbg !1737
  %11 = getelementptr inbounds { i64, i64 }, { i64, i64 }* %__val.dbg.spill, i32 0, i32 0, !dbg !1737
  store i64 %__val.0, i64* %11, align 8, !dbg !1737
  %12 = getelementptr inbounds { i64, i64 }, { i64, i64 }* %__val.dbg.spill, i32 0, i32 1, !dbg !1737
  store i64 %__val.1, i64* %12, align 8, !dbg !1737
  call void @llvm.dbg.declare(metadata { i64, i64 }* %__val.dbg.spill, metadata !1703, metadata !DIExpression()), !dbg !1738
  %13 = getelementptr inbounds { i64, i64 }, { i64, i64 }* %_4, i32 0, i32 0, !dbg !1738
  store i64 %__val.0, i64* %13, align 8, !dbg !1738
  %14 = getelementptr inbounds { i64, i64 }, { i64, i64 }* %_4, i32 0, i32 1, !dbg !1738
  store i64 %__val.1, i64* %14, align 8, !dbg !1738
  %15 = bitcast { i64, i64 }* %_4 to i64*, !dbg !1737
  %_12 = load i64, i64* %15, align 8, !dbg !1737, !range !992
  switch i64 %_12, label %bb6 [
    i64 0, label %bb5
    i64 1, label %bb7
  ], !dbg !1737

bb2:                                              ; preds = %bb1
  %16 = bitcast %"std::result::Result<std::option::Option<u64>, std::boxed::Box<bincode::error::ErrorKind>>"* %_5 to %"std::result::Result<std::option::Option<u64>, std::boxed::Box<bincode::error::ErrorKind>>::Err"*, !dbg !1737
  %17 = getelementptr inbounds %"std::result::Result<std::option::Option<u64>, std::boxed::Box<bincode::error::ErrorKind>>::Err", %"std::result::Result<std::option::Option<u64>, std::boxed::Box<bincode::error::ErrorKind>>::Err"* %16, i32 0, i32 1, !dbg !1737
  %__err = load %"bincode::error::ErrorKind"*, %"bincode::error::ErrorKind"** %17, align 8, !dbg !1737, !nonnull !4
  store %"bincode::error::ErrorKind"* %__err, %"bincode::error::ErrorKind"** %__err.dbg.spill, align 8, !dbg !1737
  call void @llvm.dbg.declare(metadata %"bincode::error::ErrorKind"** %__err.dbg.spill, metadata !1715, metadata !DIExpression()), !dbg !1739
  %18 = bitcast %"std::result::Result<solana_program::rent::Rent, std::boxed::Box<bincode::error::ErrorKind>>"* %0 to %"std::result::Result<solana_program::rent::Rent, std::boxed::Box<bincode::error::ErrorKind>>::Err"*, !dbg !1739
  %19 = getelementptr inbounds %"std::result::Result<solana_program::rent::Rent, std::boxed::Box<bincode::error::ErrorKind>>::Err", %"std::result::Result<solana_program::rent::Rent, std::boxed::Box<bincode::error::ErrorKind>>::Err"* %18, i32 0, i32 1, !dbg !1739
  store %"bincode::error::ErrorKind"* %__err, %"bincode::error::ErrorKind"** %19, align 8, !dbg !1739
  %20 = bitcast %"std::result::Result<solana_program::rent::Rent, std::boxed::Box<bincode::error::ErrorKind>>"* %0 to i64*, !dbg !1739
  store i64 1, i64* %20, align 8, !dbg !1739
  br label %bb27, !dbg !1740

bb27:                                             ; preds = %bb8, %bb2
  br label %bb28, !dbg !1740

bb6:                                              ; preds = %bb4
  unreachable, !dbg !1737

bb5:                                              ; preds = %bb4
; call serde::de::Error::invalid_length
  %_14 = call noalias nonnull align 8 %"bincode::error::ErrorKind"* @_ZN5serde2de5Error14invalid_length17h051ba0151b9e280aE(i64 0, {}* nonnull align 1 bitcast (<{ i8*, [8 x i8] }>* @alloc644 to {}*), [3 x i64]* align 8 dereferenceable(24) bitcast (<{ i8*, [16 x i8], i8*, [0 x i8] }>* @vtable.0 to [3 x i64]*)), !dbg !1737
  br label %bb8, !dbg !1737

bb7:                                              ; preds = %bb4
  %21 = bitcast { i64, i64 }* %_4 to %"std::option::Option<u64>::Some"*, !dbg !1737
  %22 = getelementptr inbounds %"std::option::Option<u64>::Some", %"std::option::Option<u64>::Some"* %21, i32 0, i32 1, !dbg !1737
  %__value = load i64, i64* %22, align 8, !dbg !1737
  store i64 %__value, i64* %__value.dbg.spill, align 8, !dbg !1737
  call void @llvm.dbg.declare(metadata i64* %__value.dbg.spill, metadata !1717, metadata !DIExpression()), !dbg !1742
  store i64 %__value, i64* %__field0.dbg.spill, align 8, !dbg !1742
  call void @llvm.dbg.declare(metadata i64* %__field0.dbg.spill, metadata !1701, metadata !DIExpression()), !dbg !1743
; call serde::de::SeqAccess::next_element
  call void @_ZN5serde2de9SeqAccess12next_element17h00886aa73c5412d4E(%"std::result::Result<std::option::Option<f64>, std::boxed::Box<bincode::error::ErrorKind>>"* noalias nocapture sret(%"std::result::Result<std::option::Option<f64>, std::boxed::Box<bincode::error::ErrorKind>>") dereferenceable(24) %_20, { i64*, i64 }* align 8 dereferenceable(16) %__seq), !dbg !1743
  br label %bb9, !dbg !1743

bb9:                                              ; preds = %bb7
  %23 = bitcast %"std::result::Result<std::option::Option<f64>, std::boxed::Box<bincode::error::ErrorKind>>"* %_20 to i64*, !dbg !1743
  %_23 = load i64, i64* %23, align 8, !dbg !1743, !range !992
  switch i64 %_23, label %bb11 [
    i64 0, label %bb12
    i64 1, label %bb10
  ], !dbg !1743

bb11:                                             ; preds = %bb9
  unreachable, !dbg !1743

bb12:                                             ; preds = %bb9
  %24 = bitcast %"std::result::Result<std::option::Option<f64>, std::boxed::Box<bincode::error::ErrorKind>>"* %_20 to %"std::result::Result<std::option::Option<f64>, std::boxed::Box<bincode::error::ErrorKind>>::Ok"*, !dbg !1743
  %25 = getelementptr inbounds %"std::result::Result<std::option::Option<f64>, std::boxed::Box<bincode::error::ErrorKind>>::Ok", %"std::result::Result<std::option::Option<f64>, std::boxed::Box<bincode::error::ErrorKind>>::Ok"* %24, i32 0, i32 1, !dbg !1743
  %26 = getelementptr inbounds { i64, double }, { i64, double }* %25, i32 0, i32 0, !dbg !1743
  %__val.03 = load i64, i64* %26, align 8, !dbg !1743, !range !992
  %27 = getelementptr inbounds { i64, double }, { i64, double }* %25, i32 0, i32 1, !dbg !1743
  %__val.14 = load double, double* %27, align 8, !dbg !1743
  %28 = getelementptr inbounds { i64, double }, { i64, double }* %__val.dbg.spill5, i32 0, i32 0, !dbg !1743
  store i64 %__val.03, i64* %28, align 8, !dbg !1743
  %29 = getelementptr inbounds { i64, double }, { i64, double }* %__val.dbg.spill5, i32 0, i32 1, !dbg !1743
  store double %__val.14, double* %29, align 8, !dbg !1743
  call void @llvm.dbg.declare(metadata { i64, double }* %__val.dbg.spill5, metadata !1721, metadata !DIExpression()), !dbg !1744
  %30 = getelementptr inbounds { i64, double }, { i64, double }* %_19, i32 0, i32 0, !dbg !1744
  store i64 %__val.03, i64* %30, align 8, !dbg !1744
  %31 = getelementptr inbounds { i64, double }, { i64, double }* %_19, i32 0, i32 1, !dbg !1744
  store double %__val.14, double* %31, align 8, !dbg !1744
  %32 = bitcast { i64, double }* %_19 to i64*, !dbg !1743
  %_27 = load i64, i64* %32, align 8, !dbg !1743, !range !992
  switch i64 %_27, label %bb14 [
    i64 0, label %bb13
    i64 1, label %bb15
  ], !dbg !1743

bb10:                                             ; preds = %bb9
  %33 = bitcast %"std::result::Result<std::option::Option<f64>, std::boxed::Box<bincode::error::ErrorKind>>"* %_20 to %"std::result::Result<std::option::Option<f64>, std::boxed::Box<bincode::error::ErrorKind>>::Err"*, !dbg !1743
  %34 = getelementptr inbounds %"std::result::Result<std::option::Option<f64>, std::boxed::Box<bincode::error::ErrorKind>>::Err", %"std::result::Result<std::option::Option<f64>, std::boxed::Box<bincode::error::ErrorKind>>::Err"* %33, i32 0, i32 1, !dbg !1743
  %__err1 = load %"bincode::error::ErrorKind"*, %"bincode::error::ErrorKind"** %34, align 8, !dbg !1743, !nonnull !4
  store %"bincode::error::ErrorKind"* %__err1, %"bincode::error::ErrorKind"** %__err.dbg.spill2, align 8, !dbg !1743
  call void @llvm.dbg.declare(metadata %"bincode::error::ErrorKind"** %__err.dbg.spill2, metadata !1723, metadata !DIExpression()), !dbg !1745
  %35 = bitcast %"std::result::Result<solana_program::rent::Rent, std::boxed::Box<bincode::error::ErrorKind>>"* %0 to %"std::result::Result<solana_program::rent::Rent, std::boxed::Box<bincode::error::ErrorKind>>::Err"*, !dbg !1745
  %36 = getelementptr inbounds %"std::result::Result<solana_program::rent::Rent, std::boxed::Box<bincode::error::ErrorKind>>::Err", %"std::result::Result<solana_program::rent::Rent, std::boxed::Box<bincode::error::ErrorKind>>::Err"* %35, i32 0, i32 1, !dbg !1745
  store %"bincode::error::ErrorKind"* %__err1, %"bincode::error::ErrorKind"** %36, align 8, !dbg !1745
  %37 = bitcast %"std::result::Result<solana_program::rent::Rent, std::boxed::Box<bincode::error::ErrorKind>>"* %0 to i64*, !dbg !1745
  store i64 1, i64* %37, align 8, !dbg !1745
  br label %bb26, !dbg !1746

bb26:                                             ; preds = %bb16, %bb10
  br label %bb28, !dbg !1746

bb14:                                             ; preds = %bb12
  unreachable, !dbg !1743

bb13:                                             ; preds = %bb12
; call serde::de::Error::invalid_length
  %_29 = call noalias nonnull align 8 %"bincode::error::ErrorKind"* @_ZN5serde2de5Error14invalid_length17h051ba0151b9e280aE(i64 1, {}* nonnull align 1 bitcast (<{ i8*, [8 x i8] }>* @alloc644 to {}*), [3 x i64]* align 8 dereferenceable(24) bitcast (<{ i8*, [16 x i8], i8*, [0 x i8] }>* @vtable.0 to [3 x i64]*)), !dbg !1743
  br label %bb16, !dbg !1743

bb15:                                             ; preds = %bb12
  %38 = bitcast { i64, double }* %_19 to %"std::option::Option<f64>::Some"*, !dbg !1743
  %39 = getelementptr inbounds %"std::option::Option<f64>::Some", %"std::option::Option<f64>::Some"* %38, i32 0, i32 1, !dbg !1743
  %__value6 = load double, double* %39, align 8, !dbg !1743
  store double %__value6, double* %__value.dbg.spill7, align 8, !dbg !1743
  call void @llvm.dbg.declare(metadata double* %__value.dbg.spill7, metadata !1725, metadata !DIExpression()), !dbg !1748
  store double %__value6, double* %__field1.dbg.spill, align 8, !dbg !1748
  call void @llvm.dbg.declare(metadata double* %__field1.dbg.spill, metadata !1719, metadata !DIExpression()), !dbg !1749
; call serde::de::SeqAccess::next_element
  %40 = call i128 @_ZN5serde2de9SeqAccess12next_element17h8a6a36cfdcfc9c5fE({ i64*, i64 }* align 8 dereferenceable(16) %__seq), !dbg !1749
  store i128 %40, i128* %3, align 8, !dbg !1749
  %41 = bitcast %"std::result::Result<std::option::Option<u8>, std::boxed::Box<bincode::error::ErrorKind>>"* %_35 to i8*, !dbg !1749
  %42 = bitcast i128* %3 to i8*, !dbg !1749
  call void @llvm.memcpy.p0i8.p0i8.i64(i8* align 8 %41, i8* align 8 %42, i64 16, i1 false), !dbg !1749
  br label %bb17, !dbg !1749

bb17:                                             ; preds = %bb15
  %43 = bitcast %"std::result::Result<std::option::Option<u8>, std::boxed::Box<bincode::error::ErrorKind>>"* %_35 to i8*, !dbg !1749
  %44 = load i8, i8* %43, align 8, !dbg !1749, !range !257
  %45 = trunc i8 %44 to i1, !dbg !1749
  %_38 = zext i1 %45 to i64, !dbg !1749
  switch i64 %_38, label %bb19 [
    i64 0, label %bb20
    i64 1, label %bb18
  ], !dbg !1749

bb19:                                             ; preds = %bb17
  unreachable, !dbg !1749

bb20:                                             ; preds = %bb17
  %46 = bitcast %"std::result::Result<std::option::Option<u8>, std::boxed::Box<bincode::error::ErrorKind>>"* %_35 to %"std::result::Result<std::option::Option<u8>, std::boxed::Box<bincode::error::ErrorKind>>::Ok"*, !dbg !1749
  %47 = getelementptr inbounds %"std::result::Result<std::option::Option<u8>, std::boxed::Box<bincode::error::ErrorKind>>::Ok", %"std::result::Result<std::option::Option<u8>, std::boxed::Box<bincode::error::ErrorKind>>::Ok"* %46, i32 0, i32 1, !dbg !1749
  %48 = getelementptr inbounds { i8, i8 }, { i8, i8 }* %47, i32 0, i32 0, !dbg !1749
  %49 = load i8, i8* %48, align 1, !dbg !1749, !range !257
  %__val.010 = trunc i8 %49 to i1, !dbg !1749
  %50 = getelementptr inbounds { i8, i8 }, { i8, i8 }* %47, i32 0, i32 1, !dbg !1749
  %__val.111 = load i8, i8* %50, align 1, !dbg !1749
  %51 = getelementptr inbounds { i8, i8 }, { i8, i8 }* %__val.dbg.spill12, i32 0, i32 0, !dbg !1749
  %52 = zext i1 %__val.010 to i8, !dbg !1749
  store i8 %52, i8* %51, align 1, !dbg !1749
  %53 = getelementptr inbounds { i8, i8 }, { i8, i8 }* %__val.dbg.spill12, i32 0, i32 1, !dbg !1749
  store i8 %__val.111, i8* %53, align 1, !dbg !1749
  call void @llvm.dbg.declare(metadata { i8, i8 }* %__val.dbg.spill12, metadata !1729, metadata !DIExpression()), !dbg !1750
  %54 = getelementptr inbounds { i8, i8 }, { i8, i8 }* %_34, i32 0, i32 0, !dbg !1750
  %55 = zext i1 %__val.010 to i8, !dbg !1750
  store i8 %55, i8* %54, align 1, !dbg !1750
  %56 = getelementptr inbounds { i8, i8 }, { i8, i8 }* %_34, i32 0, i32 1, !dbg !1750
  store i8 %__val.111, i8* %56, align 1, !dbg !1750
  %57 = bitcast { i8, i8 }* %_34 to i8*, !dbg !1749
  %58 = load i8, i8* %57, align 1, !dbg !1749, !range !257
  %59 = trunc i8 %58 to i1, !dbg !1749
  %_42 = zext i1 %59 to i64, !dbg !1749
  switch i64 %_42, label %bb22 [
    i64 0, label %bb21
    i64 1, label %bb23
  ], !dbg !1749

bb18:                                             ; preds = %bb17
  %60 = bitcast %"std::result::Result<std::option::Option<u8>, std::boxed::Box<bincode::error::ErrorKind>>"* %_35 to %"std::result::Result<std::option::Option<u8>, std::boxed::Box<bincode::error::ErrorKind>>::Err"*, !dbg !1749
  %61 = getelementptr inbounds %"std::result::Result<std::option::Option<u8>, std::boxed::Box<bincode::error::ErrorKind>>::Err", %"std::result::Result<std::option::Option<u8>, std::boxed::Box<bincode::error::ErrorKind>>::Err"* %60, i32 0, i32 1, !dbg !1749
  %__err8 = load %"bincode::error::ErrorKind"*, %"bincode::error::ErrorKind"** %61, align 8, !dbg !1749, !nonnull !4
  store %"bincode::error::ErrorKind"* %__err8, %"bincode::error::ErrorKind"** %__err.dbg.spill9, align 8, !dbg !1749
  call void @llvm.dbg.declare(metadata %"bincode::error::ErrorKind"** %__err.dbg.spill9, metadata !1731, metadata !DIExpression()), !dbg !1751
  %62 = bitcast %"std::result::Result<solana_program::rent::Rent, std::boxed::Box<bincode::error::ErrorKind>>"* %0 to %"std::result::Result<solana_program::rent::Rent, std::boxed::Box<bincode::error::ErrorKind>>::Err"*, !dbg !1751
  %63 = getelementptr inbounds %"std::result::Result<solana_program::rent::Rent, std::boxed::Box<bincode::error::ErrorKind>>::Err", %"std::result::Result<solana_program::rent::Rent, std::boxed::Box<bincode::error::ErrorKind>>::Err"* %62, i32 0, i32 1, !dbg !1751
  store %"bincode::error::ErrorKind"* %__err8, %"bincode::error::ErrorKind"** %63, align 8, !dbg !1751
  %64 = bitcast %"std::result::Result<solana_program::rent::Rent, std::boxed::Box<bincode::error::ErrorKind>>"* %0 to i64*, !dbg !1751
  store i64 1, i64* %64, align 8, !dbg !1751
  br label %bb25, !dbg !1752

bb25:                                             ; preds = %bb24, %bb18
  br label %bb28, !dbg !1752

bb22:                                             ; preds = %bb20
  unreachable, !dbg !1749

bb21:                                             ; preds = %bb20
; call serde::de::Error::invalid_length
  %_44 = call noalias nonnull align 8 %"bincode::error::ErrorKind"* @_ZN5serde2de5Error14invalid_length17h051ba0151b9e280aE(i64 2, {}* nonnull align 1 bitcast (<{ i8*, [8 x i8] }>* @alloc644 to {}*), [3 x i64]* align 8 dereferenceable(24) bitcast (<{ i8*, [16 x i8], i8*, [0 x i8] }>* @vtable.0 to [3 x i64]*)), !dbg !1749
  br label %bb24, !dbg !1749

bb23:                                             ; preds = %bb20
  %65 = bitcast { i8, i8 }* %_34 to %"std::option::Option<u8>::Some"*, !dbg !1749
  %66 = getelementptr inbounds %"std::option::Option<u8>::Some", %"std::option::Option<u8>::Some"* %65, i32 0, i32 1, !dbg !1749
  %__value13 = load i8, i8* %66, align 1, !dbg !1749
  store i8 %__value13, i8* %__value.dbg.spill14, align 1, !dbg !1749
  call void @llvm.dbg.declare(metadata i8* %__value.dbg.spill14, metadata !1733, metadata !DIExpression()), !dbg !1754
  store i8 %__value13, i8* %__field2.dbg.spill, align 1, !dbg !1754
  call void @llvm.dbg.declare(metadata i8* %__field2.dbg.spill, metadata !1727, metadata !DIExpression()), !dbg !1755
  %67 = bitcast %"solana_program::rent::Rent"* %_48 to i64*, !dbg !1755
  store i64 %__value, i64* %67, align 8, !dbg !1755
  %68 = getelementptr inbounds %"solana_program::rent::Rent", %"solana_program::rent::Rent"* %_48, i32 0, i32 1, !dbg !1755
  store double %__value6, double* %68, align 8, !dbg !1755
  %69 = getelementptr inbounds %"solana_program::rent::Rent", %"solana_program::rent::Rent"* %_48, i32 0, i32 2, !dbg !1755
  store i8 %__value13, i8* %69, align 8, !dbg !1755
  %70 = bitcast %"std::result::Result<solana_program::rent::Rent, std::boxed::Box<bincode::error::ErrorKind>>"* %0 to %"std::result::Result<solana_program::rent::Rent, std::boxed::Box<bincode::error::ErrorKind>>::Ok"*, !dbg !1755
  %71 = getelementptr inbounds %"std::result::Result<solana_program::rent::Rent, std::boxed::Box<bincode::error::ErrorKind>>::Ok", %"std::result::Result<solana_program::rent::Rent, std::boxed::Box<bincode::error::ErrorKind>>::Ok"* %70, i32 0, i32 1, !dbg !1755
  %72 = bitcast %"solana_program::rent::Rent"* %71 to i8*, !dbg !1755
  %73 = bitcast %"solana_program::rent::Rent"* %_48 to i8*, !dbg !1755
  call void @llvm.memcpy.p0i8.p0i8.i64(i8* align 8 %72, i8* align 8 %73, i64 24, i1 false), !dbg !1755
  %74 = bitcast %"std::result::Result<solana_program::rent::Rent, std::boxed::Box<bincode::error::ErrorKind>>"* %0 to i64*, !dbg !1755
  store i64 0, i64* %74, align 8, !dbg !1755
  br label %bb29, !dbg !1756

bb29:                                             ; preds = %bb28, %bb23
  ret void, !dbg !1757

bb24:                                             ; preds = %bb21
  %75 = bitcast %"std::result::Result<solana_program::rent::Rent, std::boxed::Box<bincode::error::ErrorKind>>"* %0 to %"std::result::Result<solana_program::rent::Rent, std::boxed::Box<bincode::error::ErrorKind>>::Err"*, !dbg !1749
  %76 = getelementptr inbounds %"std::result::Result<solana_program::rent::Rent, std::boxed::Box<bincode::error::ErrorKind>>::Err", %"std::result::Result<solana_program::rent::Rent, std::boxed::Box<bincode::error::ErrorKind>>::Err"* %75, i32 0, i32 1, !dbg !1749
  store %"bincode::error::ErrorKind"* %_44, %"bincode::error::ErrorKind"** %76, align 8, !dbg !1749
  %77 = bitcast %"std::result::Result<solana_program::rent::Rent, std::boxed::Box<bincode::error::ErrorKind>>"* %0 to i64*, !dbg !1749
  store i64 1, i64* %77, align 8, !dbg !1749
  br label %bb25, !dbg !1752

bb28:                                             ; preds = %bb27, %bb26, %bb25
  br label %bb29, !dbg !1756

bb16:                                             ; preds = %bb13
  %78 = bitcast %"std::result::Result<solana_program::rent::Rent, std::boxed::Box<bincode::error::ErrorKind>>"* %0 to %"std::result::Result<solana_program::rent::Rent, std::boxed::Box<bincode::error::ErrorKind>>::Err"*, !dbg !1743
  %79 = getelementptr inbounds %"std::result::Result<solana_program::rent::Rent, std::boxed::Box<bincode::error::ErrorKind>>::Err", %"std::result::Result<solana_program::rent::Rent, std::boxed::Box<bincode::error::ErrorKind>>::Err"* %78, i32 0, i32 1, !dbg !1743
  store %"bincode::error::ErrorKind"* %_29, %"bincode::error::ErrorKind"** %79, align 8, !dbg !1743
  %80 = bitcast %"std::result::Result<solana_program::rent::Rent, std::boxed::Box<bincode::error::ErrorKind>>"* %0 to i64*, !dbg !1743
  store i64 1, i64* %80, align 8, !dbg !1743
  br label %bb26, !dbg !1746

bb8:                                              ; preds = %bb5
  %81 = bitcast %"std::result::Result<solana_program::rent::Rent, std::boxed::Box<bincode::error::ErrorKind>>"* %0 to %"std::result::Result<solana_program::rent::Rent, std::boxed::Box<bincode::error::ErrorKind>>::Err"*, !dbg !1737
